TI ARM Assembler Unix v20.2.1 Wed Sep 16 12:09:21 2020

Copyright (c) 1996-2018 Texas Instruments Incorporated
slnetifwifi.asm                                                      PAGE    1

       1                    ;******************************************************************************
       2                    ;* TI ARM G3 C/C++ Codegen                                          Unix v20.2.1.LTS *
       3                    ;* Date/Time created: Wed Sep 16 12:09:21 2020                                *
       4                    ;******************************************************************************
       5                            .compiler_opts --abi=eabi --arm_vmrs_si_workaround=off --code_state=16 --embedded_constants=on
       6 00000000                   .thumb
       7                    
       8                    $C$DW$CU        .dwtag  DW_TAG_compile_unit
       9                            .dwattr $C$DW$CU, DW_AT_name("/vagrant/Q3_SDK_01/sdk_root/source/ti/drivers/net/wifi/slnetif/s
      10                            .dwattr $C$DW$CU, DW_AT_producer("TI TI ARM G3 C/C++ Codegen Unix v20.2.1.LTS Copyright (c) 19
      11                            .dwattr $C$DW$CU, DW_AT_TI_version(0x01)
      12                            .dwattr $C$DW$CU, DW_AT_comp_dir("/vagrant/Q3_SDK_01/sdk_root/source/ti/drivers/net/wifi/slnet
      13                            .global gIfID
      14                            .common gIfID,2,2
      15                    $C$DW$1 .dwtag  DW_TAG_variable
      16                            .dwattr $C$DW$1, DW_AT_name("gIfID")
      17                            .dwattr $C$DW$1, DW_AT_TI_symbol_name("gIfID")
      18                            .dwattr $C$DW$1, DW_AT_location[DW_OP_addr gIfID]
      19                            .dwattr $C$DW$1, DW_AT_type(*$C$DW$T$246)
      20                            .dwattr $C$DW$1, DW_AT_external
      21                            .dwattr $C$DW$1, DW_AT_decl_file("/vagrant/Q3_SDK_01/sdk_root/source/ti/drivers/net/wifi/slnet
      22                            .dwattr $C$DW$1, DW_AT_decl_line(0x3e)
      23                            .dwattr $C$DW$1, DW_AT_decl_column(0x11)
      24                    
      25                            .global SlNetIfConfigWifi
      26 00000000                   .sect   ".data:SlNetIfConfigWifi", RW
      27                            .align  4
      28                            .elfsym SlNetIfConfigWifi,SYM_SIZE(104)
      29 00000000           SlNetIfConfigWifi:
      30 00000000 00000000!         .bits   slNetIfWifi_connEnable,32               ; SlNetIfConfigWifi.connEnable @ 0
      31 00000004 00000000!         .bits   slNetIfWifi_connDisable,32              ; SlNetIfConfigWifi.connDisable @ 32
      32 00000008 00000000!         .bits   SlNetIfWifi_socket,32           ; SlNetIfConfigWifi.sockCreate @ 64
      33 0000000c 00000000!         .bits   SlNetIfWifi_close,32            ; SlNetIfConfigWifi.sockClose @ 96
      34 00000010 00000000          .bits           0,32
      35                                            ; SlNetIfConfigWifi.sockShutdown @ 128
      36 00000014 00000000!         .bits   SlNetIfWifi_accept,32           ; SlNetIfConfigWifi.sockAccept @ 160
      37 00000018 00000000!         .bits   SlNetIfWifi_bind,32             ; SlNetIfConfigWifi.sockBind @ 192
      38 0000001c 00000000!         .bits   SlNetIfWifi_listen,32           ; SlNetIfConfigWifi.sockListen @ 224
      39 00000020 00000000!         .bits   SlNetIfWifi_connect,32          ; SlNetIfConfigWifi.sockConnect @ 256
      40 00000024 00000000          .bits           0,32
      41                                            ; SlNetIfConfigWifi.sockGetPeerName @ 288
      42 00000028 00000000          .bits           0,32
      43                                            ; SlNetIfConfigWifi.sockGetLocalName @ 320
      44 0000002c 00000000!         .bits   SlNetIfWifi_select,32           ; SlNetIfConfigWifi.sockSelect @ 352
      45 00000030 00000000!         .bits   SlNetIfWifi_setSockOpt,32               ; SlNetIfConfigWifi.sockSetOpt @ 384
      46 00000034 00000000!         .bits   SlNetIfWifi_getSockOpt,32               ; SlNetIfConfigWifi.sockGetOpt @ 416
      47 00000038 00000000!         .bits   SlNetIfWifi_recv,32             ; SlNetIfConfigWifi.sockRecv @ 448
      48 0000003c 00000000!         .bits   SlNetIfWifi_recvFrom,32         ; SlNetIfConfigWifi.sockRecvFrom @ 480
      49 00000040 00000000!         .bits   SlNetIfWifi_send,32             ; SlNetIfConfigWifi.sockSend @ 512
      50 00000044 00000000!         .bits   SlNetIfWifi_sendTo,32           ; SlNetIfConfigWifi.sockSendTo @ 544
      51 00000048 00000000!         .bits   SlNetIfWifi_sockstartSec,32             ; SlNetIfConfigWifi.sockstartSec @ 576
      52 0000004c 00000000!         .bits   SlNetIfWifi_getHostByName,32            ; SlNetIfConfigWifi.utilGetHostByName @ 608
      53 00000050 00000000!         .bits   SlNetIfWifi_ping,32             ; SlNetIfConfigWifi.utilPing @ 640
      54 00000054 00000000!         .bits   SlNetIfWifi_getIPAddr,32                ; SlNetIfConfigWifi.ifGetIPAddr @ 672
      55 00000058 00000000!         .bits   SlNetIfWifi_getConnectionStatus,32              ; SlNetIfConfigWifi.ifGetConnectionSta
TI ARM Assembler Unix v20.2.1 Wed Sep 16 12:09:21 2020

Copyright (c) 1996-2018 Texas Instruments Incorporated
slnetifwifi.asm                                                      PAGE    2

      56 0000005c 00000000!         .bits   SlNetIfWifi_loadSecObj,32               ; SlNetIfConfigWifi.ifLoadSecObj @ 736
      57 00000060 00000000!         .bits   SlNetIfWifi_CreateContext,32            ; SlNetIfConfigWifi.ifCreateContext @ 768
      58 00000064 00000000!         .bits   SlNetIfWifi_DeleteContext,32            ; SlNetIfConfigWifi.ifDeleteContext @ 800
      59                    
      60                    $C$DW$2 .dwtag  DW_TAG_variable
      61                            .dwattr $C$DW$2, DW_AT_name("SlNetIfConfigWifi")
      62                            .dwattr $C$DW$2, DW_AT_TI_symbol_name("SlNetIfConfigWifi")
      63                            .dwattr $C$DW$2, DW_AT_location[DW_OP_addr SlNetIfConfigWifi]
      64                            .dwattr $C$DW$2, DW_AT_type(*$C$DW$T$421)
      65                            .dwattr $C$DW$2, DW_AT_external
      66                            .dwattr $C$DW$2, DW_AT_decl_file("/vagrant/Q3_SDK_01/sdk_root/source/ti/drivers/net/wifi/slnet
      67                            .dwattr $C$DW$2, DW_AT_decl_line(0x44)
      68                            .dwattr $C$DW$2, DW_AT_decl_column(0x12)
      69                    
      70 00000000                   .sect   ".const:StartSecOptName"
      71                            .align  2
      72                            .elfsym StartSecOptName,SYM_SIZE(20)
      73 00000000           StartSecOptName:
      74 00000000 0000001E          .bits           0x1e,16
      75                                            ; StartSecOptName[0] @ 0
      76 00000000 001F001E          .bits           0x1f,16
      77                                            ; StartSecOptName[1] @ 16
      78 00000004 00000020          .bits           0x20,16
      79                                            ; StartSecOptName[2] @ 32
      80 00000004 00210020          .bits           0x21,16
      81                                            ; StartSecOptName[3] @ 48
      82 00000008 00000019          .bits           0x19,16
      83                                            ; StartSecOptName[4] @ 64
      84 00000008 001A0019          .bits           0x1a,16
      85                                            ; StartSecOptName[5] @ 80
      86 0000000c 00000028          .bits           0x28,16
      87                                            ; StartSecOptName[6] @ 96
      88 0000000c 00290028          .bits           0x29,16
      89                                            ; StartSecOptName[7] @ 112
      90 00000010 0000002A          .bits           0x2a,16
      91                                            ; StartSecOptName[8] @ 128
      92 00000010 0026002A          .bits           0x26,16
      93                                            ; StartSecOptName[9] @ 144
      94                    
      95                    $C$DW$3 .dwtag  DW_TAG_variable
      96                            .dwattr $C$DW$3, DW_AT_name("StartSecOptName")
      97                            .dwattr $C$DW$3, DW_AT_TI_symbol_name("StartSecOptName")
      98                            .dwattr $C$DW$3, DW_AT_type(*$C$DW$T$832)
      99                            .dwattr $C$DW$3, DW_AT_location[DW_OP_addr StartSecOptName]
     100                            .dwattr $C$DW$3, DW_AT_decl_file("/vagrant/Q3_SDK_01/sdk_root/source/ti/drivers/net/wifi/slnet
     101                            .dwattr $C$DW$3, DW_AT_decl_line(0x62)
     102                            .dwattr $C$DW$3, DW_AT_decl_column(0x16)
     103                    
     104 00000000                   .sect   ".const:socketType"
     105                            .align  2
     106                            .elfsym socketType,SYM_SIZE(16)
     107 00000000           socketType:
     108 00000000 00000001          .bits           0x1,16
     109                                            ; socketType[0] @ 0
     110 00000000 00020001          .bits           0x2,16
TI ARM Assembler Unix v20.2.1 Wed Sep 16 12:09:21 2020

Copyright (c) 1996-2018 Texas Instruments Incorporated
slnetifwifi.asm                                                      PAGE    3

     111                                            ; socketType[1] @ 16
     112 00000004 00000003          .bits           0x3,16
     113                                            ; socketType[2] @ 32
     114 00000004 00040003          .bits           0x4,16
     115                                            ; socketType[3] @ 48
     116 00000008 00000002          .bits           0x2,16
     117                                            ; socketType[4] @ 64
     118 00000008 00030002          .bits           0x3,16
     119                                            ; socketType[5] @ 80
     120 0000000c 00000007          .bits           0x7,16
     121                                            ; socketType[6] @ 96
     122 0000000c 00080007          .bits           0x8,16
     123                                            ; socketType[7] @ 112
     124                    
     125                    $C$DW$4 .dwtag  DW_TAG_variable
     126                            .dwattr $C$DW$4, DW_AT_name("socketType")
     127                            .dwattr $C$DW$4, DW_AT_TI_symbol_name("socketType")
     128                            .dwattr $C$DW$4, DW_AT_type(*$C$DW$T$833)
     129                            .dwattr $C$DW$4, DW_AT_location[DW_OP_addr socketType]
     130                            .dwattr $C$DW$4, DW_AT_decl_file("/vagrant/Q3_SDK_01/sdk_root/source/ti/drivers/net/wifi/slnet
     131                            .dwattr $C$DW$4, DW_AT_decl_line(0x70)
     132                            .dwattr $C$DW$4, DW_AT_decl_column(0x16)
     133                    
     134                    
     135                    $C$DW$5 .dwtag  DW_TAG_subprogram
     136                            .dwattr $C$DW$5, DW_AT_name("SlWifiConn_enable")
     137                            .dwattr $C$DW$5, DW_AT_TI_symbol_name("SlWifiConn_enable")
     138                            .dwattr $C$DW$5, DW_AT_type(*$C$DW$T$10)
     139                            .dwattr $C$DW$5, DW_AT_declaration
     140                            .dwattr $C$DW$5, DW_AT_external
     141                            .dwattr $C$DW$5, DW_AT_decl_file("/vagrant/Q3_SDK_01/sdk_root/source/ti/drivers/net/wifi/slwif
     142                            .dwattr $C$DW$5, DW_AT_decl_line(0x19d)
     143                            .dwattr $C$DW$5, DW_AT_decl_column(0x08)
     144                            .dwendtag $C$DW$5
     145                    
     146                    
     147                    $C$DW$6 .dwtag  DW_TAG_subprogram
     148                            .dwattr $C$DW$6, DW_AT_name("SlWifiConn_disable")
     149                            .dwattr $C$DW$6, DW_AT_TI_symbol_name("SlWifiConn_disable")
     150                            .dwattr $C$DW$6, DW_AT_type(*$C$DW$T$10)
     151                            .dwattr $C$DW$6, DW_AT_declaration
     152                            .dwattr $C$DW$6, DW_AT_external
     153                            .dwattr $C$DW$6, DW_AT_decl_file("/vagrant/Q3_SDK_01/sdk_root/source/ti/drivers/net/wifi/slwif
     154                            .dwattr $C$DW$6, DW_AT_decl_line(0x1a9)
     155                            .dwattr $C$DW$6, DW_AT_decl_column(0x08)
     156                            .dwendtag $C$DW$6
     157                    
     158                    
     159                    $C$DW$7 .dwtag  DW_TAG_subprogram
     160                            .dwattr $C$DW$7, DW_AT_name("sl_Socket")
     161                            .dwattr $C$DW$7, DW_AT_TI_symbol_name("sl_Socket")
     162                            .dwattr $C$DW$7, DW_AT_type(*$C$DW$T$8)
     163                            .dwattr $C$DW$7, DW_AT_declaration
     164                            .dwattr $C$DW$7, DW_AT_external
     165                            .dwattr $C$DW$7, DW_AT_decl_file("/vagrant/Q3_SDK_01/sdk_root/source/ti/drivers/net/wifi/sl_so
TI ARM Assembler Unix v20.2.1 Wed Sep 16 12:09:21 2020

Copyright (c) 1996-2018 Texas Instruments Incorporated
slnetifwifi.asm                                                      PAGE    4

     166                            .dwattr $C$DW$7, DW_AT_decl_line(0x234)
     167                            .dwattr $C$DW$7, DW_AT_decl_column(0x06)
     168                    $C$DW$8 .dwtag  DW_TAG_formal_parameter
     169                            .dwattr $C$DW$8, DW_AT_type(*$C$DW$T$8)
     170                    
     171                    $C$DW$9 .dwtag  DW_TAG_formal_parameter
     172                            .dwattr $C$DW$9, DW_AT_type(*$C$DW$T$8)
     173                    
     174                    $C$DW$10        .dwtag  DW_TAG_formal_parameter
     175                            .dwattr $C$DW$10, DW_AT_type(*$C$DW$T$8)
     176                    
     177                            .dwendtag $C$DW$7
     178                    
     179                    
     180                    $C$DW$11        .dwtag  DW_TAG_subprogram
     181                            .dwattr $C$DW$11, DW_AT_name("sl_Close")
     182                            .dwattr $C$DW$11, DW_AT_TI_symbol_name("sl_Close")
     183                            .dwattr $C$DW$11, DW_AT_type(*$C$DW$T$8)
     184                            .dwattr $C$DW$11, DW_AT_declaration
     185                            .dwattr $C$DW$11, DW_AT_external
     186                            .dwattr $C$DW$11, DW_AT_decl_file("/vagrant/Q3_SDK_01/sdk_root/source/ti/drivers/net/wifi/sl_s
     187                            .dwattr $C$DW$11, DW_AT_decl_line(0x246)
     188                            .dwattr $C$DW$11, DW_AT_decl_column(0x06)
     189                    $C$DW$12        .dwtag  DW_TAG_formal_parameter
     190                            .dwattr $C$DW$12, DW_AT_type(*$C$DW$T$8)
     191                    
     192                            .dwendtag $C$DW$11
     193                    
     194                    
     195                    $C$DW$13        .dwtag  DW_TAG_subprogram
     196                            .dwattr $C$DW$13, DW_AT_name("sl_Accept")
     197                            .dwattr $C$DW$13, DW_AT_TI_symbol_name("sl_Accept")
     198                            .dwattr $C$DW$13, DW_AT_type(*$C$DW$T$8)
     199                            .dwattr $C$DW$13, DW_AT_declaration
     200                            .dwattr $C$DW$13, DW_AT_external
     201                            .dwattr $C$DW$13, DW_AT_decl_file("/vagrant/Q3_SDK_01/sdk_root/source/ti/drivers/net/wifi/sl_s
     202                            .dwattr $C$DW$13, DW_AT_decl_line(0x27b)
     203                            .dwattr $C$DW$13, DW_AT_decl_column(0x06)
     204                    $C$DW$14        .dwtag  DW_TAG_formal_parameter
     205                            .dwattr $C$DW$14, DW_AT_type(*$C$DW$T$8)
     206                    
     207                    $C$DW$15        .dwtag  DW_TAG_formal_parameter
     208                            .dwattr $C$DW$15, DW_AT_type(*$C$DW$T$745)
     209                    
     210                    $C$DW$16        .dwtag  DW_TAG_formal_parameter
     211                            .dwattr $C$DW$16, DW_AT_type(*$C$DW$T$801)
     212                    
     213                            .dwendtag $C$DW$13
     214                    
     215                    
     216                    $C$DW$17        .dwtag  DW_TAG_subprogram
     217                            .dwattr $C$DW$17, DW_AT_name("sl_Bind")
     218                            .dwattr $C$DW$17, DW_AT_TI_symbol_name("sl_Bind")
     219                            .dwattr $C$DW$17, DW_AT_type(*$C$DW$T$8)
     220                            .dwattr $C$DW$17, DW_AT_declaration
TI ARM Assembler Unix v20.2.1 Wed Sep 16 12:09:21 2020

Copyright (c) 1996-2018 Texas Instruments Incorporated
slnetifwifi.asm                                                      PAGE    5

     221                            .dwattr $C$DW$17, DW_AT_external
     222                            .dwattr $C$DW$17, DW_AT_decl_file("/vagrant/Q3_SDK_01/sdk_root/source/ti/drivers/net/wifi/sl_s
     223                            .dwattr $C$DW$17, DW_AT_decl_line(0x297)
     224                            .dwattr $C$DW$17, DW_AT_decl_column(0x06)
     225                    $C$DW$18        .dwtag  DW_TAG_formal_parameter
     226                            .dwattr $C$DW$18, DW_AT_type(*$C$DW$T$8)
     227                    
     228                    $C$DW$19        .dwtag  DW_TAG_formal_parameter
     229                            .dwattr $C$DW$19, DW_AT_type(*$C$DW$T$744)
     230                    
     231                    $C$DW$20        .dwtag  DW_TAG_formal_parameter
     232                            .dwattr $C$DW$20, DW_AT_type(*$C$DW$T$8)
     233                    
     234                            .dwendtag $C$DW$17
     235                    
     236                    
     237                    $C$DW$21        .dwtag  DW_TAG_subprogram
     238                            .dwattr $C$DW$21, DW_AT_name("sl_Listen")
     239                            .dwattr $C$DW$21, DW_AT_TI_symbol_name("sl_Listen")
     240                            .dwattr $C$DW$21, DW_AT_type(*$C$DW$T$8)
     241                            .dwattr $C$DW$21, DW_AT_declaration
     242                            .dwattr $C$DW$21, DW_AT_external
     243                            .dwattr $C$DW$21, DW_AT_decl_file("/vagrant/Q3_SDK_01/sdk_root/source/ti/drivers/net/wifi/sl_s
     244                            .dwattr $C$DW$21, DW_AT_decl_line(0x2ae)
     245                            .dwattr $C$DW$21, DW_AT_decl_column(0x06)
     246                    $C$DW$22        .dwtag  DW_TAG_formal_parameter
     247                            .dwattr $C$DW$22, DW_AT_type(*$C$DW$T$8)
     248                    
     249                    $C$DW$23        .dwtag  DW_TAG_formal_parameter
     250                            .dwattr $C$DW$23, DW_AT_type(*$C$DW$T$8)
     251                    
     252                            .dwendtag $C$DW$21
     253                    
     254                    
     255                    $C$DW$24        .dwtag  DW_TAG_subprogram
     256                            .dwattr $C$DW$24, DW_AT_name("sl_Connect")
     257                            .dwattr $C$DW$24, DW_AT_TI_symbol_name("sl_Connect")
     258                            .dwattr $C$DW$24, DW_AT_type(*$C$DW$T$8)
     259                            .dwattr $C$DW$24, DW_AT_declaration
     260                            .dwattr $C$DW$24, DW_AT_external
     261                            .dwattr $C$DW$24, DW_AT_decl_file("/vagrant/Q3_SDK_01/sdk_root/source/ti/drivers/net/wifi/sl_s
     262                            .dwattr $C$DW$24, DW_AT_decl_line(0x2d7)
     263                            .dwattr $C$DW$24, DW_AT_decl_column(0x06)
     264                    $C$DW$25        .dwtag  DW_TAG_formal_parameter
     265                            .dwattr $C$DW$25, DW_AT_type(*$C$DW$T$8)
     266                    
     267                    $C$DW$26        .dwtag  DW_TAG_formal_parameter
     268                            .dwattr $C$DW$26, DW_AT_type(*$C$DW$T$744)
     269                    
     270                    $C$DW$27        .dwtag  DW_TAG_formal_parameter
     271                            .dwattr $C$DW$27, DW_AT_type(*$C$DW$T$8)
     272                    
     273                            .dwendtag $C$DW$24
     274                    
     275                    
TI ARM Assembler Unix v20.2.1 Wed Sep 16 12:09:21 2020

Copyright (c) 1996-2018 Texas Instruments Incorporated
slnetifwifi.asm                                                      PAGE    6

     276                    $C$DW$28        .dwtag  DW_TAG_subprogram
     277                            .dwattr $C$DW$28, DW_AT_name("sl_Select")
     278                            .dwattr $C$DW$28, DW_AT_TI_symbol_name("sl_Select")
     279                            .dwattr $C$DW$28, DW_AT_type(*$C$DW$T$8)
     280                            .dwattr $C$DW$28, DW_AT_declaration
     281                            .dwattr $C$DW$28, DW_AT_external
     282                            .dwattr $C$DW$28, DW_AT_decl_file("/vagrant/Q3_SDK_01/sdk_root/source/ti/drivers/net/wifi/sl_s
     283                            .dwattr $C$DW$28, DW_AT_decl_line(0x314)
     284                            .dwattr $C$DW$28, DW_AT_decl_column(0x06)
     285                    $C$DW$29        .dwtag  DW_TAG_formal_parameter
     286                            .dwattr $C$DW$29, DW_AT_type(*$C$DW$T$8)
     287                    
     288                    $C$DW$30        .dwtag  DW_TAG_formal_parameter
     289                            .dwattr $C$DW$30, DW_AT_type(*$C$DW$T$713)
     290                    
     291                    $C$DW$31        .dwtag  DW_TAG_formal_parameter
     292                            .dwattr $C$DW$31, DW_AT_type(*$C$DW$T$713)
     293                    
     294                    $C$DW$32        .dwtag  DW_TAG_formal_parameter
     295                            .dwattr $C$DW$32, DW_AT_type(*$C$DW$T$713)
     296                    
     297                    $C$DW$33        .dwtag  DW_TAG_formal_parameter
     298                            .dwattr $C$DW$33, DW_AT_type(*$C$DW$T$748)
     299                    
     300                            .dwendtag $C$DW$28
     301                    
     302                    
     303                    $C$DW$34        .dwtag  DW_TAG_subprogram
     304                            .dwattr $C$DW$34, DW_AT_name("sl_SetSockOpt")
     305                            .dwattr $C$DW$34, DW_AT_TI_symbol_name("sl_SetSockOpt")
     306                            .dwattr $C$DW$34, DW_AT_type(*$C$DW$T$8)
     307                            .dwattr $C$DW$34, DW_AT_declaration
     308                            .dwattr $C$DW$34, DW_AT_external
     309                            .dwattr $C$DW$34, DW_AT_decl_file("/vagrant/Q3_SDK_01/sdk_root/source/ti/drivers/net/wifi/sl_s
     310                            .dwattr $C$DW$34, DW_AT_decl_line(0x4d7)
     311                            .dwattr $C$DW$34, DW_AT_decl_column(0x06)
     312                    $C$DW$35        .dwtag  DW_TAG_formal_parameter
     313                            .dwattr $C$DW$35, DW_AT_type(*$C$DW$T$8)
     314                    
     315                    $C$DW$36        .dwtag  DW_TAG_formal_parameter
     316                            .dwattr $C$DW$36, DW_AT_type(*$C$DW$T$8)
     317                    
     318                    $C$DW$37        .dwtag  DW_TAG_formal_parameter
     319                            .dwattr $C$DW$37, DW_AT_type(*$C$DW$T$8)
     320                    
     321                    $C$DW$38        .dwtag  DW_TAG_formal_parameter
     322                            .dwattr $C$DW$38, DW_AT_type(*$C$DW$T$383)
     323                    
     324                    $C$DW$39        .dwtag  DW_TAG_formal_parameter
     325                            .dwattr $C$DW$39, DW_AT_type(*$C$DW$T$800)
     326                    
     327                            .dwendtag $C$DW$34
     328                    
     329                    
     330                    $C$DW$40        .dwtag  DW_TAG_subprogram
TI ARM Assembler Unix v20.2.1 Wed Sep 16 12:09:21 2020

Copyright (c) 1996-2018 Texas Instruments Incorporated
slnetifwifi.asm                                                      PAGE    7

     331                            .dwattr $C$DW$40, DW_AT_name("sl_GetSockOpt")
     332                            .dwattr $C$DW$40, DW_AT_TI_symbol_name("sl_GetSockOpt")
     333                            .dwattr $C$DW$40, DW_AT_type(*$C$DW$T$8)
     334                            .dwattr $C$DW$40, DW_AT_declaration
     335                            .dwattr $C$DW$40, DW_AT_external
     336                            .dwattr $C$DW$40, DW_AT_decl_file("/vagrant/Q3_SDK_01/sdk_root/source/ti/drivers/net/wifi/sl_s
     337                            .dwattr $C$DW$40, DW_AT_decl_line(0x502)
     338                            .dwattr $C$DW$40, DW_AT_decl_column(0x06)
     339                    $C$DW$41        .dwtag  DW_TAG_formal_parameter
     340                            .dwattr $C$DW$41, DW_AT_type(*$C$DW$T$8)
     341                    
     342                    $C$DW$42        .dwtag  DW_TAG_formal_parameter
     343                            .dwattr $C$DW$42, DW_AT_type(*$C$DW$T$8)
     344                    
     345                    $C$DW$43        .dwtag  DW_TAG_formal_parameter
     346                            .dwattr $C$DW$43, DW_AT_type(*$C$DW$T$8)
     347                    
     348                    $C$DW$44        .dwtag  DW_TAG_formal_parameter
     349                            .dwattr $C$DW$44, DW_AT_type(*$C$DW$T$3)
     350                    
     351                    $C$DW$45        .dwtag  DW_TAG_formal_parameter
     352                            .dwattr $C$DW$45, DW_AT_type(*$C$DW$T$801)
     353                    
     354                            .dwendtag $C$DW$40
     355                    
     356                    
     357                    $C$DW$46        .dwtag  DW_TAG_subprogram
     358                            .dwattr $C$DW$46, DW_AT_name("sl_Recv")
     359                            .dwattr $C$DW$46, DW_AT_TI_symbol_name("sl_Recv")
     360                            .dwattr $C$DW$46, DW_AT_type(*$C$DW$T$8)
     361                            .dwattr $C$DW$46, DW_AT_declaration
     362                            .dwattr $C$DW$46, DW_AT_external
     363                            .dwattr $C$DW$46, DW_AT_decl_file("/vagrant/Q3_SDK_01/sdk_root/source/ti/drivers/net/wifi/sl_s
     364                            .dwattr $C$DW$46, DW_AT_decl_line(0x548)
     365                            .dwattr $C$DW$46, DW_AT_decl_column(0x06)
     366                    $C$DW$47        .dwtag  DW_TAG_formal_parameter
     367                            .dwattr $C$DW$47, DW_AT_type(*$C$DW$T$8)
     368                    
     369                    $C$DW$48        .dwtag  DW_TAG_formal_parameter
     370                            .dwattr $C$DW$48, DW_AT_type(*$C$DW$T$3)
     371                    
     372                    $C$DW$49        .dwtag  DW_TAG_formal_parameter
     373                            .dwattr $C$DW$49, DW_AT_type(*$C$DW$T$8)
     374                    
     375                    $C$DW$50        .dwtag  DW_TAG_formal_parameter
     376                            .dwattr $C$DW$50, DW_AT_type(*$C$DW$T$8)
     377                    
     378                            .dwendtag $C$DW$46
     379                    
     380                    
     381                    $C$DW$51        .dwtag  DW_TAG_subprogram
     382                            .dwattr $C$DW$51, DW_AT_name("sl_RecvFrom")
     383                            .dwattr $C$DW$51, DW_AT_TI_symbol_name("sl_RecvFrom")
     384                            .dwattr $C$DW$51, DW_AT_type(*$C$DW$T$8)
     385                            .dwattr $C$DW$51, DW_AT_declaration
TI ARM Assembler Unix v20.2.1 Wed Sep 16 12:09:21 2020

Copyright (c) 1996-2018 Texas Instruments Incorporated
slnetifwifi.asm                                                      PAGE    8

     386                            .dwattr $C$DW$51, DW_AT_external
     387                            .dwattr $C$DW$51, DW_AT_decl_file("/vagrant/Q3_SDK_01/sdk_root/source/ti/drivers/net/wifi/sl_s
     388                            .dwattr $C$DW$51, DW_AT_decl_line(0x582)
     389                            .dwattr $C$DW$51, DW_AT_decl_column(0x06)
     390                    $C$DW$52        .dwtag  DW_TAG_formal_parameter
     391                            .dwattr $C$DW$52, DW_AT_type(*$C$DW$T$8)
     392                    
     393                    $C$DW$53        .dwtag  DW_TAG_formal_parameter
     394                            .dwattr $C$DW$53, DW_AT_type(*$C$DW$T$3)
     395                    
     396                    $C$DW$54        .dwtag  DW_TAG_formal_parameter
     397                            .dwattr $C$DW$54, DW_AT_type(*$C$DW$T$8)
     398                    
     399                    $C$DW$55        .dwtag  DW_TAG_formal_parameter
     400                            .dwattr $C$DW$55, DW_AT_type(*$C$DW$T$8)
     401                    
     402                    $C$DW$56        .dwtag  DW_TAG_formal_parameter
     403                            .dwattr $C$DW$56, DW_AT_type(*$C$DW$T$745)
     404                    
     405                    $C$DW$57        .dwtag  DW_TAG_formal_parameter
     406                            .dwattr $C$DW$57, DW_AT_type(*$C$DW$T$801)
     407                    
     408                            .dwendtag $C$DW$51
     409                    
     410                    
     411                    $C$DW$58        .dwtag  DW_TAG_subprogram
     412                            .dwattr $C$DW$58, DW_AT_name("sl_Send")
     413                            .dwattr $C$DW$58, DW_AT_TI_symbol_name("sl_Send")
     414                            .dwattr $C$DW$58, DW_AT_type(*$C$DW$T$8)
     415                            .dwattr $C$DW$58, DW_AT_declaration
     416                            .dwattr $C$DW$58, DW_AT_external
     417                            .dwattr $C$DW$58, DW_AT_decl_file("/vagrant/Q3_SDK_01/sdk_root/source/ti/drivers/net/wifi/sl_s
     418                            .dwattr $C$DW$58, DW_AT_decl_line(0x5b4)
     419                            .dwattr $C$DW$58, DW_AT_decl_column(0x06)
     420                    $C$DW$59        .dwtag  DW_TAG_formal_parameter
     421                            .dwattr $C$DW$59, DW_AT_type(*$C$DW$T$8)
     422                    
     423                    $C$DW$60        .dwtag  DW_TAG_formal_parameter
     424                            .dwattr $C$DW$60, DW_AT_type(*$C$DW$T$383)
     425                    
     426                    $C$DW$61        .dwtag  DW_TAG_formal_parameter
     427                            .dwattr $C$DW$61, DW_AT_type(*$C$DW$T$8)
     428                    
     429                    $C$DW$62        .dwtag  DW_TAG_formal_parameter
     430                            .dwattr $C$DW$62, DW_AT_type(*$C$DW$T$8)
     431                    
     432                            .dwendtag $C$DW$58
     433                    
     434                    
     435                    $C$DW$63        .dwtag  DW_TAG_subprogram
     436                            .dwattr $C$DW$63, DW_AT_name("sl_SendTo")
     437                            .dwattr $C$DW$63, DW_AT_TI_symbol_name("sl_SendTo")
     438                            .dwattr $C$DW$63, DW_AT_type(*$C$DW$T$8)
     439                            .dwattr $C$DW$63, DW_AT_declaration
     440                            .dwattr $C$DW$63, DW_AT_external
TI ARM Assembler Unix v20.2.1 Wed Sep 16 12:09:21 2020

Copyright (c) 1996-2018 Texas Instruments Incorporated
slnetifwifi.asm                                                      PAGE    9

     441                            .dwattr $C$DW$63, DW_AT_decl_file("/vagrant/Q3_SDK_01/sdk_root/source/ti/drivers/net/wifi/sl_s
     442                            .dwattr $C$DW$63, DW_AT_decl_line(0x5e7)
     443                            .dwattr $C$DW$63, DW_AT_decl_column(0x06)
     444                    $C$DW$64        .dwtag  DW_TAG_formal_parameter
     445                            .dwattr $C$DW$64, DW_AT_type(*$C$DW$T$8)
     446                    
     447                    $C$DW$65        .dwtag  DW_TAG_formal_parameter
     448                            .dwattr $C$DW$65, DW_AT_type(*$C$DW$T$383)
     449                    
     450                    $C$DW$66        .dwtag  DW_TAG_formal_parameter
     451                            .dwattr $C$DW$66, DW_AT_type(*$C$DW$T$8)
     452                    
     453                    $C$DW$67        .dwtag  DW_TAG_formal_parameter
     454                            .dwattr $C$DW$67, DW_AT_type(*$C$DW$T$8)
     455                    
     456                    $C$DW$68        .dwtag  DW_TAG_formal_parameter
     457                            .dwattr $C$DW$68, DW_AT_type(*$C$DW$T$744)
     458                    
     459                    $C$DW$69        .dwtag  DW_TAG_formal_parameter
     460                            .dwattr $C$DW$69, DW_AT_type(*$C$DW$T$800)
     461                    
     462                            .dwendtag $C$DW$63
     463                    
     464                    
     465                    $C$DW$70        .dwtag  DW_TAG_subprogram
     466                            .dwattr $C$DW$70, DW_AT_name("sl_StartTLS")
     467                            .dwattr $C$DW$70, DW_AT_TI_symbol_name("sl_StartTLS")
     468                            .dwattr $C$DW$70, DW_AT_type(*$C$DW$T$8)
     469                            .dwattr $C$DW$70, DW_AT_declaration
     470                            .dwattr $C$DW$70, DW_AT_external
     471                            .dwattr $C$DW$70, DW_AT_decl_file("/vagrant/Q3_SDK_01/sdk_root/source/ti/drivers/net/wifi/sl_s
     472                            .dwattr $C$DW$70, DW_AT_decl_line(0x5fa)
     473                            .dwattr $C$DW$70, DW_AT_decl_column(0x06)
     474                    $C$DW$71        .dwtag  DW_TAG_formal_parameter
     475                            .dwattr $C$DW$71, DW_AT_type(*$C$DW$T$8)
     476                    
     477                            .dwendtag $C$DW$70
     478                    
     479                    
     480                    $C$DW$72        .dwtag  DW_TAG_subprogram
     481                            .dwattr $C$DW$72, DW_AT_name("sl_NetAppDnsGetHostByName")
     482                            .dwattr $C$DW$72, DW_AT_TI_symbol_name("sl_NetAppDnsGetHostByName")
     483                            .dwattr $C$DW$72, DW_AT_type(*$C$DW$T$8)
     484                            .dwattr $C$DW$72, DW_AT_declaration
     485                            .dwattr $C$DW$72, DW_AT_external
     486                            .dwattr $C$DW$72, DW_AT_decl_file("/vagrant/Q3_SDK_01/sdk_root/source/ti/drivers/net/wifi/neta
     487                            .dwattr $C$DW$72, DW_AT_decl_line(0x2e1)
     488                            .dwattr $C$DW$72, DW_AT_decl_column(0x06)
     489                    $C$DW$73        .dwtag  DW_TAG_formal_parameter
     490                            .dwattr $C$DW$73, DW_AT_type(*$C$DW$T$155)
     491                    
     492                    $C$DW$74        .dwtag  DW_TAG_formal_parameter
     493                            .dwattr $C$DW$74, DW_AT_type(*$C$DW$T$242)
     494                    
     495                    $C$DW$75        .dwtag  DW_TAG_formal_parameter
TI ARM Assembler Unix v20.2.1 Wed Sep 16 12:09:21 2020

Copyright (c) 1996-2018 Texas Instruments Incorporated
slnetifwifi.asm                                                      PAGE   10

     496                            .dwattr $C$DW$75, DW_AT_type(*$C$DW$T$822)
     497                    
     498                    $C$DW$76        .dwtag  DW_TAG_formal_parameter
     499                            .dwattr $C$DW$76, DW_AT_type(*$C$DW$T$241)
     500                    
     501                            .dwendtag $C$DW$72
     502                    
     503                    
     504                    $C$DW$77        .dwtag  DW_TAG_subprogram
     505                            .dwattr $C$DW$77, DW_AT_name("sl_NetAppPing")
     506                            .dwattr $C$DW$77, DW_AT_TI_symbol_name("sl_NetAppPing")
     507                            .dwattr $C$DW$77, DW_AT_type(*$C$DW$T$8)
     508                            .dwattr $C$DW$77, DW_AT_declaration
     509                            .dwattr $C$DW$77, DW_AT_external
     510                            .dwattr $C$DW$77, DW_AT_decl_file("/vagrant/Q3_SDK_01/sdk_root/source/ti/drivers/net/wifi/neta
     511                            .dwattr $C$DW$77, DW_AT_decl_line(0x40d)
     512                            .dwattr $C$DW$77, DW_AT_decl_column(0x06)
     513                    $C$DW$78        .dwtag  DW_TAG_formal_parameter
     514                            .dwattr $C$DW$78, DW_AT_type(*$C$DW$T$593)
     515                    
     516                    $C$DW$79        .dwtag  DW_TAG_formal_parameter
     517                            .dwattr $C$DW$79, DW_AT_type(*$C$DW$T$241)
     518                    
     519                    $C$DW$80        .dwtag  DW_TAG_formal_parameter
     520                            .dwattr $C$DW$80, DW_AT_type(*$C$DW$T$596)
     521                    
     522                    $C$DW$81        .dwtag  DW_TAG_formal_parameter
     523                            .dwattr $C$DW$81, DW_AT_type(*$C$DW$T$756)
     524                    
     525                            .dwendtag $C$DW$77
     526                    
     527                    
     528                    $C$DW$82        .dwtag  DW_TAG_subprogram
     529                            .dwattr $C$DW$82, DW_AT_name("sl_WlanGet")
     530                            .dwattr $C$DW$82, DW_AT_TI_symbol_name("sl_WlanGet")
     531                            .dwattr $C$DW$82, DW_AT_type(*$C$DW$T$8)
     532                            .dwattr $C$DW$82, DW_AT_declaration
     533                            .dwattr $C$DW$82, DW_AT_external
     534                            .dwattr $C$DW$82, DW_AT_decl_file("/vagrant/Q3_SDK_01/sdk_root/source/ti/drivers/net/wifi/wlan
     535                            .dwattr $C$DW$82, DW_AT_decl_line(0xadf)
     536                            .dwattr $C$DW$82, DW_AT_decl_column(0x06)
     537                    $C$DW$83        .dwtag  DW_TAG_formal_parameter
     538                            .dwattr $C$DW$83, DW_AT_type(*$C$DW$T$242)
     539                    
     540                    $C$DW$84        .dwtag  DW_TAG_formal_parameter
     541                            .dwattr $C$DW$84, DW_AT_type(*$C$DW$T$229)
     542                    
     543                    $C$DW$85        .dwtag  DW_TAG_formal_parameter
     544                            .dwattr $C$DW$85, DW_AT_type(*$C$DW$T$229)
     545                    
     546                    $C$DW$86        .dwtag  DW_TAG_formal_parameter
     547                            .dwattr $C$DW$86, DW_AT_type(*$C$DW$T$107)
     548                    
     549                            .dwendtag $C$DW$82
     550                    
TI ARM Assembler Unix v20.2.1 Wed Sep 16 12:09:21 2020

Copyright (c) 1996-2018 Texas Instruments Incorporated
slnetifwifi.asm                                                      PAGE   11

     551                    
     552                    $C$DW$87        .dwtag  DW_TAG_subprogram
     553                            .dwattr $C$DW$87, DW_AT_name("sl_NetCfgGet")
     554                            .dwattr $C$DW$87, DW_AT_TI_symbol_name("sl_NetCfgGet")
     555                            .dwattr $C$DW$87, DW_AT_type(*$C$DW$T$8)
     556                            .dwattr $C$DW$87, DW_AT_declaration
     557                            .dwattr $C$DW$87, DW_AT_external
     558                            .dwattr $C$DW$87, DW_AT_decl_file("/vagrant/Q3_SDK_01/sdk_root/source/ti/drivers/net/wifi/netc
     559                            .dwattr $C$DW$87, DW_AT_decl_line(0x2b2)
     560                            .dwattr $C$DW$87, DW_AT_decl_column(0x06)
     561                    $C$DW$88        .dwtag  DW_TAG_formal_parameter
     562                            .dwattr $C$DW$88, DW_AT_type(*$C$DW$T$242)
     563                    
     564                    $C$DW$89        .dwtag  DW_TAG_formal_parameter
     565                            .dwattr $C$DW$89, DW_AT_type(*$C$DW$T$229)
     566                    
     567                    $C$DW$90        .dwtag  DW_TAG_formal_parameter
     568                            .dwattr $C$DW$90, DW_AT_type(*$C$DW$T$229)
     569                    
     570                    $C$DW$91        .dwtag  DW_TAG_formal_parameter
     571                            .dwattr $C$DW$91, DW_AT_type(*$C$DW$T$107)
     572                    
     573                            .dwendtag $C$DW$87
     574                    
     575                    
     576                    $C$DW$92        .dwtag  DW_TAG_subprogram
     577                            .dwattr $C$DW$92, DW_AT_name("SlNetUtil_htonl")
     578                            .dwattr $C$DW$92, DW_AT_TI_symbol_name("SlNetUtil_htonl")
     579                            .dwattr $C$DW$92, DW_AT_type(*$C$DW$T$35)
     580                            .dwattr $C$DW$92, DW_AT_declaration
     581                            .dwattr $C$DW$92, DW_AT_external
     582                            .dwattr $C$DW$92, DW_AT_decl_file("/vagrant/Q3_SDK_01/sdk_root/source/ti/net/slnetutils.h")
     583                            .dwattr $C$DW$92, DW_AT_decl_line(0x106)
     584                            .dwattr $C$DW$92, DW_AT_decl_column(0x0a)
     585                    $C$DW$93        .dwtag  DW_TAG_formal_parameter
     586                            .dwattr $C$DW$93, DW_AT_type(*$C$DW$T$35)
     587                    
     588                            .dwendtag $C$DW$92
     589                    
     590                    
     591                    $C$DW$94        .dwtag  DW_TAG_subprogram
     592                            .dwattr $C$DW$94, DW_AT_name("memset")
     593                            .dwattr $C$DW$94, DW_AT_TI_symbol_name("memset")
     594                            .dwattr $C$DW$94, DW_AT_type(*$C$DW$T$3)
     595                            .dwattr $C$DW$94, DW_AT_declaration
     596                            .dwattr $C$DW$94, DW_AT_external
     597                            .dwattr $C$DW$94, DW_AT_decl_file("/opt/ti/ccs-latest/ccs/tools/compiler/ti-cgt-arm_20.2.1.LTS
     598                            .dwattr $C$DW$94, DW_AT_decl_line(0x82)
     599                            .dwattr $C$DW$94, DW_AT_decl_column(0x16)
     600                    $C$DW$95        .dwtag  DW_TAG_formal_parameter
     601                            .dwattr $C$DW$95, DW_AT_type(*$C$DW$T$3)
     602                    
     603                    $C$DW$96        .dwtag  DW_TAG_formal_parameter
     604                            .dwattr $C$DW$96, DW_AT_type(*$C$DW$T$10)
     605                    
TI ARM Assembler Unix v20.2.1 Wed Sep 16 12:09:21 2020

Copyright (c) 1996-2018 Texas Instruments Incorporated
slnetifwifi.asm                                                      PAGE   12

     606                    $C$DW$97        .dwtag  DW_TAG_formal_parameter
     607                            .dwattr $C$DW$97, DW_AT_type(*$C$DW$T$461)
     608                    
     609                            .dwendtag $C$DW$94
     610                    
     611                    
     612                    $C$DW$98        .dwtag  DW_TAG_subprogram
     613                            .dwattr $C$DW$98, DW_AT_name("strlen")
     614                            .dwattr $C$DW$98, DW_AT_TI_symbol_name("strlen")
     615                            .dwattr $C$DW$98, DW_AT_type(*$C$DW$T$461)
     616                            .dwattr $C$DW$98, DW_AT_declaration
     617                            .dwattr $C$DW$98, DW_AT_external
     618                            .dwattr $C$DW$98, DW_AT_decl_file("/opt/ti/ccs-latest/ccs/tools/compiler/ti-cgt-arm_20.2.1.LTS
     619                            .dwattr $C$DW$98, DW_AT_decl_line(0x56)
     620                            .dwattr $C$DW$98, DW_AT_decl_column(0x14)
     621                    $C$DW$99        .dwtag  DW_TAG_formal_parameter
     622                            .dwattr $C$DW$99, DW_AT_type(*$C$DW$T$410)
     623                    
     624                            .dwendtag $C$DW$98
     625                    
     626                    
     627                    $C$DW$100       .dwtag  DW_TAG_subprogram
     628                            .dwattr $C$DW$100, DW_AT_name("sl_FsOpen")
     629                            .dwattr $C$DW$100, DW_AT_TI_symbol_name("sl_FsOpen")
     630                            .dwattr $C$DW$100, DW_AT_type(*$C$DW$T$12)
     631                            .dwattr $C$DW$100, DW_AT_declaration
     632                            .dwattr $C$DW$100, DW_AT_external
     633                            .dwattr $C$DW$100, DW_AT_decl_file("/vagrant/Q3_SDK_01/sdk_root/source/ti/drivers/net/wifi/fs.
     634                            .dwattr $C$DW$100, DW_AT_decl_line(0x167)
     635                            .dwattr $C$DW$100, DW_AT_decl_column(0x06)
     636                    $C$DW$101       .dwtag  DW_TAG_formal_parameter
     637                            .dwattr $C$DW$101, DW_AT_type(*$C$DW$T$781)
     638                    
     639                    $C$DW$102       .dwtag  DW_TAG_formal_parameter
     640                            .dwattr $C$DW$102, DW_AT_type(*$C$DW$T$243)
     641                    
     642                    $C$DW$103       .dwtag  DW_TAG_formal_parameter
     643                            .dwattr $C$DW$103, DW_AT_type(*$C$DW$T$822)
     644                    
     645                            .dwendtag $C$DW$100
     646                    
     647                    
     648                    $C$DW$104       .dwtag  DW_TAG_subprogram
     649                            .dwattr $C$DW$104, DW_AT_name("sl_FsWrite")
     650                            .dwattr $C$DW$104, DW_AT_TI_symbol_name("sl_FsWrite")
     651                            .dwattr $C$DW$104, DW_AT_type(*$C$DW$T$12)
     652                            .dwattr $C$DW$104, DW_AT_declaration
     653                            .dwattr $C$DW$104, DW_AT_external
     654                            .dwattr $C$DW$104, DW_AT_decl_file("/vagrant/Q3_SDK_01/sdk_root/source/ti/drivers/net/wifi/fs.
     655                            .dwattr $C$DW$104, DW_AT_decl_line(0x1ba)
     656                            .dwattr $C$DW$104, DW_AT_decl_column(0x06)
     657                    $C$DW$105       .dwtag  DW_TAG_formal_parameter
     658                            .dwattr $C$DW$105, DW_AT_type(*$C$DW$T$793)
     659                    
     660                    $C$DW$106       .dwtag  DW_TAG_formal_parameter
TI ARM Assembler Unix v20.2.1 Wed Sep 16 12:09:21 2020

Copyright (c) 1996-2018 Texas Instruments Incorporated
slnetifwifi.asm                                                      PAGE   13

     661                            .dwattr $C$DW$106, DW_AT_type(*$C$DW$T$13)
     662                    
     663                    $C$DW$107       .dwtag  DW_TAG_formal_parameter
     664                            .dwattr $C$DW$107, DW_AT_type(*$C$DW$T$107)
     665                    
     666                    $C$DW$108       .dwtag  DW_TAG_formal_parameter
     667                            .dwattr $C$DW$108, DW_AT_type(*$C$DW$T$13)
     668                    
     669                            .dwendtag $C$DW$104
     670                    
     671                    
     672                    $C$DW$109       .dwtag  DW_TAG_subprogram
     673                            .dwattr $C$DW$109, DW_AT_name("sl_FsClose")
     674                            .dwattr $C$DW$109, DW_AT_TI_symbol_name("sl_FsClose")
     675                            .dwattr $C$DW$109, DW_AT_type(*$C$DW$T$8)
     676                            .dwattr $C$DW$109, DW_AT_declaration
     677                            .dwattr $C$DW$109, DW_AT_external
     678                            .dwattr $C$DW$109, DW_AT_decl_file("/vagrant/Q3_SDK_01/sdk_root/source/ti/drivers/net/wifi/fs.
     679                            .dwattr $C$DW$109, DW_AT_decl_line(0x18a)
     680                            .dwattr $C$DW$109, DW_AT_decl_column(0x06)
     681                    $C$DW$110       .dwtag  DW_TAG_formal_parameter
     682                            .dwattr $C$DW$110, DW_AT_type(*$C$DW$T$793)
     683                    
     684                    $C$DW$111       .dwtag  DW_TAG_formal_parameter
     685                            .dwattr $C$DW$111, DW_AT_type(*$C$DW$T$781)
     686                    
     687                    $C$DW$112       .dwtag  DW_TAG_formal_parameter
     688                            .dwattr $C$DW$112, DW_AT_type(*$C$DW$T$781)
     689                    
     690                    $C$DW$113       .dwtag  DW_TAG_formal_parameter
     691                            .dwattr $C$DW$113, DW_AT_type(*$C$DW$T$243)
     692                    
     693                            .dwendtag $C$DW$109
     694                    
     695                    
     696                    $C$DW$114       .dwtag  DW_TAG_subprogram
     697                            .dwattr $C$DW$114, DW_AT_name("SlWifiConn_registerNetIFCallback")
     698                            .dwattr $C$DW$114, DW_AT_TI_symbol_name("SlWifiConn_registerNetIFCallback")
     699                            .dwattr $C$DW$114, DW_AT_type(*$C$DW$T$10)
     700                            .dwattr $C$DW$114, DW_AT_declaration
     701                            .dwattr $C$DW$114, DW_AT_external
     702                            .dwattr $C$DW$114, DW_AT_decl_file("/vagrant/Q3_SDK_01/sdk_root/source/ti/drivers/net/wifi/slw
     703                            .dwattr $C$DW$114, DW_AT_decl_line(0x18f)
     704                            .dwattr $C$DW$114, DW_AT_decl_column(0x08)
     705                    $C$DW$115       .dwtag  DW_TAG_formal_parameter
     706                            .dwattr $C$DW$115, DW_AT_type(*$C$DW$T$415)
     707                    
     708                    $C$DW$116       .dwtag  DW_TAG_formal_parameter
     709                            .dwattr $C$DW$116, DW_AT_type(*$C$DW$T$246)
     710                    
     711                            .dwendtag $C$DW$114
     712                    
     713                    ;       /opt/ti/ccs-latest/ccs/tools/compiler/ti-cgt-arm_20.2.1.LTS/bin/armacpia -@/tmp/TI7OnlieRVB 
     714 00000000                   .sect   ".text:slNetIfWifi_connEnable"
     715                            .clink
TI ARM Assembler Unix v20.2.1 Wed Sep 16 12:09:21 2020

Copyright (c) 1996-2018 Texas Instruments Incorporated
slnetifwifi.asm                                                      PAGE   14

     716                            .thumbfunc slNetIfWifi_connEnable
     717 00000000                   .thumb
     718                            .global slNetIfWifi_connEnable
     719                    
     720                    $C$DW$117       .dwtag  DW_TAG_subprogram
     721                            .dwattr $C$DW$117, DW_AT_name("slNetIfWifi_connEnable")
     722                            .dwattr $C$DW$117, DW_AT_low_pc(slNetIfWifi_connEnable)
     723                            .dwattr $C$DW$117, DW_AT_high_pc(0x00)
     724                            .dwattr $C$DW$117, DW_AT_TI_symbol_name("slNetIfWifi_connEnable")
     725                            .dwattr $C$DW$117, DW_AT_external
     726                            .dwattr $C$DW$117, DW_AT_type(*$C$DW$T$340)
     727                            .dwattr $C$DW$117, DW_AT_TI_begin_file("/vagrant/Q3_SDK_01/sdk_root/source/ti/drivers/net/wifi
     728                            .dwattr $C$DW$117, DW_AT_TI_begin_line(0x85)
     729                            .dwattr $C$DW$117, DW_AT_TI_begin_column(0x09)
     730                            .dwattr $C$DW$117, DW_AT_decl_file("/vagrant/Q3_SDK_01/sdk_root/source/ti/drivers/net/wifi/sln
     731                            .dwattr $C$DW$117, DW_AT_decl_line(0x85)
     732                            .dwattr $C$DW$117, DW_AT_decl_column(0x09)
     733                            .dwattr $C$DW$117, DW_AT_TI_max_frame_size(0x10)
     734                            .dwpsn  file "/vagrant/Q3_SDK_01/sdk_root/source/ti/drivers/net/wifi/slnetif/slnetifwifi.c",li
     735                    
     736                            .dwfde $C$DW$CIE, slNetIfWifi_connEnable
     737                    $C$DW$118       .dwtag  DW_TAG_formal_parameter
     738                            .dwattr $C$DW$118, DW_AT_name("ifContext")
     739                            .dwattr $C$DW$118, DW_AT_TI_symbol_name("ifContext")
     740                            .dwattr $C$DW$118, DW_AT_type(*$C$DW$T$3)
     741                            .dwattr $C$DW$118, DW_AT_location[DW_OP_reg0]
     742                    
     743                    ;----------------------------------------------------------------------
     744                    ; 133 | int32_t slNetIfWifi_connEnable(void *ifContext)                        
     745                    ;----------------------------------------------------------------------
     746                    
     747                    ;*****************************************************************************
     748                    ;* FUNCTION NAME: slNetIfWifi_connEnable                                     *
     749                    ;*                                                                           *
     750                    ;*   Regs Modified     : A1,A2,A3,A4,V9,SP,LR,SR                             *
     751                    ;*   Regs Used         : A1,A2,A3,A4,V9,SP,LR,SR                             *
     752                    ;*   Local Frame Size  : 0 Args + 8 Auto + 4 Save = 12 byte                  *
     753                    ;*****************************************************************************
     754 00000000           slNetIfWifi_connEnable:
     755                    ;* --------------------------------------------------------------------------*
     756                            .dwcfi  cfa_offset, 0
     757 00000000 B50E              PUSH      {A2, A3, A4, LR}      ; [DPU_V7M3_PIPE]  ; [ORIG 16-BIT INS]
     758                            .dwcfi  cfa_offset, 16
     759                            .dwcfi  save_reg_to_mem, 14, -4
     760                            .dwcfi  save_reg_to_mem, 3, -8
     761                            .dwcfi  save_reg_to_mem, 2, -12
     762                            .dwcfi  save_reg_to_mem, 1, -16
     763                    $C$DW$119       .dwtag  DW_TAG_variable
     764                            .dwattr $C$DW$119, DW_AT_name("ifContext")
     765                            .dwattr $C$DW$119, DW_AT_TI_symbol_name("ifContext")
     766                            .dwattr $C$DW$119, DW_AT_type(*$C$DW$T$3)
     767                            .dwattr $C$DW$119, DW_AT_location[DW_OP_breg13 0]
     768                    
     769                    $C$DW$120       .dwtag  DW_TAG_variable
     770                            .dwattr $C$DW$120, DW_AT_name("retVal")
TI ARM Assembler Unix v20.2.1 Wed Sep 16 12:09:21 2020

Copyright (c) 1996-2018 Texas Instruments Incorporated
slnetifwifi.asm                                                      PAGE   15

     771                            .dwattr $C$DW$120, DW_AT_TI_symbol_name("retVal")
     772                            .dwattr $C$DW$120, DW_AT_type(*$C$DW$T$10)
     773                            .dwattr $C$DW$120, DW_AT_location[DW_OP_breg13 4]
     774                    
     775                    ;----------------------------------------------------------------------
     776                    ; 135 | int retVal;                                                            
     777                    ;----------------------------------------------------------------------
     778 00000002 9000              STR       A1, [SP, #0]          ; [DPU_V7M3_PIPE] |134|  ; [ORIG 16-BIT INS]
     779                            .dwpsn  file "/vagrant/Q3_SDK_01/sdk_root/source/ti/drivers/net/wifi/slnetif/slnetifwifi.c",li
     780                    ;----------------------------------------------------------------------
     781                    ; 137 | retVal = SlWifiConn_enable();                                          
     782                    ;----------------------------------------------------------------------
     783                    $C$DW$121       .dwtag  DW_TAG_TI_branch
     784                            .dwattr $C$DW$121, DW_AT_low_pc(0x00)
     785                            .dwattr $C$DW$121, DW_AT_name("SlWifiConn_enable")
     786                            .dwattr $C$DW$121, DW_AT_TI_call
     787                    
     788 00000004 FFFEF7FF!         BL        SlWifiConn_enable     ; [DPU_V7M3_PIPE] |137|  ; [KEEP 32-BIT INS]
     789                            ; CALL OCCURS {SlWifiConn_enable }  ; [] |137| 
     790 00000008 9001              STR       A1, [SP, #4]          ; [DPU_V7M3_PIPE] |137|  ; [ORIG 16-BIT INS]
     791                            .dwpsn  file "/vagrant/Q3_SDK_01/sdk_root/source/ti/drivers/net/wifi/slnetif/slnetifwifi.c",li
     792                    ;----------------------------------------------------------------------
     793                    ; 139 | return retVal;                                                         
     794                    ;----------------------------------------------------------------------
     795 0000000a 9801              LDR       A1, [SP, #4]          ; [DPU_V7M3_PIPE] |139|  ; [ORIG 16-BIT INS]
     796                            .dwpsn  file "/vagrant/Q3_SDK_01/sdk_root/source/ti/drivers/net/wifi/slnetif/slnetifwifi.c",li
     797                    $C$DW$122       .dwtag  DW_TAG_TI_branch
     798                            .dwattr $C$DW$122, DW_AT_low_pc(0x00)
     799                            .dwattr $C$DW$122, DW_AT_TI_return
     800                    
     801 0000000c BD0E              POP       {A2, A3, A4, PC}      ; [DPU_V7M3_PIPE]  ; [ORIG 16-BIT INS]
     802                            .dwcfi  cfa_offset, 0
     803                            .dwcfi  restore_reg, 3
     804                            .dwcfi  restore_reg, 2
     805                            .dwcfi  restore_reg, 1
     806                            ; BRANCH OCCURS                  ; [] 
     807                            .dwattr $C$DW$117, DW_AT_TI_end_file("/vagrant/Q3_SDK_01/sdk_root/source/ti/drivers/net/wifi/s
     808                            .dwattr $C$DW$117, DW_AT_TI_end_line(0x8c)
     809                            .dwattr $C$DW$117, DW_AT_TI_end_column(0x01)
     810                            .dwendentry
     811                            .dwendtag $C$DW$117
     812                    
     813 00000000                   .sect   ".text:slNetIfWifi_connDisable"
     814                            .clink
     815                            .thumbfunc slNetIfWifi_connDisable
     816 00000000                   .thumb
     817                            .global slNetIfWifi_connDisable
     818                    
     819                    $C$DW$123       .dwtag  DW_TAG_subprogram
     820                            .dwattr $C$DW$123, DW_AT_name("slNetIfWifi_connDisable")
     821                            .dwattr $C$DW$123, DW_AT_low_pc(slNetIfWifi_connDisable)
     822                            .dwattr $C$DW$123, DW_AT_high_pc(0x00)
     823                            .dwattr $C$DW$123, DW_AT_TI_symbol_name("slNetIfWifi_connDisable")
     824                            .dwattr $C$DW$123, DW_AT_external
     825                            .dwattr $C$DW$123, DW_AT_type(*$C$DW$T$344)
TI ARM Assembler Unix v20.2.1 Wed Sep 16 12:09:21 2020

Copyright (c) 1996-2018 Texas Instruments Incorporated
slnetifwifi.asm                                                      PAGE   16

     826                            .dwattr $C$DW$123, DW_AT_TI_begin_file("/vagrant/Q3_SDK_01/sdk_root/source/ti/drivers/net/wifi
     827                            .dwattr $C$DW$123, DW_AT_TI_begin_line(0x93)
     828                            .dwattr $C$DW$123, DW_AT_TI_begin_column(0x09)
     829                            .dwattr $C$DW$123, DW_AT_decl_file("/vagrant/Q3_SDK_01/sdk_root/source/ti/drivers/net/wifi/sln
     830                            .dwattr $C$DW$123, DW_AT_decl_line(0x93)
     831                            .dwattr $C$DW$123, DW_AT_decl_column(0x09)
     832                            .dwattr $C$DW$123, DW_AT_TI_max_frame_size(0x10)
     833                            .dwpsn  file "/vagrant/Q3_SDK_01/sdk_root/source/ti/drivers/net/wifi/slnetif/slnetifwifi.c",li
     834                    
     835                            .dwfde $C$DW$CIE, slNetIfWifi_connDisable
     836                    $C$DW$124       .dwtag  DW_TAG_formal_parameter
     837                            .dwattr $C$DW$124, DW_AT_name("ifContext")
     838                            .dwattr $C$DW$124, DW_AT_TI_symbol_name("ifContext")
     839                            .dwattr $C$DW$124, DW_AT_type(*$C$DW$T$3)
     840                            .dwattr $C$DW$124, DW_AT_location[DW_OP_reg0]
     841                    
     842                    ;----------------------------------------------------------------------
     843                    ; 147 | int16_t slNetIfWifi_connDisable(void *ifContext)                       
     844                    ;----------------------------------------------------------------------
     845                    
     846                    ;*****************************************************************************
     847                    ;* FUNCTION NAME: slNetIfWifi_connDisable                                    *
     848                    ;*                                                                           *
     849                    ;*   Regs Modified     : A1,A2,A3,A4,V9,SP,LR,SR                             *
     850                    ;*   Regs Used         : A1,A2,A3,A4,V9,SP,LR,SR                             *
     851                    ;*   Local Frame Size  : 0 Args + 8 Auto + 4 Save = 12 byte                  *
     852                    ;*****************************************************************************
     853 00000000           slNetIfWifi_connDisable:
     854                    ;* --------------------------------------------------------------------------*
     855                            .dwcfi  cfa_offset, 0
     856 00000000 B50E              PUSH      {A2, A3, A4, LR}      ; [DPU_V7M3_PIPE]  ; [ORIG 16-BIT INS]
     857                            .dwcfi  cfa_offset, 16
     858                            .dwcfi  save_reg_to_mem, 14, -4
     859                            .dwcfi  save_reg_to_mem, 3, -8
     860                            .dwcfi  save_reg_to_mem, 2, -12
     861                            .dwcfi  save_reg_to_mem, 1, -16
     862                    $C$DW$125       .dwtag  DW_TAG_variable
     863                            .dwattr $C$DW$125, DW_AT_name("ifContext")
     864                            .dwattr $C$DW$125, DW_AT_TI_symbol_name("ifContext")
     865                            .dwattr $C$DW$125, DW_AT_type(*$C$DW$T$3)
     866                            .dwattr $C$DW$125, DW_AT_location[DW_OP_breg13 0]
     867                    
     868                    $C$DW$126       .dwtag  DW_TAG_variable
     869                            .dwattr $C$DW$126, DW_AT_name("retVal")
     870                            .dwattr $C$DW$126, DW_AT_TI_symbol_name("retVal")
     871                            .dwattr $C$DW$126, DW_AT_type(*$C$DW$T$10)
     872                            .dwattr $C$DW$126, DW_AT_location[DW_OP_breg13 4]
     873                    
     874                    ;----------------------------------------------------------------------
     875                    ; 149 | int retVal;                                                            
     876                    ;----------------------------------------------------------------------
     877 00000002 9000              STR       A1, [SP, #0]          ; [DPU_V7M3_PIPE] |148|  ; [ORIG 16-BIT INS]
     878                            .dwpsn  file "/vagrant/Q3_SDK_01/sdk_root/source/ti/drivers/net/wifi/slnetif/slnetifwifi.c",li
     879                    ;----------------------------------------------------------------------
     880                    ; 151 | retVal = SlWifiConn_disable();                                         
TI ARM Assembler Unix v20.2.1 Wed Sep 16 12:09:21 2020

Copyright (c) 1996-2018 Texas Instruments Incorporated
slnetifwifi.asm                                                      PAGE   17

     881                    ;----------------------------------------------------------------------
     882                    $C$DW$127       .dwtag  DW_TAG_TI_branch
     883                            .dwattr $C$DW$127, DW_AT_low_pc(0x00)
     884                            .dwattr $C$DW$127, DW_AT_name("SlWifiConn_disable")
     885                            .dwattr $C$DW$127, DW_AT_TI_call
     886                    
     887 00000004 FFFEF7FF!         BL        SlWifiConn_disable    ; [DPU_V7M3_PIPE] |151|  ; [KEEP 32-BIT INS]
     888                            ; CALL OCCURS {SlWifiConn_disable }  ; [] |151| 
     889 00000008 9001              STR       A1, [SP, #4]          ; [DPU_V7M3_PIPE] |151|  ; [ORIG 16-BIT INS]
     890                            .dwpsn  file "/vagrant/Q3_SDK_01/sdk_root/source/ti/drivers/net/wifi/slnetif/slnetifwifi.c",li
     891                    ;----------------------------------------------------------------------
     892                    ; 153 | return retVal;                                                         
     893                    ;----------------------------------------------------------------------
     894 0000000a 0004F9BD          LDRSH     A1, [SP, #4]          ; [DPU_V7M3_PIPE] |153|  ; [KEEP 32-BIT INS]
     895                            .dwpsn  file "/vagrant/Q3_SDK_01/sdk_root/source/ti/drivers/net/wifi/slnetif/slnetifwifi.c",li
     896                    $C$DW$128       .dwtag  DW_TAG_TI_branch
     897                            .dwattr $C$DW$128, DW_AT_low_pc(0x00)
     898                            .dwattr $C$DW$128, DW_AT_TI_return
     899                    
     900 0000000e BD0E              POP       {A2, A3, A4, PC}      ; [DPU_V7M3_PIPE]  ; [ORIG 16-BIT INS]
     901                            .dwcfi  cfa_offset, 0
     902                            .dwcfi  restore_reg, 3
     903                            .dwcfi  restore_reg, 2
     904                            .dwcfi  restore_reg, 1
     905                            ; BRANCH OCCURS                  ; [] 
     906                            .dwattr $C$DW$123, DW_AT_TI_end_file("/vagrant/Q3_SDK_01/sdk_root/source/ti/drivers/net/wifi/s
     907                            .dwattr $C$DW$123, DW_AT_TI_end_line(0x9a)
     908                            .dwattr $C$DW$123, DW_AT_TI_end_column(0x01)
     909                            .dwendentry
     910                            .dwendtag $C$DW$123
     911                    
     912 00000000                   .sect   ".text:SlNetIfWifi_socket"
     913                            .clink
     914                            .thumbfunc SlNetIfWifi_socket
     915 00000000                   .thumb
     916                            .global SlNetIfWifi_socket
     917                    
     918                    $C$DW$129       .dwtag  DW_TAG_subprogram
     919                            .dwattr $C$DW$129, DW_AT_name("SlNetIfWifi_socket")
     920                            .dwattr $C$DW$129, DW_AT_low_pc(SlNetIfWifi_socket)
     921                            .dwattr $C$DW$129, DW_AT_high_pc(0x00)
     922                            .dwattr $C$DW$129, DW_AT_TI_symbol_name("SlNetIfWifi_socket")
     923                            .dwattr $C$DW$129, DW_AT_external
     924                            .dwattr $C$DW$129, DW_AT_type(*$C$DW$T$344)
     925                            .dwattr $C$DW$129, DW_AT_TI_begin_file("/vagrant/Q3_SDK_01/sdk_root/source/ti/drivers/net/wifi
     926                            .dwattr $C$DW$129, DW_AT_TI_begin_line(0xa1)
     927                            .dwattr $C$DW$129, DW_AT_TI_begin_column(0x09)
     928                            .dwattr $C$DW$129, DW_AT_decl_file("/vagrant/Q3_SDK_01/sdk_root/source/ti/drivers/net/wifi/sln
     929                            .dwattr $C$DW$129, DW_AT_decl_line(0xa1)
     930                            .dwattr $C$DW$129, DW_AT_decl_column(0x09)
     931                            .dwattr $C$DW$129, DW_AT_TI_max_frame_size(0x10)
     932                            .dwpsn  file "/vagrant/Q3_SDK_01/sdk_root/source/ti/drivers/net/wifi/slnetif/slnetifwifi.c",li
     933                    
     934                            .dwfde $C$DW$CIE, SlNetIfWifi_socket
     935                    $C$DW$130       .dwtag  DW_TAG_formal_parameter
TI ARM Assembler Unix v20.2.1 Wed Sep 16 12:09:21 2020

Copyright (c) 1996-2018 Texas Instruments Incorporated
slnetifwifi.asm                                                      PAGE   18

     936                            .dwattr $C$DW$130, DW_AT_name("ifContext")
     937                            .dwattr $C$DW$130, DW_AT_TI_symbol_name("ifContext")
     938                            .dwattr $C$DW$130, DW_AT_type(*$C$DW$T$3)
     939                            .dwattr $C$DW$130, DW_AT_location[DW_OP_reg0]
     940                    
     941                    $C$DW$131       .dwtag  DW_TAG_formal_parameter
     942                            .dwattr $C$DW$131, DW_AT_name("Domain")
     943                            .dwattr $C$DW$131, DW_AT_TI_symbol_name("Domain")
     944                            .dwattr $C$DW$131, DW_AT_type(*$C$DW$T$10)
     945                            .dwattr $C$DW$131, DW_AT_location[DW_OP_reg1]
     946                    
     947                    $C$DW$132       .dwtag  DW_TAG_formal_parameter
     948                            .dwattr $C$DW$132, DW_AT_name("Type")
     949                            .dwattr $C$DW$132, DW_AT_TI_symbol_name("Type")
     950                            .dwattr $C$DW$132, DW_AT_type(*$C$DW$T$10)
     951                            .dwattr $C$DW$132, DW_AT_location[DW_OP_reg2]
     952                    
     953                    $C$DW$133       .dwtag  DW_TAG_formal_parameter
     954                            .dwattr $C$DW$133, DW_AT_name("Protocol")
     955                            .dwattr $C$DW$133, DW_AT_TI_symbol_name("Protocol")
     956                            .dwattr $C$DW$133, DW_AT_type(*$C$DW$T$10)
     957                            .dwattr $C$DW$133, DW_AT_location[DW_OP_reg3]
     958                    
     959                    $C$DW$134       .dwtag  DW_TAG_formal_parameter
     960                            .dwattr $C$DW$134, DW_AT_name("sdContext")
     961                            .dwattr $C$DW$134, DW_AT_TI_symbol_name("sdContext")
     962                            .dwattr $C$DW$134, DW_AT_type(*$C$DW$T$347)
     963                            .dwattr $C$DW$134, DW_AT_location[DW_OP_breg13 16]
     964                    
     965                    ;----------------------------------------------------------------------
     966                    ; 161 | int16_t SlNetIfWifi_socket(void *ifContext, int16_t Domain, int16_t Typ
     967                    ;     | e, int16_t Protocol, void **sdContext)                                 
     968                    ;----------------------------------------------------------------------
     969                    
     970                    ;*****************************************************************************
     971                    ;* FUNCTION NAME: SlNetIfWifi_socket                                         *
     972                    ;*                                                                           *
     973                    ;*   Regs Modified     : A1,A2,A3,A4,V9,SP,LR,SR                             *
     974                    ;*   Regs Used         : A1,A2,A3,A4,V9,SP,LR,SR                             *
     975                    ;*   Local Frame Size  : 0 Args + 12 Auto + 4 Save = 16 byte                 *
     976                    ;*****************************************************************************
     977 00000000           SlNetIfWifi_socket:
     978                    ;* --------------------------------------------------------------------------*
     979                            .dwcfi  cfa_offset, 0
     980 00000000 B50E              PUSH      {A2, A3, A4, LR}      ; [DPU_V7M3_PIPE]  ; [ORIG 16-BIT INS]
     981                            .dwcfi  cfa_offset, 16
     982                            .dwcfi  save_reg_to_mem, 14, -4
     983                            .dwcfi  save_reg_to_mem, 3, -8
     984                            .dwcfi  save_reg_to_mem, 2, -12
     985                            .dwcfi  save_reg_to_mem, 1, -16
     986                    $C$DW$135       .dwtag  DW_TAG_variable
     987                            .dwattr $C$DW$135, DW_AT_name("ifContext")
     988                            .dwattr $C$DW$135, DW_AT_TI_symbol_name("ifContext")
     989                            .dwattr $C$DW$135, DW_AT_type(*$C$DW$T$3)
     990                            .dwattr $C$DW$135, DW_AT_location[DW_OP_breg13 0]
TI ARM Assembler Unix v20.2.1 Wed Sep 16 12:09:21 2020

Copyright (c) 1996-2018 Texas Instruments Incorporated
slnetifwifi.asm                                                      PAGE   19

     991                    
     992                    $C$DW$136       .dwtag  DW_TAG_variable
     993                            .dwattr $C$DW$136, DW_AT_name("Domain")
     994                            .dwattr $C$DW$136, DW_AT_TI_symbol_name("Domain")
     995                            .dwattr $C$DW$136, DW_AT_type(*$C$DW$T$344)
     996                            .dwattr $C$DW$136, DW_AT_location[DW_OP_breg13 4]
     997                    
     998                    $C$DW$137       .dwtag  DW_TAG_variable
     999                            .dwattr $C$DW$137, DW_AT_name("Type")
    1000                            .dwattr $C$DW$137, DW_AT_TI_symbol_name("Type")
    1001                            .dwattr $C$DW$137, DW_AT_type(*$C$DW$T$344)
    1002                            .dwattr $C$DW$137, DW_AT_location[DW_OP_breg13 6]
    1003                    
    1004                    $C$DW$138       .dwtag  DW_TAG_variable
    1005                            .dwattr $C$DW$138, DW_AT_name("Protocol")
    1006                            .dwattr $C$DW$138, DW_AT_TI_symbol_name("Protocol")
    1007                            .dwattr $C$DW$138, DW_AT_type(*$C$DW$T$344)
    1008                            .dwattr $C$DW$138, DW_AT_location[DW_OP_breg13 8]
    1009                    
    1010                    $C$DW$139       .dwtag  DW_TAG_variable
    1011                            .dwattr $C$DW$139, DW_AT_name("mappedSocketType")
    1012                            .dwattr $C$DW$139, DW_AT_TI_symbol_name("mappedSocketType")
    1013                            .dwattr $C$DW$139, DW_AT_type(*$C$DW$T$344)
    1014                            .dwattr $C$DW$139, DW_AT_location[DW_OP_breg13 10]
    1015                    
    1016 00000002 3008F8AD          STRH      A4, [SP, #8]          ; [DPU_V7M3_PIPE] |162|  ; [KEEP 32-BIT INS]
    1017 00000006 2006F8AD          STRH      A3, [SP, #6]          ; [DPU_V7M3_PIPE] |162|  ; [KEEP 32-BIT INS]
    1018 0000000a 1004F8AD          STRH      A2, [SP, #4]          ; [DPU_V7M3_PIPE] |162|  ; [KEEP 32-BIT INS]
    1019 0000000e 9000              STR       A1, [SP, #0]          ; [DPU_V7M3_PIPE] |162|  ; [ORIG 16-BIT INS]
    1020                            .dwpsn  file "/vagrant/Q3_SDK_01/sdk_root/source/ti/drivers/net/wifi/slnetif/slnetifwifi.c",li
    1021                    ;----------------------------------------------------------------------
    1022                    ; 164 | int16_t mappedSocketType = socketType[Type - 1];                       
    1023                    ;----------------------------------------------------------------------
    1024 00000010 4908              LDR       A2, $C$CON1           ; [DPU_V7M3_PIPE] |164|  ; [ORIG 16-BIT INS]
    1025 00000012 0006F9BD          LDRSH     A1, [SP, #6]          ; [DPU_V7M3_PIPE] |164|  ; [KEEP 32-BIT INS]
    1026 00000016 0040              LSLS      A1, A1, #1            ; [DPU_V7M3_PIPE] |164|  ; [ORIG 16-BIT INS]
    1027 00000018 1E80              SUBS      A1, A1, #2            ; [DPU_V7M3_PIPE] |164|  ; [ORIG 16-BIT INS]
    1028 0000001a 5A08              LDRH      A1, [A2, +A1]         ; [DPU_V7M3_PIPE] |164|  ; [ORIG 16-BIT INS]
    1029 0000001c 000AF8AD          STRH      A1, [SP, #10]         ; [DPU_V7M3_PIPE] |164|  ; [KEEP 32-BIT INS]
    1030                            .dwpsn  file "/vagrant/Q3_SDK_01/sdk_root/source/ti/drivers/net/wifi/slnetif/slnetifwifi.c",li
    1031                    ;----------------------------------------------------------------------
    1032                    ; 165 | return (sl_Socket(Domain, mappedSocketType, Protocol));                
    1033                    ;----------------------------------------------------------------------
    1034 00000020 2008F9BD          LDRSH     A3, [SP, #8]          ; [DPU_V7M3_PIPE] |165|  ; [KEEP 32-BIT INS]
    1035 00000024 0004F9BD          LDRSH     A1, [SP, #4]          ; [DPU_V7M3_PIPE] |165|  ; [KEEP 32-BIT INS]
    1036 00000028 100AF9BD          LDRSH     A2, [SP, #10]         ; [DPU_V7M3_PIPE] |165|  ; [KEEP 32-BIT INS]
    1037                    $C$DW$140       .dwtag  DW_TAG_TI_branch
    1038                            .dwattr $C$DW$140, DW_AT_low_pc(0x00)
    1039                            .dwattr $C$DW$140, DW_AT_name("sl_Socket")
    1040                            .dwattr $C$DW$140, DW_AT_TI_call
    1041                    
    1042 0000002c FFFEF7FF!         BL        sl_Socket             ; [DPU_V7M3_PIPE] |165|  ; [KEEP 32-BIT INS]
    1043                            ; CALL OCCURS {sl_Socket }       ; [] |165| 
    1044                            .dwpsn  file "/vagrant/Q3_SDK_01/sdk_root/source/ti/drivers/net/wifi/slnetif/slnetifwifi.c",li
    1045                    $C$DW$141       .dwtag  DW_TAG_TI_branch
TI ARM Assembler Unix v20.2.1 Wed Sep 16 12:09:21 2020

Copyright (c) 1996-2018 Texas Instruments Incorporated
slnetifwifi.asm                                                      PAGE   20

    1046                            .dwattr $C$DW$141, DW_AT_low_pc(0x00)
    1047                            .dwattr $C$DW$141, DW_AT_TI_return
    1048                    
    1049 00000030 BD0E              POP       {A2, A3, A4, PC}      ; [DPU_V7M3_PIPE]  ; [ORIG 16-BIT INS]
    1050                            .dwcfi  cfa_offset, 0
    1051                            .dwcfi  restore_reg, 3
    1052                            .dwcfi  restore_reg, 2
    1053                            .dwcfi  restore_reg, 1
    1054                            ; BRANCH OCCURS                  ; [] 
    1055                            .dwattr $C$DW$129, DW_AT_TI_end_file("/vagrant/Q3_SDK_01/sdk_root/source/ti/drivers/net/wifi/s
    1056                            .dwattr $C$DW$129, DW_AT_TI_end_line(0xa6)
    1057                            .dwattr $C$DW$129, DW_AT_TI_end_column(0x01)
    1058                            .dwendentry
    1059                            .dwendtag $C$DW$129
    1060                    
    1061 00000000                   .sect   ".text:SlNetIfWifi_close"
    1062                            .clink
    1063                            .thumbfunc SlNetIfWifi_close
    1064 00000000                   .thumb
    1065                            .global SlNetIfWifi_close
    1066                    
    1067                    $C$DW$142       .dwtag  DW_TAG_subprogram
    1068                            .dwattr $C$DW$142, DW_AT_name("SlNetIfWifi_close")
    1069                            .dwattr $C$DW$142, DW_AT_low_pc(SlNetIfWifi_close)
    1070                            .dwattr $C$DW$142, DW_AT_high_pc(0x00)
    1071                            .dwattr $C$DW$142, DW_AT_TI_symbol_name("SlNetIfWifi_close")
    1072                            .dwattr $C$DW$142, DW_AT_external
    1073                            .dwattr $C$DW$142, DW_AT_type(*$C$DW$T$340)
    1074                            .dwattr $C$DW$142, DW_AT_TI_begin_file("/vagrant/Q3_SDK_01/sdk_root/source/ti/drivers/net/wifi
    1075                            .dwattr $C$DW$142, DW_AT_TI_begin_line(0xae)
    1076                            .dwattr $C$DW$142, DW_AT_TI_begin_column(0x09)
    1077                            .dwattr $C$DW$142, DW_AT_decl_file("/vagrant/Q3_SDK_01/sdk_root/source/ti/drivers/net/wifi/sln
    1078                            .dwattr $C$DW$142, DW_AT_decl_line(0xae)
    1079                            .dwattr $C$DW$142, DW_AT_decl_column(0x09)
    1080                            .dwattr $C$DW$142, DW_AT_TI_max_frame_size(0x10)
    1081                            .dwpsn  file "/vagrant/Q3_SDK_01/sdk_root/source/ti/drivers/net/wifi/slnetif/slnetifwifi.c",li
    1082                    
    1083                            .dwfde $C$DW$CIE, SlNetIfWifi_close
    1084                    $C$DW$143       .dwtag  DW_TAG_formal_parameter
    1085                            .dwattr $C$DW$143, DW_AT_name("sd")
    1086                            .dwattr $C$DW$143, DW_AT_TI_symbol_name("sd")
    1087                            .dwattr $C$DW$143, DW_AT_type(*$C$DW$T$10)
    1088                            .dwattr $C$DW$143, DW_AT_location[DW_OP_reg0]
    1089                    
    1090                    $C$DW$144       .dwtag  DW_TAG_formal_parameter
    1091                            .dwattr $C$DW$144, DW_AT_name("sdContext")
    1092                            .dwattr $C$DW$144, DW_AT_TI_symbol_name("sdContext")
    1093                            .dwattr $C$DW$144, DW_AT_type(*$C$DW$T$3)
    1094                            .dwattr $C$DW$144, DW_AT_location[DW_OP_reg1]
    1095                    
    1096                    ;----------------------------------------------------------------------
    1097                    ; 174 | int32_t SlNetIfWifi_close(int16_t sd, void *sdContext)                 
    1098                    ;----------------------------------------------------------------------
    1099                    
    1100                    ;*****************************************************************************
TI ARM Assembler Unix v20.2.1 Wed Sep 16 12:09:21 2020

Copyright (c) 1996-2018 Texas Instruments Incorporated
slnetifwifi.asm                                                      PAGE   21

    1101                    ;* FUNCTION NAME: SlNetIfWifi_close                                          *
    1102                    ;*                                                                           *
    1103                    ;*   Regs Modified     : A1,A2,A3,A4,V9,SP,LR,SR                             *
    1104                    ;*   Regs Used         : A1,A2,A3,A4,V9,SP,LR,SR                             *
    1105                    ;*   Local Frame Size  : 0 Args + 8 Auto + 4 Save = 12 byte                  *
    1106                    ;*****************************************************************************
    1107 00000000           SlNetIfWifi_close:
    1108                    ;* --------------------------------------------------------------------------*
    1109                            .dwcfi  cfa_offset, 0
    1110 00000000 B50E              PUSH      {A2, A3, A4, LR}      ; [DPU_V7M3_PIPE]  ; [ORIG 16-BIT INS]
    1111                            .dwcfi  cfa_offset, 16
    1112                            .dwcfi  save_reg_to_mem, 14, -4
    1113                            .dwcfi  save_reg_to_mem, 3, -8
    1114                            .dwcfi  save_reg_to_mem, 2, -12
    1115                            .dwcfi  save_reg_to_mem, 1, -16
    1116                    $C$DW$145       .dwtag  DW_TAG_variable
    1117                            .dwattr $C$DW$145, DW_AT_name("sdContext")
    1118                            .dwattr $C$DW$145, DW_AT_TI_symbol_name("sdContext")
    1119                            .dwattr $C$DW$145, DW_AT_type(*$C$DW$T$3)
    1120                            .dwattr $C$DW$145, DW_AT_location[DW_OP_breg13 0]
    1121                    
    1122                    $C$DW$146       .dwtag  DW_TAG_variable
    1123                            .dwattr $C$DW$146, DW_AT_name("sd")
    1124                            .dwattr $C$DW$146, DW_AT_TI_symbol_name("sd")
    1125                            .dwattr $C$DW$146, DW_AT_type(*$C$DW$T$344)
    1126                            .dwattr $C$DW$146, DW_AT_location[DW_OP_breg13 4]
    1127                    
    1128 00000002 9100              STR       A2, [SP, #0]          ; [DPU_V7M3_PIPE] |175|  ; [ORIG 16-BIT INS]
    1129 00000004 0004F8AD          STRH      A1, [SP, #4]          ; [DPU_V7M3_PIPE] |175|  ; [KEEP 32-BIT INS]
    1130                            .dwpsn  file "/vagrant/Q3_SDK_01/sdk_root/source/ti/drivers/net/wifi/slnetif/slnetifwifi.c",li
    1131                    ;----------------------------------------------------------------------
    1132                    ; 177 | return sl_Close(sd);                                                   
    1133                    ;----------------------------------------------------------------------
    1134 00000008 0004F9BD          LDRSH     A1, [SP, #4]          ; [DPU_V7M3_PIPE] |177|  ; [KEEP 32-BIT INS]
    1135                    $C$DW$147       .dwtag  DW_TAG_TI_branch
    1136                            .dwattr $C$DW$147, DW_AT_low_pc(0x00)
    1137                            .dwattr $C$DW$147, DW_AT_name("sl_Close")
    1138                            .dwattr $C$DW$147, DW_AT_TI_call
    1139                    
    1140 0000000c FFFEF7FF!         BL        sl_Close              ; [DPU_V7M3_PIPE] |177|  ; [KEEP 32-BIT INS]
    1141                            ; CALL OCCURS {sl_Close }        ; [] |177| 
    1142                            .dwpsn  file "/vagrant/Q3_SDK_01/sdk_root/source/ti/drivers/net/wifi/slnetif/slnetifwifi.c",li
    1143                    $C$DW$148       .dwtag  DW_TAG_TI_branch
    1144                            .dwattr $C$DW$148, DW_AT_low_pc(0x00)
    1145                            .dwattr $C$DW$148, DW_AT_TI_return
    1146                    
    1147 00000010 BD0E              POP       {A2, A3, A4, PC}      ; [DPU_V7M3_PIPE]  ; [ORIG 16-BIT INS]
    1148                            .dwcfi  cfa_offset, 0
    1149                            .dwcfi  restore_reg, 3
    1150                            .dwcfi  restore_reg, 2
    1151                            .dwcfi  restore_reg, 1
    1152                            ; BRANCH OCCURS                  ; [] 
    1153                            .dwattr $C$DW$142, DW_AT_TI_end_file("/vagrant/Q3_SDK_01/sdk_root/source/ti/drivers/net/wifi/s
    1154                            .dwattr $C$DW$142, DW_AT_TI_end_line(0xb2)
    1155                            .dwattr $C$DW$142, DW_AT_TI_end_column(0x01)
TI ARM Assembler Unix v20.2.1 Wed Sep 16 12:09:21 2020

Copyright (c) 1996-2018 Texas Instruments Incorporated
slnetifwifi.asm                                                      PAGE   22

    1156                            .dwendentry
    1157                            .dwendtag $C$DW$142
    1158                    
    1159 00000000                   .sect   ".text:SlNetIfWifi_accept"
    1160                            .clink
    1161                            .thumbfunc SlNetIfWifi_accept
    1162 00000000                   .thumb
    1163                            .global SlNetIfWifi_accept
    1164                    
    1165                    $C$DW$149       .dwtag  DW_TAG_subprogram
    1166                            .dwattr $C$DW$149, DW_AT_name("SlNetIfWifi_accept")
    1167                            .dwattr $C$DW$149, DW_AT_low_pc(SlNetIfWifi_accept)
    1168                            .dwattr $C$DW$149, DW_AT_high_pc(0x00)
    1169                            .dwattr $C$DW$149, DW_AT_TI_symbol_name("SlNetIfWifi_accept")
    1170                            .dwattr $C$DW$149, DW_AT_external
    1171                            .dwattr $C$DW$149, DW_AT_type(*$C$DW$T$344)
    1172                            .dwattr $C$DW$149, DW_AT_TI_begin_file("/vagrant/Q3_SDK_01/sdk_root/source/ti/drivers/net/wifi
    1173                            .dwattr $C$DW$149, DW_AT_TI_begin_line(0xba)
    1174                            .dwattr $C$DW$149, DW_AT_TI_begin_column(0x09)
    1175                            .dwattr $C$DW$149, DW_AT_decl_file("/vagrant/Q3_SDK_01/sdk_root/source/ti/drivers/net/wifi/sln
    1176                            .dwattr $C$DW$149, DW_AT_decl_line(0xba)
    1177                            .dwattr $C$DW$149, DW_AT_decl_column(0x09)
    1178                            .dwattr $C$DW$149, DW_AT_TI_max_frame_size(0x18)
    1179                            .dwpsn  file "/vagrant/Q3_SDK_01/sdk_root/source/ti/drivers/net/wifi/slnetif/slnetifwifi.c",li
    1180                    
    1181                            .dwfde $C$DW$CIE, SlNetIfWifi_accept
    1182                    $C$DW$150       .dwtag  DW_TAG_formal_parameter
    1183                            .dwattr $C$DW$150, DW_AT_name("sd")
    1184                            .dwattr $C$DW$150, DW_AT_TI_symbol_name("sd")
    1185                            .dwattr $C$DW$150, DW_AT_type(*$C$DW$T$10)
    1186                            .dwattr $C$DW$150, DW_AT_location[DW_OP_reg0]
    1187                    
    1188                    $C$DW$151       .dwtag  DW_TAG_formal_parameter
    1189                            .dwattr $C$DW$151, DW_AT_name("sdContext")
    1190                            .dwattr $C$DW$151, DW_AT_TI_symbol_name("sdContext")
    1191                            .dwattr $C$DW$151, DW_AT_type(*$C$DW$T$3)
    1192                            .dwattr $C$DW$151, DW_AT_location[DW_OP_reg1]
    1193                    
    1194                    $C$DW$152       .dwtag  DW_TAG_formal_parameter
    1195                            .dwattr $C$DW$152, DW_AT_name("addr")
    1196                            .dwattr $C$DW$152, DW_AT_TI_symbol_name("addr")
    1197                            .dwattr $C$DW$152, DW_AT_type(*$C$DW$T$355)
    1198                            .dwattr $C$DW$152, DW_AT_location[DW_OP_reg2]
    1199                    
    1200                    $C$DW$153       .dwtag  DW_TAG_formal_parameter
    1201                            .dwattr $C$DW$153, DW_AT_name("addrlen")
    1202                            .dwattr $C$DW$153, DW_AT_TI_symbol_name("addrlen")
    1203                            .dwattr $C$DW$153, DW_AT_type(*$C$DW$T$357)
    1204                            .dwattr $C$DW$153, DW_AT_location[DW_OP_reg3]
    1205                    
    1206                    $C$DW$154       .dwtag  DW_TAG_formal_parameter
    1207                            .dwattr $C$DW$154, DW_AT_name("flags")
    1208                            .dwattr $C$DW$154, DW_AT_TI_symbol_name("flags")
    1209                            .dwattr $C$DW$154, DW_AT_type(*$C$DW$T$10)
    1210                            .dwattr $C$DW$154, DW_AT_location[DW_OP_breg13 24]
TI ARM Assembler Unix v20.2.1 Wed Sep 16 12:09:21 2020

Copyright (c) 1996-2018 Texas Instruments Incorporated
slnetifwifi.asm                                                      PAGE   23

    1211                    
    1212                    $C$DW$155       .dwtag  DW_TAG_formal_parameter
    1213                            .dwattr $C$DW$155, DW_AT_name("acceptedSdContext")
    1214                            .dwattr $C$DW$155, DW_AT_TI_symbol_name("acceptedSdContext")
    1215                            .dwattr $C$DW$155, DW_AT_type(*$C$DW$T$347)
    1216                            .dwattr $C$DW$155, DW_AT_location[DW_OP_breg13 28]
    1217                    
    1218                    ;----------------------------------------------------------------------
    1219                    ; 186 | int16_t SlNetIfWifi_accept(int16_t sd, void *sdContext, SlNetSock_Addr_
    1220                    ;     | t *addr, SlNetSocklen_t *addrlen, uint8_t flags, void **acceptedSdConte
    1221                    ;     | xt)                                                                    
    1222                    ;----------------------------------------------------------------------
    1223                    
    1224                    ;*****************************************************************************
    1225                    ;* FUNCTION NAME: SlNetIfWifi_accept                                         *
    1226                    ;*                                                                           *
    1227                    ;*   Regs Modified     : A1,A2,A3,A4,V9,SP,LR,SR                             *
    1228                    ;*   Regs Used         : A1,A2,A3,A4,V9,SP,LR,SR                             *
    1229                    ;*   Local Frame Size  : 0 Args + 16 Auto + 4 Save = 20 byte                 *
    1230                    ;*****************************************************************************
    1231 00000000           SlNetIfWifi_accept:
    1232                    ;* --------------------------------------------------------------------------*
    1233                            .dwcfi  cfa_offset, 0
    1234 00000000 B500              PUSH      {LR}                  ; [DPU_V7M3_PIPE]  ; [ORIG 16-BIT INS]
    1235                            .dwcfi  cfa_offset, 4
    1236                            .dwcfi  save_reg_to_mem, 14, -4
    1237 00000002 0D14F1AD          SUB       SP, SP, #20           ; [DPU_V7M3_PIPE]  ; [KEEP 32-BIT INS]
    1238                            .dwcfi  cfa_offset, 24
    1239                    $C$DW$156       .dwtag  DW_TAG_variable
    1240                            .dwattr $C$DW$156, DW_AT_name("sdContext")
    1241                            .dwattr $C$DW$156, DW_AT_TI_symbol_name("sdContext")
    1242                            .dwattr $C$DW$156, DW_AT_type(*$C$DW$T$3)
    1243                            .dwattr $C$DW$156, DW_AT_location[DW_OP_breg13 0]
    1244                    
    1245                    $C$DW$157       .dwtag  DW_TAG_variable
    1246                            .dwattr $C$DW$157, DW_AT_name("addr")
    1247                            .dwattr $C$DW$157, DW_AT_TI_symbol_name("addr")
    1248                            .dwattr $C$DW$157, DW_AT_type(*$C$DW$T$355)
    1249                            .dwattr $C$DW$157, DW_AT_location[DW_OP_breg13 4]
    1250                    
    1251                    $C$DW$158       .dwtag  DW_TAG_variable
    1252                            .dwattr $C$DW$158, DW_AT_name("addrlen")
    1253                            .dwattr $C$DW$158, DW_AT_TI_symbol_name("addrlen")
    1254                            .dwattr $C$DW$158, DW_AT_type(*$C$DW$T$357)
    1255                            .dwattr $C$DW$158, DW_AT_location[DW_OP_breg13 8]
    1256                    
    1257                    $C$DW$159       .dwtag  DW_TAG_variable
    1258                            .dwattr $C$DW$159, DW_AT_name("sd")
    1259                            .dwattr $C$DW$159, DW_AT_TI_symbol_name("sd")
    1260                            .dwattr $C$DW$159, DW_AT_type(*$C$DW$T$344)
    1261                            .dwattr $C$DW$159, DW_AT_location[DW_OP_breg13 12]
    1262                    
    1263 00000006 9302              STR       A4, [SP, #8]          ; [DPU_V7M3_PIPE] |187|  ; [ORIG 16-BIT INS]
    1264 00000008 9201              STR       A3, [SP, #4]          ; [DPU_V7M3_PIPE] |187|  ; [ORIG 16-BIT INS]
    1265 0000000a 9100              STR       A2, [SP, #0]          ; [DPU_V7M3_PIPE] |187|  ; [ORIG 16-BIT INS]
TI ARM Assembler Unix v20.2.1 Wed Sep 16 12:09:21 2020

Copyright (c) 1996-2018 Texas Instruments Incorporated
slnetifwifi.asm                                                      PAGE   24

    1266 0000000c 000CF8AD          STRH      A1, [SP, #12]         ; [DPU_V7M3_PIPE] |187|  ; [KEEP 32-BIT INS]
    1267                            .dwpsn  file "/vagrant/Q3_SDK_01/sdk_root/source/ti/drivers/net/wifi/slnetif/slnetifwifi.c",li
    1268                    ;----------------------------------------------------------------------
    1269                    ; 188 | return sl_Accept(sd, (SlSockAddr_t *)addr, addrlen);                   
    1270                    ;----------------------------------------------------------------------
    1271 00000010 000CF9BD          LDRSH     A1, [SP, #12]         ; [DPU_V7M3_PIPE] |188|  ; [KEEP 32-BIT INS]
    1272 00000014 9901              LDR       A2, [SP, #4]          ; [DPU_V7M3_PIPE] |188|  ; [ORIG 16-BIT INS]
    1273 00000016 9A02              LDR       A3, [SP, #8]          ; [DPU_V7M3_PIPE] |188|  ; [ORIG 16-BIT INS]
    1274                    $C$DW$160       .dwtag  DW_TAG_TI_branch
    1275                            .dwattr $C$DW$160, DW_AT_low_pc(0x00)
    1276                            .dwattr $C$DW$160, DW_AT_name("sl_Accept")
    1277                            .dwattr $C$DW$160, DW_AT_TI_call
    1278                    
    1279 00000018 FFFEF7FF!         BL        sl_Accept             ; [DPU_V7M3_PIPE] |188|  ; [KEEP 32-BIT INS]
    1280                            ; CALL OCCURS {sl_Accept }       ; [] |188| 
    1281                            .dwpsn  file "/vagrant/Q3_SDK_01/sdk_root/source/ti/drivers/net/wifi/slnetif/slnetifwifi.c",li
    1282 0000001c B005              ADD       SP, SP, #20           ; [DPU_V7M3_PIPE]  ; [ORIG 16-BIT INS]
    1283                            .dwcfi  cfa_offset, 4
    1284                    $C$DW$161       .dwtag  DW_TAG_TI_branch
    1285                            .dwattr $C$DW$161, DW_AT_low_pc(0x00)
    1286                            .dwattr $C$DW$161, DW_AT_TI_return
    1287                    
    1288 0000001e BD00              POP       {PC}                  ; [DPU_V7M3_PIPE]  ; [ORIG 16-BIT INS]
    1289                            .dwcfi  cfa_offset, 0
    1290                            ; BRANCH OCCURS                  ; [] 
    1291                            .dwattr $C$DW$149, DW_AT_TI_end_file("/vagrant/Q3_SDK_01/sdk_root/source/ti/drivers/net/wifi/s
    1292                            .dwattr $C$DW$149, DW_AT_TI_end_line(0xbd)
    1293                            .dwattr $C$DW$149, DW_AT_TI_end_column(0x01)
    1294                            .dwendentry
    1295                            .dwendtag $C$DW$149
    1296                    
    1297 00000000                   .sect   ".text:SlNetIfWifi_bind"
    1298                            .clink
    1299                            .thumbfunc SlNetIfWifi_bind
    1300 00000000                   .thumb
    1301                            .global SlNetIfWifi_bind
    1302                    
    1303                    $C$DW$162       .dwtag  DW_TAG_subprogram
    1304                            .dwattr $C$DW$162, DW_AT_name("SlNetIfWifi_bind")
    1305                            .dwattr $C$DW$162, DW_AT_low_pc(SlNetIfWifi_bind)
    1306                            .dwattr $C$DW$162, DW_AT_high_pc(0x00)
    1307                            .dwattr $C$DW$162, DW_AT_TI_symbol_name("SlNetIfWifi_bind")
    1308                            .dwattr $C$DW$162, DW_AT_external
    1309                            .dwattr $C$DW$162, DW_AT_type(*$C$DW$T$340)
    1310                            .dwattr $C$DW$162, DW_AT_TI_begin_file("/vagrant/Q3_SDK_01/sdk_root/source/ti/drivers/net/wifi
    1311                            .dwattr $C$DW$162, DW_AT_TI_begin_line(0xc5)
    1312                            .dwattr $C$DW$162, DW_AT_TI_begin_column(0x09)
    1313                            .dwattr $C$DW$162, DW_AT_decl_file("/vagrant/Q3_SDK_01/sdk_root/source/ti/drivers/net/wifi/sln
    1314                            .dwattr $C$DW$162, DW_AT_decl_line(0xc5)
    1315                            .dwattr $C$DW$162, DW_AT_decl_column(0x09)
    1316                            .dwattr $C$DW$162, DW_AT_TI_max_frame_size(0x10)
    1317                            .dwpsn  file "/vagrant/Q3_SDK_01/sdk_root/source/ti/drivers/net/wifi/slnetif/slnetifwifi.c",li
    1318                    
    1319                            .dwfde $C$DW$CIE, SlNetIfWifi_bind
    1320                    $C$DW$163       .dwtag  DW_TAG_formal_parameter
TI ARM Assembler Unix v20.2.1 Wed Sep 16 12:09:21 2020

Copyright (c) 1996-2018 Texas Instruments Incorporated
slnetifwifi.asm                                                      PAGE   25

    1321                            .dwattr $C$DW$163, DW_AT_name("sd")
    1322                            .dwattr $C$DW$163, DW_AT_TI_symbol_name("sd")
    1323                            .dwattr $C$DW$163, DW_AT_type(*$C$DW$T$10)
    1324                            .dwattr $C$DW$163, DW_AT_location[DW_OP_reg0]
    1325                    
    1326                    $C$DW$164       .dwtag  DW_TAG_formal_parameter
    1327                            .dwattr $C$DW$164, DW_AT_name("sdContext")
    1328                            .dwattr $C$DW$164, DW_AT_TI_symbol_name("sdContext")
    1329                            .dwattr $C$DW$164, DW_AT_type(*$C$DW$T$3)
    1330                            .dwattr $C$DW$164, DW_AT_location[DW_OP_reg1]
    1331                    
    1332                    $C$DW$165       .dwtag  DW_TAG_formal_parameter
    1333                            .dwattr $C$DW$165, DW_AT_name("addr")
    1334                            .dwattr $C$DW$165, DW_AT_TI_symbol_name("addr")
    1335                            .dwattr $C$DW$165, DW_AT_type(*$C$DW$T$361)
    1336                            .dwattr $C$DW$165, DW_AT_location[DW_OP_reg2]
    1337                    
    1338                    $C$DW$166       .dwtag  DW_TAG_formal_parameter
    1339                            .dwattr $C$DW$166, DW_AT_name("addrlen")
    1340                            .dwattr $C$DW$166, DW_AT_TI_symbol_name("addrlen")
    1341                            .dwattr $C$DW$166, DW_AT_type(*$C$DW$T$10)
    1342                            .dwattr $C$DW$166, DW_AT_location[DW_OP_reg3]
    1343                    
    1344                    ;----------------------------------------------------------------------
    1345                    ; 197 | int32_t SlNetIfWifi_bind(int16_t sd, void *sdContext, const SlNetSock_A
    1346                    ;     | ddr_t *addr, int16_t addrlen)                                          
    1347                    ;----------------------------------------------------------------------
    1348                    
    1349                    ;*****************************************************************************
    1350                    ;* FUNCTION NAME: SlNetIfWifi_bind                                           *
    1351                    ;*                                                                           *
    1352                    ;*   Regs Modified     : A1,A2,A3,A4,V9,SP,LR,SR                             *
    1353                    ;*   Regs Used         : A1,A2,A3,A4,V9,SP,LR,SR                             *
    1354                    ;*   Local Frame Size  : 0 Args + 12 Auto + 4 Save = 16 byte                 *
    1355                    ;*****************************************************************************
    1356 00000000           SlNetIfWifi_bind:
    1357                    ;* --------------------------------------------------------------------------*
    1358                            .dwcfi  cfa_offset, 0
    1359 00000000 B50E              PUSH      {A2, A3, A4, LR}      ; [DPU_V7M3_PIPE]  ; [ORIG 16-BIT INS]
    1360                            .dwcfi  cfa_offset, 16
    1361                            .dwcfi  save_reg_to_mem, 14, -4
    1362                            .dwcfi  save_reg_to_mem, 3, -8
    1363                            .dwcfi  save_reg_to_mem, 2, -12
    1364                            .dwcfi  save_reg_to_mem, 1, -16
    1365                    $C$DW$167       .dwtag  DW_TAG_variable
    1366                            .dwattr $C$DW$167, DW_AT_name("sdContext")
    1367                            .dwattr $C$DW$167, DW_AT_TI_symbol_name("sdContext")
    1368                            .dwattr $C$DW$167, DW_AT_type(*$C$DW$T$3)
    1369                            .dwattr $C$DW$167, DW_AT_location[DW_OP_breg13 0]
    1370                    
    1371                    $C$DW$168       .dwtag  DW_TAG_variable
    1372                            .dwattr $C$DW$168, DW_AT_name("addr")
    1373                            .dwattr $C$DW$168, DW_AT_TI_symbol_name("addr")
    1374                            .dwattr $C$DW$168, DW_AT_type(*$C$DW$T$361)
    1375                            .dwattr $C$DW$168, DW_AT_location[DW_OP_breg13 4]
TI ARM Assembler Unix v20.2.1 Wed Sep 16 12:09:21 2020

Copyright (c) 1996-2018 Texas Instruments Incorporated
slnetifwifi.asm                                                      PAGE   26

    1376                    
    1377                    $C$DW$169       .dwtag  DW_TAG_variable
    1378                            .dwattr $C$DW$169, DW_AT_name("sd")
    1379                            .dwattr $C$DW$169, DW_AT_TI_symbol_name("sd")
    1380                            .dwattr $C$DW$169, DW_AT_type(*$C$DW$T$344)
    1381                            .dwattr $C$DW$169, DW_AT_location[DW_OP_breg13 8]
    1382                    
    1383                    $C$DW$170       .dwtag  DW_TAG_variable
    1384                            .dwattr $C$DW$170, DW_AT_name("addrlen")
    1385                            .dwattr $C$DW$170, DW_AT_TI_symbol_name("addrlen")
    1386                            .dwattr $C$DW$170, DW_AT_type(*$C$DW$T$344)
    1387                            .dwattr $C$DW$170, DW_AT_location[DW_OP_breg13 10]
    1388                    
    1389 00000002 300AF8AD          STRH      A4, [SP, #10]         ; [DPU_V7M3_PIPE] |198|  ; [KEEP 32-BIT INS]
    1390 00000006 9201              STR       A3, [SP, #4]          ; [DPU_V7M3_PIPE] |198|  ; [ORIG 16-BIT INS]
    1391 00000008 9100              STR       A2, [SP, #0]          ; [DPU_V7M3_PIPE] |198|  ; [ORIG 16-BIT INS]
    1392 0000000a 0008F8AD          STRH      A1, [SP, #8]          ; [DPU_V7M3_PIPE] |198|  ; [KEEP 32-BIT INS]
    1393                            .dwpsn  file "/vagrant/Q3_SDK_01/sdk_root/source/ti/drivers/net/wifi/slnetif/slnetifwifi.c",li
    1394                    ;----------------------------------------------------------------------
    1395                    ; 199 | return sl_Bind(sd, (const SlSockAddr_t *)addr, addrlen);               
    1396                    ;----------------------------------------------------------------------
    1397 0000000e 0008F9BD          LDRSH     A1, [SP, #8]          ; [DPU_V7M3_PIPE] |199|  ; [KEEP 32-BIT INS]
    1398 00000012 200AF9BD          LDRSH     A3, [SP, #10]         ; [DPU_V7M3_PIPE] |199|  ; [KEEP 32-BIT INS]
    1399 00000016 9901              LDR       A2, [SP, #4]          ; [DPU_V7M3_PIPE] |199|  ; [ORIG 16-BIT INS]
    1400                    $C$DW$171       .dwtag  DW_TAG_TI_branch
    1401                            .dwattr $C$DW$171, DW_AT_low_pc(0x00)
    1402                            .dwattr $C$DW$171, DW_AT_name("sl_Bind")
    1403                            .dwattr $C$DW$171, DW_AT_TI_call
    1404                    
    1405 00000018 FFFEF7FF!         BL        sl_Bind               ; [DPU_V7M3_PIPE] |199|  ; [KEEP 32-BIT INS]
    1406                            ; CALL OCCURS {sl_Bind }         ; [] |199| 
    1407                            .dwpsn  file "/vagrant/Q3_SDK_01/sdk_root/source/ti/drivers/net/wifi/slnetif/slnetifwifi.c",li
    1408                    $C$DW$172       .dwtag  DW_TAG_TI_branch
    1409                            .dwattr $C$DW$172, DW_AT_low_pc(0x00)
    1410                            .dwattr $C$DW$172, DW_AT_TI_return
    1411                    
    1412 0000001c BD0E              POP       {A2, A3, A4, PC}      ; [DPU_V7M3_PIPE]  ; [ORIG 16-BIT INS]
    1413                            .dwcfi  cfa_offset, 0
    1414                            .dwcfi  restore_reg, 3
    1415                            .dwcfi  restore_reg, 2
    1416                            .dwcfi  restore_reg, 1
    1417                            ; BRANCH OCCURS                  ; [] 
    1418                            .dwattr $C$DW$162, DW_AT_TI_end_file("/vagrant/Q3_SDK_01/sdk_root/source/ti/drivers/net/wifi/s
    1419                            .dwattr $C$DW$162, DW_AT_TI_end_line(0xc8)
    1420                            .dwattr $C$DW$162, DW_AT_TI_end_column(0x01)
    1421                            .dwendentry
    1422                            .dwendtag $C$DW$162
    1423                    
    1424 00000000                   .sect   ".text:SlNetIfWifi_listen"
    1425                            .clink
    1426                            .thumbfunc SlNetIfWifi_listen
    1427 00000000                   .thumb
    1428                            .global SlNetIfWifi_listen
    1429                    
    1430                    $C$DW$173       .dwtag  DW_TAG_subprogram
TI ARM Assembler Unix v20.2.1 Wed Sep 16 12:09:21 2020

Copyright (c) 1996-2018 Texas Instruments Incorporated
slnetifwifi.asm                                                      PAGE   27

    1431                            .dwattr $C$DW$173, DW_AT_name("SlNetIfWifi_listen")
    1432                            .dwattr $C$DW$173, DW_AT_low_pc(SlNetIfWifi_listen)
    1433                            .dwattr $C$DW$173, DW_AT_high_pc(0x00)
    1434                            .dwattr $C$DW$173, DW_AT_TI_symbol_name("SlNetIfWifi_listen")
    1435                            .dwattr $C$DW$173, DW_AT_external
    1436                            .dwattr $C$DW$173, DW_AT_type(*$C$DW$T$340)
    1437                            .dwattr $C$DW$173, DW_AT_TI_begin_file("/vagrant/Q3_SDK_01/sdk_root/source/ti/drivers/net/wifi
    1438                            .dwattr $C$DW$173, DW_AT_TI_begin_line(0xd0)
    1439                            .dwattr $C$DW$173, DW_AT_TI_begin_column(0x09)
    1440                            .dwattr $C$DW$173, DW_AT_decl_file("/vagrant/Q3_SDK_01/sdk_root/source/ti/drivers/net/wifi/sln
    1441                            .dwattr $C$DW$173, DW_AT_decl_line(0xd0)
    1442                            .dwattr $C$DW$173, DW_AT_decl_column(0x09)
    1443                            .dwattr $C$DW$173, DW_AT_TI_max_frame_size(0x10)
    1444                            .dwpsn  file "/vagrant/Q3_SDK_01/sdk_root/source/ti/drivers/net/wifi/slnetif/slnetifwifi.c",li
    1445                    
    1446                            .dwfde $C$DW$CIE, SlNetIfWifi_listen
    1447                    $C$DW$174       .dwtag  DW_TAG_formal_parameter
    1448                            .dwattr $C$DW$174, DW_AT_name("sd")
    1449                            .dwattr $C$DW$174, DW_AT_TI_symbol_name("sd")
    1450                            .dwattr $C$DW$174, DW_AT_type(*$C$DW$T$10)
    1451                            .dwattr $C$DW$174, DW_AT_location[DW_OP_reg0]
    1452                    
    1453                    $C$DW$175       .dwtag  DW_TAG_formal_parameter
    1454                            .dwattr $C$DW$175, DW_AT_name("sdContext")
    1455                            .dwattr $C$DW$175, DW_AT_TI_symbol_name("sdContext")
    1456                            .dwattr $C$DW$175, DW_AT_type(*$C$DW$T$3)
    1457                            .dwattr $C$DW$175, DW_AT_location[DW_OP_reg1]
    1458                    
    1459                    $C$DW$176       .dwtag  DW_TAG_formal_parameter
    1460                            .dwattr $C$DW$176, DW_AT_name("backlog")
    1461                            .dwattr $C$DW$176, DW_AT_TI_symbol_name("backlog")
    1462                            .dwattr $C$DW$176, DW_AT_type(*$C$DW$T$10)
    1463                            .dwattr $C$DW$176, DW_AT_location[DW_OP_reg2]
    1464                    
    1465                    ;----------------------------------------------------------------------
    1466                    ; 208 | int32_t SlNetIfWifi_listen(int16_t sd, void *sdContext, int16_t backlog
    1467                    ;     | )                                                                      
    1468                    ;----------------------------------------------------------------------
    1469                    
    1470                    ;*****************************************************************************
    1471                    ;* FUNCTION NAME: SlNetIfWifi_listen                                         *
    1472                    ;*                                                                           *
    1473                    ;*   Regs Modified     : A1,A2,A3,A4,V9,SP,LR,SR                             *
    1474                    ;*   Regs Used         : A1,A2,A3,A4,V9,SP,LR,SR                             *
    1475                    ;*   Local Frame Size  : 0 Args + 8 Auto + 4 Save = 12 byte                  *
    1476                    ;*****************************************************************************
    1477 00000000           SlNetIfWifi_listen:
    1478                    ;* --------------------------------------------------------------------------*
    1479                            .dwcfi  cfa_offset, 0
    1480 00000000 B50E              PUSH      {A2, A3, A4, LR}      ; [DPU_V7M3_PIPE]  ; [ORIG 16-BIT INS]
    1481                            .dwcfi  cfa_offset, 16
    1482                            .dwcfi  save_reg_to_mem, 14, -4
    1483                            .dwcfi  save_reg_to_mem, 3, -8
    1484                            .dwcfi  save_reg_to_mem, 2, -12
    1485                            .dwcfi  save_reg_to_mem, 1, -16
TI ARM Assembler Unix v20.2.1 Wed Sep 16 12:09:21 2020

Copyright (c) 1996-2018 Texas Instruments Incorporated
slnetifwifi.asm                                                      PAGE   28

    1486                    $C$DW$177       .dwtag  DW_TAG_variable
    1487                            .dwattr $C$DW$177, DW_AT_name("sdContext")
    1488                            .dwattr $C$DW$177, DW_AT_TI_symbol_name("sdContext")
    1489                            .dwattr $C$DW$177, DW_AT_type(*$C$DW$T$3)
    1490                            .dwattr $C$DW$177, DW_AT_location[DW_OP_breg13 0]
    1491                    
    1492                    $C$DW$178       .dwtag  DW_TAG_variable
    1493                            .dwattr $C$DW$178, DW_AT_name("sd")
    1494                            .dwattr $C$DW$178, DW_AT_TI_symbol_name("sd")
    1495                            .dwattr $C$DW$178, DW_AT_type(*$C$DW$T$344)
    1496                            .dwattr $C$DW$178, DW_AT_location[DW_OP_breg13 4]
    1497                    
    1498                    $C$DW$179       .dwtag  DW_TAG_variable
    1499                            .dwattr $C$DW$179, DW_AT_name("backlog")
    1500                            .dwattr $C$DW$179, DW_AT_TI_symbol_name("backlog")
    1501                            .dwattr $C$DW$179, DW_AT_type(*$C$DW$T$344)
    1502                            .dwattr $C$DW$179, DW_AT_location[DW_OP_breg13 6]
    1503                    
    1504 00000002 2006F8AD          STRH      A3, [SP, #6]          ; [DPU_V7M3_PIPE] |209|  ; [KEEP 32-BIT INS]
    1505 00000006 9100              STR       A2, [SP, #0]          ; [DPU_V7M3_PIPE] |209|  ; [ORIG 16-BIT INS]
    1506 00000008 0004F8AD          STRH      A1, [SP, #4]          ; [DPU_V7M3_PIPE] |209|  ; [KEEP 32-BIT INS]
    1507                            .dwpsn  file "/vagrant/Q3_SDK_01/sdk_root/source/ti/drivers/net/wifi/slnetif/slnetifwifi.c",li
    1508                    ;----------------------------------------------------------------------
    1509                    ; 210 | return sl_Listen(sd, backlog);                                         
    1510                    ;----------------------------------------------------------------------
    1511 0000000c 0004F9BD          LDRSH     A1, [SP, #4]          ; [DPU_V7M3_PIPE] |210|  ; [KEEP 32-BIT INS]
    1512 00000010 1006F9BD          LDRSH     A2, [SP, #6]          ; [DPU_V7M3_PIPE] |210|  ; [KEEP 32-BIT INS]
    1513                    $C$DW$180       .dwtag  DW_TAG_TI_branch
    1514                            .dwattr $C$DW$180, DW_AT_low_pc(0x00)
    1515                            .dwattr $C$DW$180, DW_AT_name("sl_Listen")
    1516                            .dwattr $C$DW$180, DW_AT_TI_call
    1517                    
    1518 00000014 FFFEF7FF!         BL        sl_Listen             ; [DPU_V7M3_PIPE] |210|  ; [KEEP 32-BIT INS]
    1519                            ; CALL OCCURS {sl_Listen }       ; [] |210| 
    1520                            .dwpsn  file "/vagrant/Q3_SDK_01/sdk_root/source/ti/drivers/net/wifi/slnetif/slnetifwifi.c",li
    1521                    $C$DW$181       .dwtag  DW_TAG_TI_branch
    1522                            .dwattr $C$DW$181, DW_AT_low_pc(0x00)
    1523                            .dwattr $C$DW$181, DW_AT_TI_return
    1524                    
    1525 00000018 BD0E              POP       {A2, A3, A4, PC}      ; [DPU_V7M3_PIPE]  ; [ORIG 16-BIT INS]
    1526                            .dwcfi  cfa_offset, 0
    1527                            .dwcfi  restore_reg, 3
    1528                            .dwcfi  restore_reg, 2
    1529                            .dwcfi  restore_reg, 1
    1530                            ; BRANCH OCCURS                  ; [] 
    1531                            .dwattr $C$DW$173, DW_AT_TI_end_file("/vagrant/Q3_SDK_01/sdk_root/source/ti/drivers/net/wifi/s
    1532                            .dwattr $C$DW$173, DW_AT_TI_end_line(0xd3)
    1533                            .dwattr $C$DW$173, DW_AT_TI_end_column(0x01)
    1534                            .dwendentry
    1535                            .dwendtag $C$DW$173
    1536                    
    1537 00000000                   .sect   ".text:SlNetIfWifi_connect"
    1538                            .clink
    1539                            .thumbfunc SlNetIfWifi_connect
    1540 00000000                   .thumb
TI ARM Assembler Unix v20.2.1 Wed Sep 16 12:09:21 2020

Copyright (c) 1996-2018 Texas Instruments Incorporated
slnetifwifi.asm                                                      PAGE   29

    1541                            .global SlNetIfWifi_connect
    1542                    
    1543                    $C$DW$182       .dwtag  DW_TAG_subprogram
    1544                            .dwattr $C$DW$182, DW_AT_name("SlNetIfWifi_connect")
    1545                            .dwattr $C$DW$182, DW_AT_low_pc(SlNetIfWifi_connect)
    1546                            .dwattr $C$DW$182, DW_AT_high_pc(0x00)
    1547                            .dwattr $C$DW$182, DW_AT_TI_symbol_name("SlNetIfWifi_connect")
    1548                            .dwattr $C$DW$182, DW_AT_external
    1549                            .dwattr $C$DW$182, DW_AT_type(*$C$DW$T$340)
    1550                            .dwattr $C$DW$182, DW_AT_TI_begin_file("/vagrant/Q3_SDK_01/sdk_root/source/ti/drivers/net/wifi
    1551                            .dwattr $C$DW$182, DW_AT_TI_begin_line(0xdb)
    1552                            .dwattr $C$DW$182, DW_AT_TI_begin_column(0x09)
    1553                            .dwattr $C$DW$182, DW_AT_decl_file("/vagrant/Q3_SDK_01/sdk_root/source/ti/drivers/net/wifi/sln
    1554                            .dwattr $C$DW$182, DW_AT_decl_line(0xdb)
    1555                            .dwattr $C$DW$182, DW_AT_decl_column(0x09)
    1556                            .dwattr $C$DW$182, DW_AT_TI_max_frame_size(0x10)
    1557                            .dwpsn  file "/vagrant/Q3_SDK_01/sdk_root/source/ti/drivers/net/wifi/slnetif/slnetifwifi.c",li
    1558                    
    1559                            .dwfde $C$DW$CIE, SlNetIfWifi_connect
    1560                    $C$DW$183       .dwtag  DW_TAG_formal_parameter
    1561                            .dwattr $C$DW$183, DW_AT_name("sd")
    1562                            .dwattr $C$DW$183, DW_AT_TI_symbol_name("sd")
    1563                            .dwattr $C$DW$183, DW_AT_type(*$C$DW$T$10)
    1564                            .dwattr $C$DW$183, DW_AT_location[DW_OP_reg0]
    1565                    
    1566                    $C$DW$184       .dwtag  DW_TAG_formal_parameter
    1567                            .dwattr $C$DW$184, DW_AT_name("sdContext")
    1568                            .dwattr $C$DW$184, DW_AT_TI_symbol_name("sdContext")
    1569                            .dwattr $C$DW$184, DW_AT_type(*$C$DW$T$3)
    1570                            .dwattr $C$DW$184, DW_AT_location[DW_OP_reg1]
    1571                    
    1572                    $C$DW$185       .dwtag  DW_TAG_formal_parameter
    1573                            .dwattr $C$DW$185, DW_AT_name("addr")
    1574                            .dwattr $C$DW$185, DW_AT_TI_symbol_name("addr")
    1575                            .dwattr $C$DW$185, DW_AT_type(*$C$DW$T$361)
    1576                            .dwattr $C$DW$185, DW_AT_location[DW_OP_reg2]
    1577                    
    1578                    $C$DW$186       .dwtag  DW_TAG_formal_parameter
    1579                            .dwattr $C$DW$186, DW_AT_name("addrlen")
    1580                            .dwattr $C$DW$186, DW_AT_TI_symbol_name("addrlen")
    1581                            .dwattr $C$DW$186, DW_AT_type(*$C$DW$T$10)
    1582                            .dwattr $C$DW$186, DW_AT_location[DW_OP_reg3]
    1583                    
    1584                    $C$DW$187       .dwtag  DW_TAG_formal_parameter
    1585                            .dwattr $C$DW$187, DW_AT_name("flags")
    1586                            .dwattr $C$DW$187, DW_AT_TI_symbol_name("flags")
    1587                            .dwattr $C$DW$187, DW_AT_type(*$C$DW$T$10)
    1588                            .dwattr $C$DW$187, DW_AT_location[DW_OP_breg13 16]
    1589                    
    1590                    ;----------------------------------------------------------------------
    1591                    ; 219 | int32_t SlNetIfWifi_connect(int16_t sd, void *sdContext, const SlNetSoc
    1592                    ;     | k_Addr_t *addr, SlNetSocklen_t addrlen, uint8_t flags)                 
    1593                    ;----------------------------------------------------------------------
    1594                    
    1595                    ;*****************************************************************************
TI ARM Assembler Unix v20.2.1 Wed Sep 16 12:09:21 2020

Copyright (c) 1996-2018 Texas Instruments Incorporated
slnetifwifi.asm                                                      PAGE   30

    1596                    ;* FUNCTION NAME: SlNetIfWifi_connect                                        *
    1597                    ;*                                                                           *
    1598                    ;*   Regs Modified     : A1,A2,A3,A4,V9,SP,LR,SR                             *
    1599                    ;*   Regs Used         : A1,A2,A3,A4,V9,SP,LR,SR                             *
    1600                    ;*   Local Frame Size  : 0 Args + 12 Auto + 4 Save = 16 byte                 *
    1601                    ;*****************************************************************************
    1602 00000000           SlNetIfWifi_connect:
    1603                    ;* --------------------------------------------------------------------------*
    1604                            .dwcfi  cfa_offset, 0
    1605 00000000 B50E              PUSH      {A2, A3, A4, LR}      ; [DPU_V7M3_PIPE]  ; [ORIG 16-BIT INS]
    1606                            .dwcfi  cfa_offset, 16
    1607                            .dwcfi  save_reg_to_mem, 14, -4
    1608                            .dwcfi  save_reg_to_mem, 3, -8
    1609                            .dwcfi  save_reg_to_mem, 2, -12
    1610                            .dwcfi  save_reg_to_mem, 1, -16
    1611                    $C$DW$188       .dwtag  DW_TAG_variable
    1612                            .dwattr $C$DW$188, DW_AT_name("sdContext")
    1613                            .dwattr $C$DW$188, DW_AT_TI_symbol_name("sdContext")
    1614                            .dwattr $C$DW$188, DW_AT_type(*$C$DW$T$3)
    1615                            .dwattr $C$DW$188, DW_AT_location[DW_OP_breg13 0]
    1616                    
    1617                    $C$DW$189       .dwtag  DW_TAG_variable
    1618                            .dwattr $C$DW$189, DW_AT_name("addr")
    1619                            .dwattr $C$DW$189, DW_AT_TI_symbol_name("addr")
    1620                            .dwattr $C$DW$189, DW_AT_type(*$C$DW$T$361)
    1621                            .dwattr $C$DW$189, DW_AT_location[DW_OP_breg13 4]
    1622                    
    1623                    $C$DW$190       .dwtag  DW_TAG_variable
    1624                            .dwattr $C$DW$190, DW_AT_name("sd")
    1625                            .dwattr $C$DW$190, DW_AT_TI_symbol_name("sd")
    1626                            .dwattr $C$DW$190, DW_AT_type(*$C$DW$T$344)
    1627                            .dwattr $C$DW$190, DW_AT_location[DW_OP_breg13 8]
    1628                    
    1629                    $C$DW$191       .dwtag  DW_TAG_variable
    1630                            .dwattr $C$DW$191, DW_AT_name("addrlen")
    1631                            .dwattr $C$DW$191, DW_AT_TI_symbol_name("addrlen")
    1632                            .dwattr $C$DW$191, DW_AT_type(*$C$DW$T$356)
    1633                            .dwattr $C$DW$191, DW_AT_location[DW_OP_breg13 10]
    1634                    
    1635 00000002 300AF8AD          STRH      A4, [SP, #10]         ; [DPU_V7M3_PIPE] |220|  ; [KEEP 32-BIT INS]
    1636 00000006 9201              STR       A3, [SP, #4]          ; [DPU_V7M3_PIPE] |220|  ; [ORIG 16-BIT INS]
    1637 00000008 9100              STR       A2, [SP, #0]          ; [DPU_V7M3_PIPE] |220|  ; [ORIG 16-BIT INS]
    1638 0000000a 0008F8AD          STRH      A1, [SP, #8]          ; [DPU_V7M3_PIPE] |220|  ; [KEEP 32-BIT INS]
    1639                            .dwpsn  file "/vagrant/Q3_SDK_01/sdk_root/source/ti/drivers/net/wifi/slnetif/slnetifwifi.c",li
    1640                    ;----------------------------------------------------------------------
    1641                    ; 221 | return sl_Connect(sd, (const SlSockAddr_t *)addr, addrlen);            
    1642                    ;----------------------------------------------------------------------
    1643 0000000e 0008F9BD          LDRSH     A1, [SP, #8]          ; [DPU_V7M3_PIPE] |221|  ; [KEEP 32-BIT INS]
    1644 00000012 200AF9BD          LDRSH     A3, [SP, #10]         ; [DPU_V7M3_PIPE] |221|  ; [KEEP 32-BIT INS]
    1645 00000016 9901              LDR       A2, [SP, #4]          ; [DPU_V7M3_PIPE] |221|  ; [ORIG 16-BIT INS]
    1646                    $C$DW$192       .dwtag  DW_TAG_TI_branch
    1647                            .dwattr $C$DW$192, DW_AT_low_pc(0x00)
    1648                            .dwattr $C$DW$192, DW_AT_name("sl_Connect")
    1649                            .dwattr $C$DW$192, DW_AT_TI_call
    1650                    
TI ARM Assembler Unix v20.2.1 Wed Sep 16 12:09:21 2020

Copyright (c) 1996-2018 Texas Instruments Incorporated
slnetifwifi.asm                                                      PAGE   31

    1651 00000018 FFFEF7FF!         BL        sl_Connect            ; [DPU_V7M3_PIPE] |221|  ; [KEEP 32-BIT INS]
    1652                            ; CALL OCCURS {sl_Connect }      ; [] |221| 
    1653                            .dwpsn  file "/vagrant/Q3_SDK_01/sdk_root/source/ti/drivers/net/wifi/slnetif/slnetifwifi.c",li
    1654                    $C$DW$193       .dwtag  DW_TAG_TI_branch
    1655                            .dwattr $C$DW$193, DW_AT_low_pc(0x00)
    1656                            .dwattr $C$DW$193, DW_AT_TI_return
    1657                    
    1658 0000001c BD0E              POP       {A2, A3, A4, PC}      ; [DPU_V7M3_PIPE]  ; [ORIG 16-BIT INS]
    1659                            .dwcfi  cfa_offset, 0
    1660                            .dwcfi  restore_reg, 3
    1661                            .dwcfi  restore_reg, 2
    1662                            .dwcfi  restore_reg, 1
    1663                            ; BRANCH OCCURS                  ; [] 
    1664                            .dwattr $C$DW$182, DW_AT_TI_end_file("/vagrant/Q3_SDK_01/sdk_root/source/ti/drivers/net/wifi/s
    1665                            .dwattr $C$DW$182, DW_AT_TI_end_line(0xde)
    1666                            .dwattr $C$DW$182, DW_AT_TI_end_column(0x01)
    1667                            .dwendentry
    1668                            .dwendtag $C$DW$182
    1669                    
    1670 00000000                   .sect   ".text:SlNetIfWifi_getSockName"
    1671                            .clink
    1672                            .thumbfunc SlNetIfWifi_getSockName
    1673 00000000                   .thumb
    1674                            .global SlNetIfWifi_getSockName
    1675                    
    1676                    $C$DW$194       .dwtag  DW_TAG_subprogram
    1677                            .dwattr $C$DW$194, DW_AT_name("SlNetIfWifi_getSockName")
    1678                            .dwattr $C$DW$194, DW_AT_low_pc(SlNetIfWifi_getSockName)
    1679                            .dwattr $C$DW$194, DW_AT_high_pc(0x00)
    1680                            .dwattr $C$DW$194, DW_AT_TI_symbol_name("SlNetIfWifi_getSockName")
    1681                            .dwattr $C$DW$194, DW_AT_external
    1682                            .dwattr $C$DW$194, DW_AT_type(*$C$DW$T$340)
    1683                            .dwattr $C$DW$194, DW_AT_TI_begin_file("/vagrant/Q3_SDK_01/sdk_root/source/ti/drivers/net/wifi
    1684                            .dwattr $C$DW$194, DW_AT_TI_begin_line(0xe7)
    1685                            .dwattr $C$DW$194, DW_AT_TI_begin_column(0x09)
    1686                            .dwattr $C$DW$194, DW_AT_decl_file("/vagrant/Q3_SDK_01/sdk_root/source/ti/drivers/net/wifi/sln
    1687                            .dwattr $C$DW$194, DW_AT_decl_line(0xe7)
    1688                            .dwattr $C$DW$194, DW_AT_decl_column(0x09)
    1689                            .dwattr $C$DW$194, DW_AT_TI_max_frame_size(0x10)
    1690                            .dwpsn  file "/vagrant/Q3_SDK_01/sdk_root/source/ti/drivers/net/wifi/slnetif/slnetifwifi.c",li
    1691                    
    1692                            .dwfde $C$DW$CIE, SlNetIfWifi_getSockName
    1693                    $C$DW$195       .dwtag  DW_TAG_formal_parameter
    1694                            .dwattr $C$DW$195, DW_AT_name("sd")
    1695                            .dwattr $C$DW$195, DW_AT_TI_symbol_name("sd")
    1696                            .dwattr $C$DW$195, DW_AT_type(*$C$DW$T$10)
    1697                            .dwattr $C$DW$195, DW_AT_location[DW_OP_reg0]
    1698                    
    1699                    $C$DW$196       .dwtag  DW_TAG_formal_parameter
    1700                            .dwattr $C$DW$196, DW_AT_name("sdContext")
    1701                            .dwattr $C$DW$196, DW_AT_TI_symbol_name("sdContext")
    1702                            .dwattr $C$DW$196, DW_AT_type(*$C$DW$T$3)
    1703                            .dwattr $C$DW$196, DW_AT_location[DW_OP_reg1]
    1704                    
    1705                    $C$DW$197       .dwtag  DW_TAG_formal_parameter
TI ARM Assembler Unix v20.2.1 Wed Sep 16 12:09:21 2020

Copyright (c) 1996-2018 Texas Instruments Incorporated
slnetifwifi.asm                                                      PAGE   32

    1706                            .dwattr $C$DW$197, DW_AT_name("addr")
    1707                            .dwattr $C$DW$197, DW_AT_TI_symbol_name("addr")
    1708                            .dwattr $C$DW$197, DW_AT_type(*$C$DW$T$355)
    1709                            .dwattr $C$DW$197, DW_AT_location[DW_OP_reg2]
    1710                    
    1711                    $C$DW$198       .dwtag  DW_TAG_formal_parameter
    1712                            .dwattr $C$DW$198, DW_AT_name("addrlen")
    1713                            .dwattr $C$DW$198, DW_AT_TI_symbol_name("addrlen")
    1714                            .dwattr $C$DW$198, DW_AT_type(*$C$DW$T$357)
    1715                            .dwattr $C$DW$198, DW_AT_location[DW_OP_reg3]
    1716                    
    1717                    ;----------------------------------------------------------------------
    1718                    ; 231 | int32_t SlNetIfWifi_getSockName(int16_t sd, void *sdContext, SlNetSock_
    1719                    ;     | Addr_t *addr, SlNetSocklen_t *addrlen)                                 
    1720                    ;----------------------------------------------------------------------
    1721                    
    1722                    ;*****************************************************************************
    1723                    ;* FUNCTION NAME: SlNetIfWifi_getSockName                                    *
    1724                    ;*                                                                           *
    1725                    ;*   Regs Modified     : A1,SP                                               *
    1726                    ;*   Regs Used         : A1,A2,A3,A4,SP,LR                                   *
    1727                    ;*   Local Frame Size  : 0 Args + 16 Auto + 0 Save = 16 byte                 *
    1728                    ;*****************************************************************************
    1729 00000000           SlNetIfWifi_getSockName:
    1730                    ;* --------------------------------------------------------------------------*
    1731                            .dwcfi  cfa_offset, 0
    1732 00000000 0D10F1AD          SUB       SP, SP, #16           ; [DPU_V7M3_PIPE]  ; [KEEP 32-BIT INS]
    1733                            .dwcfi  cfa_offset, 16
    1734                    $C$DW$199       .dwtag  DW_TAG_variable
    1735                            .dwattr $C$DW$199, DW_AT_name("sdContext")
    1736                            .dwattr $C$DW$199, DW_AT_TI_symbol_name("sdContext")
    1737                            .dwattr $C$DW$199, DW_AT_type(*$C$DW$T$3)
    1738                            .dwattr $C$DW$199, DW_AT_location[DW_OP_breg13 0]
    1739                    
    1740                    $C$DW$200       .dwtag  DW_TAG_variable
    1741                            .dwattr $C$DW$200, DW_AT_name("addr")
    1742                            .dwattr $C$DW$200, DW_AT_TI_symbol_name("addr")
    1743                            .dwattr $C$DW$200, DW_AT_type(*$C$DW$T$355)
    1744                            .dwattr $C$DW$200, DW_AT_location[DW_OP_breg13 4]
    1745                    
    1746                    $C$DW$201       .dwtag  DW_TAG_variable
    1747                            .dwattr $C$DW$201, DW_AT_name("addrlen")
    1748                            .dwattr $C$DW$201, DW_AT_TI_symbol_name("addrlen")
    1749                            .dwattr $C$DW$201, DW_AT_type(*$C$DW$T$357)
    1750                            .dwattr $C$DW$201, DW_AT_location[DW_OP_breg13 8]
    1751                    
    1752                    $C$DW$202       .dwtag  DW_TAG_variable
    1753                            .dwattr $C$DW$202, DW_AT_name("sd")
    1754                            .dwattr $C$DW$202, DW_AT_TI_symbol_name("sd")
    1755                            .dwattr $C$DW$202, DW_AT_type(*$C$DW$T$344)
    1756                            .dwattr $C$DW$202, DW_AT_location[DW_OP_breg13 12]
    1757                    
    1758                    ;----------------------------------------------------------------------
    1759                    ; 233 | // Not implemented in NWP                                              
    1760                    ;----------------------------------------------------------------------
TI ARM Assembler Unix v20.2.1 Wed Sep 16 12:09:21 2020

Copyright (c) 1996-2018 Texas Instruments Incorporated
slnetifwifi.asm                                                      PAGE   33

    1761 00000004 9302              STR       A4, [SP, #8]          ; [DPU_V7M3_PIPE] |232|  ; [ORIG 16-BIT INS]
    1762 00000006 9201              STR       A3, [SP, #4]          ; [DPU_V7M3_PIPE] |232|  ; [ORIG 16-BIT INS]
    1763 00000008 9100              STR       A2, [SP, #0]          ; [DPU_V7M3_PIPE] |232|  ; [ORIG 16-BIT INS]
    1764 0000000a 000CF8AD          STRH      A1, [SP, #12]         ; [DPU_V7M3_PIPE] |232|  ; [KEEP 32-BIT INS]
    1765                            .dwpsn  file "/vagrant/Q3_SDK_01/sdk_root/source/ti/drivers/net/wifi/slnetif/slnetifwifi.c",li
    1766                    ;----------------------------------------------------------------------
    1767                    ; 234 | return SLNETERR_INVALPARAM;                                            
    1768                    ;----------------------------------------------------------------------
    1769 0000000e 4801              LDR       A1, $C$CON2           ; [DPU_V7M3_PIPE] |234|  ; [ORIG 16-BIT INS]
    1770                            .dwpsn  file "/vagrant/Q3_SDK_01/sdk_root/source/ti/drivers/net/wifi/slnetif/slnetifwifi.c",li
    1771 00000010 B004              ADD       SP, SP, #16           ; [DPU_V7M3_PIPE]  ; [ORIG 16-BIT INS]
    1772                            .dwcfi  cfa_offset, 0
    1773                    $C$DW$203       .dwtag  DW_TAG_TI_branch
    1774                            .dwattr $C$DW$203, DW_AT_low_pc(0x00)
    1775                            .dwattr $C$DW$203, DW_AT_TI_return
    1776                    
    1777 00000012 4770              BX        LR                    ; [DPU_V7M3_PIPE]  ; [ORIG 16-BIT INS]
    1778                            ; BRANCH OCCURS                  ; [] 
    1779                            .dwattr $C$DW$194, DW_AT_TI_end_file("/vagrant/Q3_SDK_01/sdk_root/source/ti/drivers/net/wifi/s
    1780                            .dwattr $C$DW$194, DW_AT_TI_end_line(0xeb)
    1781                            .dwattr $C$DW$194, DW_AT_TI_end_column(0x01)
    1782                            .dwendentry
    1783                            .dwendtag $C$DW$194
    1784                    
    1785 00000000                   .sect   ".text:SlNetIfWifi_select"
    1786                            .clink
    1787                            .thumbfunc SlNetIfWifi_select
    1788 00000000                   .thumb
    1789                            .global SlNetIfWifi_select
    1790                    
    1791                    $C$DW$204       .dwtag  DW_TAG_subprogram
    1792                            .dwattr $C$DW$204, DW_AT_name("SlNetIfWifi_select")
    1793                            .dwattr $C$DW$204, DW_AT_low_pc(SlNetIfWifi_select)
    1794                            .dwattr $C$DW$204, DW_AT_high_pc(0x00)
    1795                            .dwattr $C$DW$204, DW_AT_TI_symbol_name("SlNetIfWifi_select")
    1796                            .dwattr $C$DW$204, DW_AT_external
    1797                            .dwattr $C$DW$204, DW_AT_type(*$C$DW$T$340)
    1798                            .dwattr $C$DW$204, DW_AT_TI_begin_file("/vagrant/Q3_SDK_01/sdk_root/source/ti/drivers/net/wifi
    1799                            .dwattr $C$DW$204, DW_AT_TI_begin_line(0xf3)
    1800                            .dwattr $C$DW$204, DW_AT_TI_begin_column(0x09)
    1801                            .dwattr $C$DW$204, DW_AT_decl_file("/vagrant/Q3_SDK_01/sdk_root/source/ti/drivers/net/wifi/sln
    1802                            .dwattr $C$DW$204, DW_AT_decl_line(0xf3)
    1803                            .dwattr $C$DW$204, DW_AT_decl_column(0x09)
    1804                            .dwattr $C$DW$204, DW_AT_TI_max_frame_size(0x28)
    1805                            .dwpsn  file "/vagrant/Q3_SDK_01/sdk_root/source/ti/drivers/net/wifi/slnetif/slnetifwifi.c",li
    1806                    
    1807                            .dwfde $C$DW$CIE, SlNetIfWifi_select
    1808                    $C$DW$205       .dwtag  DW_TAG_formal_parameter
    1809                            .dwattr $C$DW$205, DW_AT_name("ifContext")
    1810                            .dwattr $C$DW$205, DW_AT_TI_symbol_name("ifContext")
    1811                            .dwattr $C$DW$205, DW_AT_type(*$C$DW$T$3)
    1812                            .dwattr $C$DW$205, DW_AT_location[DW_OP_reg0]
    1813                    
    1814                    $C$DW$206       .dwtag  DW_TAG_formal_parameter
    1815                            .dwattr $C$DW$206, DW_AT_name("nfds")
TI ARM Assembler Unix v20.2.1 Wed Sep 16 12:09:21 2020

Copyright (c) 1996-2018 Texas Instruments Incorporated
slnetifwifi.asm                                                      PAGE   34

    1816                            .dwattr $C$DW$206, DW_AT_TI_symbol_name("nfds")
    1817                            .dwattr $C$DW$206, DW_AT_type(*$C$DW$T$10)
    1818                            .dwattr $C$DW$206, DW_AT_location[DW_OP_reg1]
    1819                    
    1820                    $C$DW$207       .dwtag  DW_TAG_formal_parameter
    1821                            .dwattr $C$DW$207, DW_AT_name("readsds")
    1822                            .dwattr $C$DW$207, DW_AT_TI_symbol_name("readsds")
    1823                            .dwattr $C$DW$207, DW_AT_type(*$C$DW$T$369)
    1824                            .dwattr $C$DW$207, DW_AT_location[DW_OP_reg2]
    1825                    
    1826                    $C$DW$208       .dwtag  DW_TAG_formal_parameter
    1827                            .dwattr $C$DW$208, DW_AT_name("writesds")
    1828                            .dwattr $C$DW$208, DW_AT_TI_symbol_name("writesds")
    1829                            .dwattr $C$DW$208, DW_AT_type(*$C$DW$T$369)
    1830                            .dwattr $C$DW$208, DW_AT_location[DW_OP_reg3]
    1831                    
    1832                    $C$DW$209       .dwtag  DW_TAG_formal_parameter
    1833                            .dwattr $C$DW$209, DW_AT_name("exceptsds")
    1834                            .dwattr $C$DW$209, DW_AT_TI_symbol_name("exceptsds")
    1835                            .dwattr $C$DW$209, DW_AT_type(*$C$DW$T$369)
    1836                            .dwattr $C$DW$209, DW_AT_location[DW_OP_breg13 40]
    1837                    
    1838                    $C$DW$210       .dwtag  DW_TAG_formal_parameter
    1839                            .dwattr $C$DW$210, DW_AT_name("timeout")
    1840                            .dwattr $C$DW$210, DW_AT_TI_symbol_name("timeout")
    1841                            .dwattr $C$DW$210, DW_AT_type(*$C$DW$T$371)
    1842                            .dwattr $C$DW$210, DW_AT_location[DW_OP_breg13 44]
    1843                    
    1844                    ;----------------------------------------------------------------------
    1845                    ; 243 | int32_t SlNetIfWifi_select(void *ifContext, int16_t nfds, SlNetSock_SdS
    1846                    ;     | et_t *readsds, SlNetSock_SdSet_t *writesds, SlNetSock_SdSet_t *exceptsd
    1847                    ;     | s, SlNetSock_Timeval_t *timeout)                                       
    1848                    ;----------------------------------------------------------------------
    1849                    
    1850                    ;*****************************************************************************
    1851                    ;* FUNCTION NAME: SlNetIfWifi_select                                         *
    1852                    ;*                                                                           *
    1853                    ;*   Regs Modified     : A1,A2,A3,A4,V9,SP,LR,SR                             *
    1854                    ;*   Regs Used         : A1,A2,A3,A4,V9,SP,LR,SR                             *
    1855                    ;*   Local Frame Size  : 4 Args + 32 Auto + 4 Save = 40 byte                 *
    1856                    ;*****************************************************************************
    1857 00000000           SlNetIfWifi_select:
    1858                    ;* --------------------------------------------------------------------------*
    1859                            .dwcfi  cfa_offset, 0
    1860 00000000 B500              PUSH      {LR}                  ; [DPU_V7M3_PIPE]  ; [ORIG 16-BIT INS]
    1861                            .dwcfi  cfa_offset, 4
    1862                            .dwcfi  save_reg_to_mem, 14, -4
    1863 00000002 0D24F1AD          SUB       SP, SP, #36           ; [DPU_V7M3_PIPE]  ; [KEEP 32-BIT INS]
    1864                            .dwcfi  cfa_offset, 40
    1865                    $C$DW$211       .dwtag  DW_TAG_variable
    1866                            .dwattr $C$DW$211, DW_AT_name("tv")
    1867                            .dwattr $C$DW$211, DW_AT_TI_symbol_name("tv")
    1868                            .dwattr $C$DW$211, DW_AT_type(*$C$DW$T$746)
    1869                            .dwattr $C$DW$211, DW_AT_location[DW_OP_breg13 8]
    1870                    
TI ARM Assembler Unix v20.2.1 Wed Sep 16 12:09:21 2020

Copyright (c) 1996-2018 Texas Instruments Incorporated
slnetifwifi.asm                                                      PAGE   35

    1871                    $C$DW$212       .dwtag  DW_TAG_variable
    1872                            .dwattr $C$DW$212, DW_AT_name("ifContext")
    1873                            .dwattr $C$DW$212, DW_AT_TI_symbol_name("ifContext")
    1874                            .dwattr $C$DW$212, DW_AT_type(*$C$DW$T$3)
    1875                            .dwattr $C$DW$212, DW_AT_location[DW_OP_breg13 16]
    1876                    
    1877                    $C$DW$213       .dwtag  DW_TAG_variable
    1878                            .dwattr $C$DW$213, DW_AT_name("readsds")
    1879                            .dwattr $C$DW$213, DW_AT_TI_symbol_name("readsds")
    1880                            .dwattr $C$DW$213, DW_AT_type(*$C$DW$T$369)
    1881                            .dwattr $C$DW$213, DW_AT_location[DW_OP_breg13 20]
    1882                    
    1883                    $C$DW$214       .dwtag  DW_TAG_variable
    1884                            .dwattr $C$DW$214, DW_AT_name("writesds")
    1885                            .dwattr $C$DW$214, DW_AT_TI_symbol_name("writesds")
    1886                            .dwattr $C$DW$214, DW_AT_type(*$C$DW$T$369)
    1887                            .dwattr $C$DW$214, DW_AT_location[DW_OP_breg13 24]
    1888                    
    1889                    $C$DW$215       .dwtag  DW_TAG_variable
    1890                            .dwattr $C$DW$215, DW_AT_name("slNetSockTimeVal")
    1891                            .dwattr $C$DW$215, DW_AT_TI_symbol_name("slNetSockTimeVal")
    1892                            .dwattr $C$DW$215, DW_AT_type(*$C$DW$T$371)
    1893                            .dwattr $C$DW$215, DW_AT_location[DW_OP_breg13 28]
    1894                    
    1895                    $C$DW$216       .dwtag  DW_TAG_variable
    1896                            .dwattr $C$DW$216, DW_AT_name("nfds")
    1897                            .dwattr $C$DW$216, DW_AT_TI_symbol_name("nfds")
    1898                            .dwattr $C$DW$216, DW_AT_type(*$C$DW$T$344)
    1899                            .dwattr $C$DW$216, DW_AT_location[DW_OP_breg13 32]
    1900                    
    1901                    ;----------------------------------------------------------------------
    1902                    ; 245 | SlNetSock_Timeval_t *slNetSockTimeVal;                                 
    1903                    ; 246 | SlTimeval_t tv;                                                        
    1904                    ;----------------------------------------------------------------------
    1905 00000006 9306              STR       A4, [SP, #24]         ; [DPU_V7M3_PIPE] |244|  ; [ORIG 16-BIT INS]
    1906 00000008 9205              STR       A3, [SP, #20]         ; [DPU_V7M3_PIPE] |244|  ; [ORIG 16-BIT INS]
    1907 0000000a 1020F8AD          STRH      A2, [SP, #32]         ; [DPU_V7M3_PIPE] |244|  ; [KEEP 32-BIT INS]
    1908 0000000e 9004              STR       A1, [SP, #16]         ; [DPU_V7M3_PIPE] |244|  ; [ORIG 16-BIT INS]
    1909                            .dwpsn  file "/vagrant/Q3_SDK_01/sdk_root/source/ti/drivers/net/wifi/slnetif/slnetifwifi.c",li
    1910                    ;----------------------------------------------------------------------
    1911                    ; 248 | slNetSockTimeVal = (SlNetSock_Timeval_t *)timeout;                     
    1912                    ;----------------------------------------------------------------------
    1913 00000010 980B              LDR       A1, [SP, #44]         ; [DPU_V7M3_PIPE] |248|  ; [ORIG 16-BIT INS]
    1914 00000012 9007              STR       A1, [SP, #28]         ; [DPU_V7M3_PIPE] |248|  ; [ORIG 16-BIT INS]
    1915                            .dwpsn  file "/vagrant/Q3_SDK_01/sdk_root/source/ti/drivers/net/wifi/slnetif/slnetifwifi.c",li
    1916                    ;----------------------------------------------------------------------
    1917                    ; 249 | tv.tv_sec = slNetSockTimeVal->tv_sec;                                  
    1918                    ;----------------------------------------------------------------------
    1919 00000014 9807              LDR       A1, [SP, #28]         ; [DPU_V7M3_PIPE] |249|  ; [ORIG 16-BIT INS]
    1920 00000016 6800              LDR       A1, [A1, #0]          ; [DPU_V7M3_PIPE] |249|  ; [ORIG 16-BIT INS]
    1921 00000018 9002              STR       A1, [SP, #8]          ; [DPU_V7M3_PIPE] |249|  ; [ORIG 16-BIT INS]
    1922                            .dwpsn  file "/vagrant/Q3_SDK_01/sdk_root/source/ti/drivers/net/wifi/slnetif/slnetifwifi.c",li
    1923                    ;----------------------------------------------------------------------
    1924                    ; 250 | tv.tv_usec = slNetSockTimeVal->tv_usec;                                
    1925                    ;----------------------------------------------------------------------
TI ARM Assembler Unix v20.2.1 Wed Sep 16 12:09:21 2020

Copyright (c) 1996-2018 Texas Instruments Incorporated
slnetifwifi.asm                                                      PAGE   36

    1926 0000001a 9807              LDR       A1, [SP, #28]         ; [DPU_V7M3_PIPE] |250|  ; [ORIG 16-BIT INS]
    1927 0000001c 6840              LDR       A1, [A1, #4]          ; [DPU_V7M3_PIPE] |250|  ; [ORIG 16-BIT INS]
    1928 0000001e 9003              STR       A1, [SP, #12]         ; [DPU_V7M3_PIPE] |250|  ; [ORIG 16-BIT INS]
    1929                            .dwpsn  file "/vagrant/Q3_SDK_01/sdk_root/source/ti/drivers/net/wifi/slnetif/slnetifwifi.c",li
    1930                    ;----------------------------------------------------------------------
    1931                    ; 251 | return sl_Select(nfds, (SlFdSet_t *)readsds, (SlFdSet_t *)writesds, (Sl
    1932                    ;     | FdSet_t *)exceptsds, &tv);                                             
    1933                    ;----------------------------------------------------------------------
    1934 00000020 A802              ADD       A1, SP, #8            ; [DPU_V7M3_PIPE] |251|  ; [ORIG 16-BIT INS]
    1935 00000022 9B0A              LDR       A4, [SP, #40]         ; [DPU_V7M3_PIPE] |251|  ; [ORIG 16-BIT INS]
    1936 00000024 9000              STR       A1, [SP, #0]          ; [DPU_V7M3_PIPE] |251|  ; [ORIG 16-BIT INS]
    1937 00000026 0020F9BD          LDRSH     A1, [SP, #32]         ; [DPU_V7M3_PIPE] |251|  ; [KEEP 32-BIT INS]
    1938 0000002a 9905              LDR       A2, [SP, #20]         ; [DPU_V7M3_PIPE] |251|  ; [ORIG 16-BIT INS]
    1939 0000002c 9A06              LDR       A3, [SP, #24]         ; [DPU_V7M3_PIPE] |251|  ; [ORIG 16-BIT INS]
    1940                    $C$DW$217       .dwtag  DW_TAG_TI_branch
    1941                            .dwattr $C$DW$217, DW_AT_low_pc(0x00)
    1942                            .dwattr $C$DW$217, DW_AT_name("sl_Select")
    1943                            .dwattr $C$DW$217, DW_AT_TI_call
    1944                    
    1945 0000002e FFFEF7FF!         BL        sl_Select             ; [DPU_V7M3_PIPE] |251|  ; [KEEP 32-BIT INS]
    1946                            ; CALL OCCURS {sl_Select }       ; [] |251| 
    1947                            .dwpsn  file "/vagrant/Q3_SDK_01/sdk_root/source/ti/drivers/net/wifi/slnetif/slnetifwifi.c",li
    1948 00000032 B009              ADD       SP, SP, #36           ; [DPU_V7M3_PIPE]  ; [ORIG 16-BIT INS]
    1949                            .dwcfi  cfa_offset, 4
    1950                    $C$DW$218       .dwtag  DW_TAG_TI_branch
    1951                            .dwattr $C$DW$218, DW_AT_low_pc(0x00)
    1952                            .dwattr $C$DW$218, DW_AT_TI_return
    1953                    
    1954 00000034 BD00              POP       {PC}                  ; [DPU_V7M3_PIPE]  ; [ORIG 16-BIT INS]
    1955                            .dwcfi  cfa_offset, 0
    1956                            ; BRANCH OCCURS                  ; [] 
    1957                            .dwattr $C$DW$204, DW_AT_TI_end_file("/vagrant/Q3_SDK_01/sdk_root/source/ti/drivers/net/wifi/s
    1958                            .dwattr $C$DW$204, DW_AT_TI_end_line(0xfc)
    1959                            .dwattr $C$DW$204, DW_AT_TI_end_column(0x01)
    1960                            .dwendentry
    1961                            .dwendtag $C$DW$204
    1962                    
    1963 00000000                   .sect   ".text:SlNetIfWifi_setSockOpt"
    1964                            .clink
    1965                            .thumbfunc SlNetIfWifi_setSockOpt
    1966 00000000                   .thumb
    1967                            .global SlNetIfWifi_setSockOpt
    1968                    
    1969                    $C$DW$219       .dwtag  DW_TAG_subprogram
    1970                            .dwattr $C$DW$219, DW_AT_name("SlNetIfWifi_setSockOpt")
    1971                            .dwattr $C$DW$219, DW_AT_low_pc(SlNetIfWifi_setSockOpt)
    1972                            .dwattr $C$DW$219, DW_AT_high_pc(0x00)
    1973                            .dwattr $C$DW$219, DW_AT_TI_symbol_name("SlNetIfWifi_setSockOpt")
    1974                            .dwattr $C$DW$219, DW_AT_external
    1975                            .dwattr $C$DW$219, DW_AT_type(*$C$DW$T$340)
    1976                            .dwattr $C$DW$219, DW_AT_TI_begin_file("/vagrant/Q3_SDK_01/sdk_root/source/ti/drivers/net/wifi
    1977                            .dwattr $C$DW$219, DW_AT_TI_begin_line(0x104)
    1978                            .dwattr $C$DW$219, DW_AT_TI_begin_column(0x09)
    1979                            .dwattr $C$DW$219, DW_AT_decl_file("/vagrant/Q3_SDK_01/sdk_root/source/ti/drivers/net/wifi/sln
    1980                            .dwattr $C$DW$219, DW_AT_decl_line(0x104)
TI ARM Assembler Unix v20.2.1 Wed Sep 16 12:09:21 2020

Copyright (c) 1996-2018 Texas Instruments Incorporated
slnetifwifi.asm                                                      PAGE   37

    1981                            .dwattr $C$DW$219, DW_AT_decl_column(0x09)
    1982                            .dwattr $C$DW$219, DW_AT_TI_max_frame_size(0x28)
    1983                            .dwpsn  file "/vagrant/Q3_SDK_01/sdk_root/source/ti/drivers/net/wifi/slnetif/slnetifwifi.c",li
    1984                    
    1985                            .dwfde $C$DW$CIE, SlNetIfWifi_setSockOpt
    1986                    $C$DW$220       .dwtag  DW_TAG_formal_parameter
    1987                            .dwattr $C$DW$220, DW_AT_name("sd")
    1988                            .dwattr $C$DW$220, DW_AT_TI_symbol_name("sd")
    1989                            .dwattr $C$DW$220, DW_AT_type(*$C$DW$T$10)
    1990                            .dwattr $C$DW$220, DW_AT_location[DW_OP_reg0]
    1991                    
    1992                    $C$DW$221       .dwtag  DW_TAG_formal_parameter
    1993                            .dwattr $C$DW$221, DW_AT_name("sdContext")
    1994                            .dwattr $C$DW$221, DW_AT_TI_symbol_name("sdContext")
    1995                            .dwattr $C$DW$221, DW_AT_type(*$C$DW$T$3)
    1996                            .dwattr $C$DW$221, DW_AT_location[DW_OP_reg1]
    1997                    
    1998                    $C$DW$222       .dwtag  DW_TAG_formal_parameter
    1999                            .dwattr $C$DW$222, DW_AT_name("level")
    2000                            .dwattr $C$DW$222, DW_AT_TI_symbol_name("level")
    2001                            .dwattr $C$DW$222, DW_AT_type(*$C$DW$T$10)
    2002                            .dwattr $C$DW$222, DW_AT_location[DW_OP_reg2]
    2003                    
    2004                    $C$DW$223       .dwtag  DW_TAG_formal_parameter
    2005                            .dwattr $C$DW$223, DW_AT_name("optname")
    2006                            .dwattr $C$DW$223, DW_AT_TI_symbol_name("optname")
    2007                            .dwattr $C$DW$223, DW_AT_type(*$C$DW$T$10)
    2008                            .dwattr $C$DW$223, DW_AT_location[DW_OP_reg3]
    2009                    
    2010                    $C$DW$224       .dwtag  DW_TAG_formal_parameter
    2011                            .dwattr $C$DW$224, DW_AT_name("optval")
    2012                            .dwattr $C$DW$224, DW_AT_TI_symbol_name("optval")
    2013                            .dwattr $C$DW$224, DW_AT_type(*$C$DW$T$3)
    2014                            .dwattr $C$DW$224, DW_AT_location[DW_OP_breg13 40]
    2015                    
    2016                    $C$DW$225       .dwtag  DW_TAG_formal_parameter
    2017                            .dwattr $C$DW$225, DW_AT_name("optlen")
    2018                            .dwattr $C$DW$225, DW_AT_TI_symbol_name("optlen")
    2019                            .dwattr $C$DW$225, DW_AT_type(*$C$DW$T$10)
    2020                            .dwattr $C$DW$225, DW_AT_location[DW_OP_breg13 44]
    2021                    
    2022                    ;----------------------------------------------------------------------
    2023                    ; 260 | int32_t SlNetIfWifi_setSockOpt(int16_t sd, void *sdContext, int16_t lev
    2024                    ;     | el, int16_t optname, void *optval, SlNetSocklen_t optlen)              
    2025                    ;----------------------------------------------------------------------
    2026                    
    2027                    ;*****************************************************************************
    2028                    ;* FUNCTION NAME: SlNetIfWifi_setSockOpt                                     *
    2029                    ;*                                                                           *
    2030                    ;*   Regs Modified     : A1,A2,A3,A4,V4,V9,SP,LR,SR                          *
    2031                    ;*   Regs Used         : A1,A2,A3,A4,V4,V9,SP,LR,SR                          *
    2032                    ;*   Local Frame Size  : 4 Args + 28 Auto + 8 Save = 40 byte                 *
    2033                    ;*****************************************************************************
    2034 00000000           SlNetIfWifi_setSockOpt:
    2035                    ;* --------------------------------------------------------------------------*
TI ARM Assembler Unix v20.2.1 Wed Sep 16 12:09:21 2020

Copyright (c) 1996-2018 Texas Instruments Incorporated
slnetifwifi.asm                                                      PAGE   38

    2036                            .dwcfi  cfa_offset, 0
    2037 00000000 B580              PUSH      {V4, LR}              ; [DPU_V7M3_PIPE]  ; [ORIG 16-BIT INS]
    2038                            .dwcfi  cfa_offset, 8
    2039                            .dwcfi  save_reg_to_mem, 14, -4
    2040                            .dwcfi  save_reg_to_mem, 7, -8
    2041 00000002 AF02              ADD       V4, SP, #8            ; [DPU_V7M3_PIPE]  ; [ORIG 16-BIT INS]
    2042 00000004 0D20F1AD          SUB       SP, SP, #32           ; [DPU_V7M3_PIPE]  ; [KEEP 32-BIT INS]
    2043                            .dwcfi  cfa_offset, 40
    2044                    $C$DW$226       .dwtag  DW_TAG_variable
    2045                            .dwattr $C$DW$226, DW_AT_name("tv")
    2046                            .dwattr $C$DW$226, DW_AT_TI_symbol_name("tv")
    2047                            .dwattr $C$DW$226, DW_AT_type(*$C$DW$T$746)
    2048                            .dwattr $C$DW$226, DW_AT_location[DW_OP_breg13 8]
    2049                    
    2050                    $C$DW$227       .dwtag  DW_TAG_variable
    2051                            .dwattr $C$DW$227, DW_AT_name("sdContext")
    2052                            .dwattr $C$DW$227, DW_AT_TI_symbol_name("sdContext")
    2053                            .dwattr $C$DW$227, DW_AT_type(*$C$DW$T$3)
    2054                            .dwattr $C$DW$227, DW_AT_location[DW_OP_breg13 16]
    2055                    
    2056                    $C$DW$228       .dwtag  DW_TAG_variable
    2057                            .dwattr $C$DW$228, DW_AT_name("slNetSockTimeVal")
    2058                            .dwattr $C$DW$228, DW_AT_TI_symbol_name("slNetSockTimeVal")
    2059                            .dwattr $C$DW$228, DW_AT_type(*$C$DW$T$371)
    2060                            .dwattr $C$DW$228, DW_AT_location[DW_OP_breg13 20]
    2061                    
    2062                    $C$DW$229       .dwtag  DW_TAG_variable
    2063                            .dwattr $C$DW$229, DW_AT_name("sd")
    2064                            .dwattr $C$DW$229, DW_AT_TI_symbol_name("sd")
    2065                            .dwattr $C$DW$229, DW_AT_type(*$C$DW$T$344)
    2066                            .dwattr $C$DW$229, DW_AT_location[DW_OP_breg13 24]
    2067                    
    2068                    $C$DW$230       .dwtag  DW_TAG_variable
    2069                            .dwattr $C$DW$230, DW_AT_name("level")
    2070                            .dwattr $C$DW$230, DW_AT_TI_symbol_name("level")
    2071                            .dwattr $C$DW$230, DW_AT_type(*$C$DW$T$344)
    2072                            .dwattr $C$DW$230, DW_AT_location[DW_OP_breg13 26]
    2073                    
    2074                    $C$DW$231       .dwtag  DW_TAG_variable
    2075                            .dwattr $C$DW$231, DW_AT_name("optname")
    2076                            .dwattr $C$DW$231, DW_AT_TI_symbol_name("optname")
    2077                            .dwattr $C$DW$231, DW_AT_type(*$C$DW$T$344)
    2078                            .dwattr $C$DW$231, DW_AT_location[DW_OP_breg13 28]
    2079                    
    2080                    ;----------------------------------------------------------------------
    2081                    ; 262 | SlNetSock_Timeval_t *slNetSockTimeVal;                                 
    2082                    ; 263 | SlTimeval_t tv;                                                        
    2083                    ;----------------------------------------------------------------------
    2084 00000008 301CF8AD          STRH      A4, [SP, #28]         ; [DPU_V7M3_PIPE] |261|  ; [KEEP 32-BIT INS]
    2085 0000000c 201AF8AD          STRH      A3, [SP, #26]         ; [DPU_V7M3_PIPE] |261|  ; [KEEP 32-BIT INS]
    2086 00000010 9104              STR       A2, [SP, #16]         ; [DPU_V7M3_PIPE] |261|  ; [ORIG 16-BIT INS]
    2087 00000012 0018F8AD          STRH      A1, [SP, #24]         ; [DPU_V7M3_PIPE] |261|  ; [KEEP 32-BIT INS]
    2088                            .dwpsn  file "/vagrant/Q3_SDK_01/sdk_root/source/ti/drivers/net/wifi/slnetif/slnetifwifi.c",li
    2089                    ;----------------------------------------------------------------------
    2090                    ; 265 | switch (level)                                                         
TI ARM Assembler Unix v20.2.1 Wed Sep 16 12:09:21 2020

Copyright (c) 1996-2018 Texas Instruments Incorporated
slnetifwifi.asm                                                      PAGE   39

    2091                    ; 267 |     case SLNETSOCK_LVL_SOCKET:                                         
    2092                    ; 269 |         switch (optname)                                               
    2093                    ; 271 |             case SLNETSOCK_OPSOCK_RCV_TIMEO:                           
    2094                    ;----------------------------------------------------------------------
    2095 00000016 E011              B         ||$C$L3||             ; [DPU_V7M3_PIPE] |265|  ; [ORIG 16-BIT INS]
    2096                            ; BRANCH OCCURS {||$C$L3||}      ; [] |265| 
    2097                    ;* --------------------------------------------------------------------------*
    2098                    ;* --------------------------------------------------------------------------*
    2099 00000018           ||$C$L1||:    
    2100                            .dwpsn  file "/vagrant/Q3_SDK_01/sdk_root/source/ti/drivers/net/wifi/slnetif/slnetifwifi.c",li
    2101                    ;----------------------------------------------------------------------
    2102                    ; 274 | slNetSockTimeVal = (SlNetSock_Timeval_t *)optval;                      
    2103                    ;----------------------------------------------------------------------
    2104 00000018 6838              LDR       A1, [V4, #0]          ; [DPU_V7M3_PIPE] |274|  ; [ORIG 16-BIT INS]
    2105 0000001a 9005              STR       A1, [SP, #20]         ; [DPU_V7M3_PIPE] |274|  ; [ORIG 16-BIT INS]
    2106                            .dwpsn  file "/vagrant/Q3_SDK_01/sdk_root/source/ti/drivers/net/wifi/slnetif/slnetifwifi.c",li
    2107                    ;----------------------------------------------------------------------
    2108                    ; 275 | tv.tv_sec = slNetSockTimeVal->tv_sec;                                  
    2109                    ;----------------------------------------------------------------------
    2110 0000001c 9805              LDR       A1, [SP, #20]         ; [DPU_V7M3_PIPE] |275|  ; [ORIG 16-BIT INS]
    2111 0000001e 6800              LDR       A1, [A1, #0]          ; [DPU_V7M3_PIPE] |275|  ; [ORIG 16-BIT INS]
    2112 00000020 9002              STR       A1, [SP, #8]          ; [DPU_V7M3_PIPE] |275|  ; [ORIG 16-BIT INS]
    2113                            .dwpsn  file "/vagrant/Q3_SDK_01/sdk_root/source/ti/drivers/net/wifi/slnetif/slnetifwifi.c",li
    2114                    ;----------------------------------------------------------------------
    2115                    ; 276 | tv.tv_usec = slNetSockTimeVal->tv_usec;                                
    2116                    ;----------------------------------------------------------------------
    2117 00000022 9805              LDR       A1, [SP, #20]         ; [DPU_V7M3_PIPE] |276|  ; [ORIG 16-BIT INS]
    2118 00000024 6840              LDR       A1, [A1, #4]          ; [DPU_V7M3_PIPE] |276|  ; [ORIG 16-BIT INS]
    2119 00000026 9003              STR       A1, [SP, #12]         ; [DPU_V7M3_PIPE] |276|  ; [ORIG 16-BIT INS]
    2120                            .dwpsn  file "/vagrant/Q3_SDK_01/sdk_root/source/ti/drivers/net/wifi/slnetif/slnetifwifi.c",li
    2121                    ;----------------------------------------------------------------------
    2122                    ; 277 | optval = (void *)&tv;                                                  
    2123                    ;----------------------------------------------------------------------
    2124 00000028 A802              ADD       A1, SP, #8            ; [DPU_V7M3_PIPE] |277|  ; [ORIG 16-BIT INS]
    2125 0000002a 6038              STR       A1, [V4, #0]          ; [DPU_V7M3_PIPE] |277|  ; [ORIG 16-BIT INS]
    2126                            .dwpsn  file "/vagrant/Q3_SDK_01/sdk_root/source/ti/drivers/net/wifi/slnetif/slnetifwifi.c",li
    2127                    ;----------------------------------------------------------------------
    2128                    ; 278 | optlen = sizeof(SlTimeval_t);                                          
    2129                    ;----------------------------------------------------------------------
    2130 0000002c 2008              MOVS      A1, #8                ; [DPU_V7M3_PIPE] |278|  ; [ORIG 16-BIT INS]
    2131 0000002e 80B8              STRH      A1, [V4, #4]          ; [DPU_V7M3_PIPE] |278|  ; [ORIG 16-BIT INS]
    2132                            .dwpsn  file "/vagrant/Q3_SDK_01/sdk_root/source/ti/drivers/net/wifi/slnetif/slnetifwifi.c",li
    2133                    ;----------------------------------------------------------------------
    2134                    ; 279 | break;                                                                 
    2135                    ; 281 | default:                                                               
    2136                    ; 283 | break;                                                                 
    2137                    ; 285 | break;                                                                 
    2138                    ; 287 | default:                                                               
    2139                    ; 289 | break;                                                                 
    2140                    ;----------------------------------------------------------------------
    2141 00000030 E008              B         ||$C$L4||             ; [DPU_V7M3_PIPE] |279|  ; [ORIG 16-BIT INS]
    2142                            ; BRANCH OCCURS {||$C$L4||}      ; [] |279| 
    2143                    ;* --------------------------------------------------------------------------*
    2144                    ;* --------------------------------------------------------------------------*
    2145 00000032           ||$C$L2||:    
TI ARM Assembler Unix v20.2.1 Wed Sep 16 12:09:21 2020

Copyright (c) 1996-2018 Texas Instruments Incorporated
slnetifwifi.asm                                                      PAGE   40

    2146                            .dwpsn  file "/vagrant/Q3_SDK_01/sdk_root/source/ti/drivers/net/wifi/slnetif/slnetifwifi.c",li
    2147 00000032 001CF9BD          LDRSH     A1, [SP, #28]         ; [DPU_V7M3_PIPE] |269|  ; [KEEP 32-BIT INS]
    2148 00000036 3814              SUBS      A1, A1, #20           ; [DPU_V7M3_PIPE] |269|  ; [ORIG 16-BIT INS]
    2149 00000038 D0EE              BEQ       ||$C$L1||             ; [DPU_V7M3_PIPE] |269|  ; [ORIG 16-BIT INS]
    2150                            ; BRANCHCC OCCURS {||$C$L1||}    ; [] |269| 
    2151                    ;* --------------------------------------------------------------------------*
    2152 0000003a E003              B         ||$C$L4||             ; [DPU_V7M3_PIPE] |269|  ; [ORIG 16-BIT INS]
    2153                            ; BRANCH OCCURS {||$C$L4||}      ; [] |269| 
    2154                    ;* --------------------------------------------------------------------------*
    2155                    ;* --------------------------------------------------------------------------*
    2156 0000003c           ||$C$L3||:    
    2157                            .dwpsn  file "/vagrant/Q3_SDK_01/sdk_root/source/ti/drivers/net/wifi/slnetif/slnetifwifi.c",li
    2158 0000003c 001AF9BD          LDRSH     A1, [SP, #26]         ; [DPU_V7M3_PIPE] |265|  ; [KEEP 32-BIT INS]
    2159 00000040 1E40              SUBS      A1, A1, #1            ; [DPU_V7M3_PIPE] |265|  ; [ORIG 16-BIT INS]
    2160 00000042 D0F6              BEQ       ||$C$L2||             ; [DPU_V7M3_PIPE] |265|  ; [ORIG 16-BIT INS]
    2161                            ; BRANCHCC OCCURS {||$C$L2||}    ; [] |265| 
    2162                    ;* --------------------------------------------------------------------------*
    2163 00000044           ||$C$L4||:    
    2164                            .dwpsn  file "/vagrant/Q3_SDK_01/sdk_root/source/ti/drivers/net/wifi/slnetif/slnetifwifi.c",li
    2165                    ;----------------------------------------------------------------------
    2166                    ; 292 | return sl_SetSockOpt(sd, level, optname, optval, optlen);              
    2167                    ;----------------------------------------------------------------------
    2168 00000044 88B8              LDRH      A1, [V4, #4]          ; [DPU_V7M3_PIPE] |292|  ; [ORIG 16-BIT INS]
    2169 00000046 9000              STR       A1, [SP, #0]          ; [DPU_V7M3_PIPE] |292|  ; [ORIG 16-BIT INS]
    2170 00000048 101AF9BD          LDRSH     A2, [SP, #26]         ; [DPU_V7M3_PIPE] |292|  ; [KEEP 32-BIT INS]
    2171 0000004c 201CF9BD          LDRSH     A3, [SP, #28]         ; [DPU_V7M3_PIPE] |292|  ; [KEEP 32-BIT INS]
    2172 00000050 683B              LDR       A4, [V4, #0]          ; [DPU_V7M3_PIPE] |292|  ; [ORIG 16-BIT INS]
    2173 00000052 0018F9BD          LDRSH     A1, [SP, #24]         ; [DPU_V7M3_PIPE] |292|  ; [KEEP 32-BIT INS]
    2174                    $C$DW$232       .dwtag  DW_TAG_TI_branch
    2175                            .dwattr $C$DW$232, DW_AT_low_pc(0x00)
    2176                            .dwattr $C$DW$232, DW_AT_name("sl_SetSockOpt")
    2177                            .dwattr $C$DW$232, DW_AT_TI_call
    2178                    
    2179 00000056 FFFEF7FF!         BL        sl_SetSockOpt         ; [DPU_V7M3_PIPE] |292|  ; [KEEP 32-BIT INS]
    2180                            ; CALL OCCURS {sl_SetSockOpt }   ; [] |292| 
    2181                            .dwpsn  file "/vagrant/Q3_SDK_01/sdk_root/source/ti/drivers/net/wifi/slnetif/slnetifwifi.c",li
    2182 0000005a B008              ADD       SP, SP, #32           ; [DPU_V7M3_PIPE]  ; [ORIG 16-BIT INS]
    2183                            .dwcfi  cfa_offset, 8
    2184                    $C$DW$233       .dwtag  DW_TAG_TI_branch
    2185                            .dwattr $C$DW$233, DW_AT_low_pc(0x00)
    2186                            .dwattr $C$DW$233, DW_AT_TI_return
    2187                    
    2188 0000005c BD80              POP       {V4, PC}              ; [DPU_V7M3_PIPE]  ; [ORIG 16-BIT INS]
    2189                            .dwcfi  cfa_offset, 0
    2190                            .dwcfi  restore_reg, 7
    2191                            ; BRANCH OCCURS                  ; [] 
    2192                            .dwattr $C$DW$219, DW_AT_TI_end_file("/vagrant/Q3_SDK_01/sdk_root/source/ti/drivers/net/wifi/s
    2193                            .dwattr $C$DW$219, DW_AT_TI_end_line(0x125)
    2194                            .dwattr $C$DW$219, DW_AT_TI_end_column(0x01)
    2195                            .dwendentry
    2196                            .dwendtag $C$DW$219
    2197                    
    2198 00000000                   .sect   ".text:SlNetIfWifi_getSockOpt"
    2199                            .clink
    2200                            .thumbfunc SlNetIfWifi_getSockOpt
TI ARM Assembler Unix v20.2.1 Wed Sep 16 12:09:21 2020

Copyright (c) 1996-2018 Texas Instruments Incorporated
slnetifwifi.asm                                                      PAGE   41

    2201 00000000                   .thumb
    2202                            .global SlNetIfWifi_getSockOpt
    2203                    
    2204                    $C$DW$234       .dwtag  DW_TAG_subprogram
    2205                            .dwattr $C$DW$234, DW_AT_name("SlNetIfWifi_getSockOpt")
    2206                            .dwattr $C$DW$234, DW_AT_low_pc(SlNetIfWifi_getSockOpt)
    2207                            .dwattr $C$DW$234, DW_AT_high_pc(0x00)
    2208                            .dwattr $C$DW$234, DW_AT_TI_symbol_name("SlNetIfWifi_getSockOpt")
    2209                            .dwattr $C$DW$234, DW_AT_external
    2210                            .dwattr $C$DW$234, DW_AT_type(*$C$DW$T$340)
    2211                            .dwattr $C$DW$234, DW_AT_TI_begin_file("/vagrant/Q3_SDK_01/sdk_root/source/ti/drivers/net/wifi
    2212                            .dwattr $C$DW$234, DW_AT_TI_begin_line(0x12d)
    2213                            .dwattr $C$DW$234, DW_AT_TI_begin_column(0x09)
    2214                            .dwattr $C$DW$234, DW_AT_decl_file("/vagrant/Q3_SDK_01/sdk_root/source/ti/drivers/net/wifi/sln
    2215                            .dwattr $C$DW$234, DW_AT_decl_line(0x12d)
    2216                            .dwattr $C$DW$234, DW_AT_decl_column(0x09)
    2217                            .dwattr $C$DW$234, DW_AT_TI_max_frame_size(0x28)
    2218                            .dwpsn  file "/vagrant/Q3_SDK_01/sdk_root/source/ti/drivers/net/wifi/slnetif/slnetifwifi.c",li
    2219                    
    2220                            .dwfde $C$DW$CIE, SlNetIfWifi_getSockOpt
    2221                    $C$DW$235       .dwtag  DW_TAG_formal_parameter
    2222                            .dwattr $C$DW$235, DW_AT_name("sd")
    2223                            .dwattr $C$DW$235, DW_AT_TI_symbol_name("sd")
    2224                            .dwattr $C$DW$235, DW_AT_type(*$C$DW$T$10)
    2225                            .dwattr $C$DW$235, DW_AT_location[DW_OP_reg0]
    2226                    
    2227                    $C$DW$236       .dwtag  DW_TAG_formal_parameter
    2228                            .dwattr $C$DW$236, DW_AT_name("sdContext")
    2229                            .dwattr $C$DW$236, DW_AT_TI_symbol_name("sdContext")
    2230                            .dwattr $C$DW$236, DW_AT_type(*$C$DW$T$3)
    2231                            .dwattr $C$DW$236, DW_AT_location[DW_OP_reg1]
    2232                    
    2233                    $C$DW$237       .dwtag  DW_TAG_formal_parameter
    2234                            .dwattr $C$DW$237, DW_AT_name("level")
    2235                            .dwattr $C$DW$237, DW_AT_TI_symbol_name("level")
    2236                            .dwattr $C$DW$237, DW_AT_type(*$C$DW$T$10)
    2237                            .dwattr $C$DW$237, DW_AT_location[DW_OP_reg2]
    2238                    
    2239                    $C$DW$238       .dwtag  DW_TAG_formal_parameter
    2240                            .dwattr $C$DW$238, DW_AT_name("optname")
    2241                            .dwattr $C$DW$238, DW_AT_TI_symbol_name("optname")
    2242                            .dwattr $C$DW$238, DW_AT_type(*$C$DW$T$10)
    2243                            .dwattr $C$DW$238, DW_AT_location[DW_OP_reg3]
    2244                    
    2245                    $C$DW$239       .dwtag  DW_TAG_formal_parameter
    2246                            .dwattr $C$DW$239, DW_AT_name("optval")
    2247                            .dwattr $C$DW$239, DW_AT_TI_symbol_name("optval")
    2248                            .dwattr $C$DW$239, DW_AT_type(*$C$DW$T$3)
    2249                            .dwattr $C$DW$239, DW_AT_location[DW_OP_breg13 40]
    2250                    
    2251                    $C$DW$240       .dwtag  DW_TAG_formal_parameter
    2252                            .dwattr $C$DW$240, DW_AT_name("optlen")
    2253                            .dwattr $C$DW$240, DW_AT_TI_symbol_name("optlen")
    2254                            .dwattr $C$DW$240, DW_AT_type(*$C$DW$T$357)
    2255                            .dwattr $C$DW$240, DW_AT_location[DW_OP_breg13 44]
TI ARM Assembler Unix v20.2.1 Wed Sep 16 12:09:21 2020

Copyright (c) 1996-2018 Texas Instruments Incorporated
slnetifwifi.asm                                                      PAGE   42

    2256                    
    2257                    ;----------------------------------------------------------------------
    2258                    ; 301 | int32_t SlNetIfWifi_getSockOpt(int16_t sd, void *sdContext, int16_t lev
    2259                    ;     | el, int16_t optname, void *optval, SlNetSocklen_t *optlen)             
    2260                    ;----------------------------------------------------------------------
    2261                    
    2262                    ;*****************************************************************************
    2263                    ;* FUNCTION NAME: SlNetIfWifi_getSockOpt                                     *
    2264                    ;*                                                                           *
    2265                    ;*   Regs Modified     : A1,A2,A3,A4,V9,SP,LR,SR                             *
    2266                    ;*   Regs Used         : A1,A2,A3,A4,V9,SP,LR,SR                             *
    2267                    ;*   Local Frame Size  : 4 Args + 32 Auto + 4 Save = 40 byte                 *
    2268                    ;*****************************************************************************
    2269 00000000           SlNetIfWifi_getSockOpt:
    2270                    ;* --------------------------------------------------------------------------*
    2271                            .dwcfi  cfa_offset, 0
    2272 00000000 B500              PUSH      {LR}                  ; [DPU_V7M3_PIPE]  ; [ORIG 16-BIT INS]
    2273                            .dwcfi  cfa_offset, 4
    2274                            .dwcfi  save_reg_to_mem, 14, -4
    2275 00000002 0D24F1AD          SUB       SP, SP, #36           ; [DPU_V7M3_PIPE]  ; [KEEP 32-BIT INS]
    2276                            .dwcfi  cfa_offset, 40
    2277                    $C$DW$241       .dwtag  DW_TAG_variable
    2278                            .dwattr $C$DW$241, DW_AT_name("tv")
    2279                            .dwattr $C$DW$241, DW_AT_TI_symbol_name("tv")
    2280                            .dwattr $C$DW$241, DW_AT_type(*$C$DW$T$746)
    2281                            .dwattr $C$DW$241, DW_AT_location[DW_OP_breg13 8]
    2282                    
    2283                    $C$DW$242       .dwtag  DW_TAG_variable
    2284                            .dwattr $C$DW$242, DW_AT_name("sdContext")
    2285                            .dwattr $C$DW$242, DW_AT_TI_symbol_name("sdContext")
    2286                            .dwattr $C$DW$242, DW_AT_type(*$C$DW$T$3)
    2287                            .dwattr $C$DW$242, DW_AT_location[DW_OP_breg13 16]
    2288                    
    2289                    $C$DW$243       .dwtag  DW_TAG_variable
    2290                            .dwattr $C$DW$243, DW_AT_name("status")
    2291                            .dwattr $C$DW$243, DW_AT_TI_symbol_name("status")
    2292                            .dwattr $C$DW$243, DW_AT_type(*$C$DW$T$340)
    2293                            .dwattr $C$DW$243, DW_AT_location[DW_OP_breg13 20]
    2294                    
    2295                    $C$DW$244       .dwtag  DW_TAG_variable
    2296                            .dwattr $C$DW$244, DW_AT_name("slNetSockTimeVal")
    2297                            .dwattr $C$DW$244, DW_AT_TI_symbol_name("slNetSockTimeVal")
    2298                            .dwattr $C$DW$244, DW_AT_type(*$C$DW$T$371)
    2299                            .dwattr $C$DW$244, DW_AT_location[DW_OP_breg13 24]
    2300                    
    2301                    $C$DW$245       .dwtag  DW_TAG_variable
    2302                            .dwattr $C$DW$245, DW_AT_name("sd")
    2303                            .dwattr $C$DW$245, DW_AT_TI_symbol_name("sd")
    2304                            .dwattr $C$DW$245, DW_AT_type(*$C$DW$T$344)
    2305                            .dwattr $C$DW$245, DW_AT_location[DW_OP_breg13 28]
    2306                    
    2307                    $C$DW$246       .dwtag  DW_TAG_variable
    2308                            .dwattr $C$DW$246, DW_AT_name("level")
    2309                            .dwattr $C$DW$246, DW_AT_TI_symbol_name("level")
    2310                            .dwattr $C$DW$246, DW_AT_type(*$C$DW$T$344)
TI ARM Assembler Unix v20.2.1 Wed Sep 16 12:09:21 2020

Copyright (c) 1996-2018 Texas Instruments Incorporated
slnetifwifi.asm                                                      PAGE   43

    2311                            .dwattr $C$DW$246, DW_AT_location[DW_OP_breg13 30]
    2312                    
    2313                    $C$DW$247       .dwtag  DW_TAG_variable
    2314                            .dwattr $C$DW$247, DW_AT_name("optname")
    2315                            .dwattr $C$DW$247, DW_AT_TI_symbol_name("optname")
    2316                            .dwattr $C$DW$247, DW_AT_type(*$C$DW$T$344)
    2317                            .dwattr $C$DW$247, DW_AT_location[DW_OP_breg13 32]
    2318                    
    2319                    $C$DW$248       .dwtag  DW_TAG_variable
    2320                            .dwattr $C$DW$248, DW_AT_name("len")
    2321                            .dwattr $C$DW$248, DW_AT_TI_symbol_name("len")
    2322                            .dwattr $C$DW$248, DW_AT_type(*$C$DW$T$800)
    2323                            .dwattr $C$DW$248, DW_AT_location[DW_OP_breg13 34]
    2324                    
    2325                    ;----------------------------------------------------------------------
    2326                    ; 303 | SlSocklen_t len;                                                       
    2327                    ;----------------------------------------------------------------------
    2328 00000006 3020F8AD          STRH      A4, [SP, #32]         ; [DPU_V7M3_PIPE] |302|  ; [KEEP 32-BIT INS]
    2329 0000000a 201EF8AD          STRH      A3, [SP, #30]         ; [DPU_V7M3_PIPE] |302|  ; [KEEP 32-BIT INS]
    2330 0000000e 9104              STR       A2, [SP, #16]         ; [DPU_V7M3_PIPE] |302|  ; [ORIG 16-BIT INS]
    2331 00000010 001CF8AD          STRH      A1, [SP, #28]         ; [DPU_V7M3_PIPE] |302|  ; [KEEP 32-BIT INS]
    2332                            .dwpsn  file "/vagrant/Q3_SDK_01/sdk_root/source/ti/drivers/net/wifi/slnetif/slnetifwifi.c",li
    2333                    ;----------------------------------------------------------------------
    2334                    ; 304 | int32_t status = 0;                                                    
    2335                    ; 305 | SlNetSock_Timeval_t *slNetSockTimeVal;                                 
    2336                    ; 306 | SlTimeval_t tv;                                                        
    2337                    ;----------------------------------------------------------------------
    2338 00000014 2000              MOVS      A1, #0                ; [DPU_V7M3_PIPE] |304|  ; [ORIG 16-BIT INS]
    2339 00000016 9005              STR       A1, [SP, #20]         ; [DPU_V7M3_PIPE] |304|  ; [ORIG 16-BIT INS]
    2340                            .dwpsn  file "/vagrant/Q3_SDK_01/sdk_root/source/ti/drivers/net/wifi/slnetif/slnetifwifi.c",li
    2341                    ;----------------------------------------------------------------------
    2342                    ; 308 | switch (level)                                                         
    2343                    ; 310 |     case SLNETSOCK_LVL_SOCKET:                                         
    2344                    ; 312 |         switch (optname)                                               
    2345                    ; 314 |             case SLNETSOCK_OPSOCK_RCV_TIMEO:                           
    2346                    ;----------------------------------------------------------------------
    2347 00000018 E040              B         ||$C$L10||            ; [DPU_V7M3_PIPE] |308|  ; [ORIG 16-BIT INS]
    2348                            ; BRANCH OCCURS {||$C$L10||}     ; [] |308| 
    2349                    ;* --------------------------------------------------------------------------*
    2350                    ;* --------------------------------------------------------------------------*
    2351 0000001a           ||$C$L5||:    
    2352                            .dwpsn  file "/vagrant/Q3_SDK_01/sdk_root/source/ti/drivers/net/wifi/slnetif/slnetifwifi.c",li
    2353                    ;----------------------------------------------------------------------
    2354                    ; 316 | if (*optlen < sizeof(SlNetSock_Timeval_t))                             
    2355                    ;----------------------------------------------------------------------
    2356 0000001a 980B              LDR       A1, [SP, #44]         ; [DPU_V7M3_PIPE] |316|  ; [ORIG 16-BIT INS]
    2357 0000001c 8800              LDRH      A1, [A1, #0]          ; [DPU_V7M3_PIPE] |316|  ; [ORIG 16-BIT INS]
    2358 0000001e 2808              CMP       A1, #8                ; [DPU_V7M3_PIPE] |316|  ; [ORIG 16-BIT INS]
    2359 00000020 D201              BCS       ||$C$L6||             ; [DPU_V7M3_PIPE] |316|  ; [ORIG 16-BIT INS]
    2360                            ; BRANCHCC OCCURS {||$C$L6||}    ; [] |316| 
    2361                    ;* --------------------------------------------------------------------------*
    2362                            .dwpsn  file "/vagrant/Q3_SDK_01/sdk_root/source/ti/drivers/net/wifi/slnetif/slnetifwifi.c",li
    2363                    ;----------------------------------------------------------------------
    2364                    ; 318 | return (SLNETERR_RET_CODE_INVALID_INPUT);                              
    2365                    ;----------------------------------------------------------------------
TI ARM Assembler Unix v20.2.1 Wed Sep 16 12:09:21 2020

Copyright (c) 1996-2018 Texas Instruments Incorporated
slnetifwifi.asm                                                      PAGE   44

    2366 00000022 4822              LDR       A1, $C$CON3           ; [DPU_V7M3_PIPE] |318|  ; [ORIG 16-BIT INS]
    2367 00000024 E040              B         ||$C$L12||            ; [DPU_V7M3_PIPE] |318|  ; [ORIG 16-BIT INS]
    2368                            ; BRANCH OCCURS {||$C$L12||}     ; [] |318| 
    2369                    ;* --------------------------------------------------------------------------*
    2370 00000026           ||$C$L6||:    
    2371                            .dwpsn  file "/vagrant/Q3_SDK_01/sdk_root/source/ti/drivers/net/wifi/slnetif/slnetifwifi.c",li
    2372                    ;----------------------------------------------------------------------
    2373                    ; 320 | len = sizeof(SlTimeval_t);                                             
    2374                    ;----------------------------------------------------------------------
    2375 00000026 2008              MOVS      A1, #8                ; [DPU_V7M3_PIPE] |320|  ; [ORIG 16-BIT INS]
    2376 00000028 0022F8AD          STRH      A1, [SP, #34]         ; [DPU_V7M3_PIPE] |320|  ; [KEEP 32-BIT INS]
    2377                            .dwpsn  file "/vagrant/Q3_SDK_01/sdk_root/source/ti/drivers/net/wifi/slnetif/slnetifwifi.c",li
    2378                    ;----------------------------------------------------------------------
    2379                    ; 321 | status =                                                               
    2380                    ; 322 |     sl_GetSockOpt(sd, level, optname, (void *)&tv, &len);              
    2381                    ;----------------------------------------------------------------------
    2382 0000002c 0022F10D          ADD       A1, SP, #34           ; [DPU_V7M3_PIPE] |321|  ; [KEEP 32-BIT INS]
    2383 00000030 9000              STR       A1, [SP, #0]          ; [DPU_V7M3_PIPE] |321|  ; [ORIG 16-BIT INS]
    2384 00000032 2020F9BD          LDRSH     A3, [SP, #32]         ; [DPU_V7M3_PIPE] |321|  ; [KEEP 32-BIT INS]
    2385 00000036 101EF9BD          LDRSH     A2, [SP, #30]         ; [DPU_V7M3_PIPE] |321|  ; [KEEP 32-BIT INS]
    2386 0000003a 001CF9BD          LDRSH     A1, [SP, #28]         ; [DPU_V7M3_PIPE] |321|  ; [KEEP 32-BIT INS]
    2387 0000003e AB02              ADD       A4, SP, #8            ; [DPU_V7M3_PIPE] |321|  ; [ORIG 16-BIT INS]
    2388                    $C$DW$249       .dwtag  DW_TAG_TI_branch
    2389                            .dwattr $C$DW$249, DW_AT_low_pc(0x00)
    2390                            .dwattr $C$DW$249, DW_AT_name("sl_GetSockOpt")
    2391                            .dwattr $C$DW$249, DW_AT_TI_call
    2392                    
    2393 00000040 FFFEF7FF!         BL        sl_GetSockOpt         ; [DPU_V7M3_PIPE] |321|  ; [KEEP 32-BIT INS]
    2394                            ; CALL OCCURS {sl_GetSockOpt }   ; [] |321| 
    2395 00000044 9005              STR       A1, [SP, #20]         ; [DPU_V7M3_PIPE] |321|  ; [ORIG 16-BIT INS]
    2396                            .dwpsn  file "/vagrant/Q3_SDK_01/sdk_root/source/ti/drivers/net/wifi/slnetif/slnetifwifi.c",li
    2397                    ;----------------------------------------------------------------------
    2398                    ; 324 | slNetSockTimeVal = (SlNetSock_Timeval_t *)optval;                      
    2399                    ;----------------------------------------------------------------------
    2400 00000046 980A              LDR       A1, [SP, #40]         ; [DPU_V7M3_PIPE] |324|  ; [ORIG 16-BIT INS]
    2401 00000048 9006              STR       A1, [SP, #24]         ; [DPU_V7M3_PIPE] |324|  ; [ORIG 16-BIT INS]
    2402                            .dwpsn  file "/vagrant/Q3_SDK_01/sdk_root/source/ti/drivers/net/wifi/slnetif/slnetifwifi.c",li
    2403                    ;----------------------------------------------------------------------
    2404                    ; 325 | slNetSockTimeVal->tv_sec = tv.tv_sec;                                  
    2405                    ;----------------------------------------------------------------------
    2406 0000004a 9802              LDR       A1, [SP, #8]          ; [DPU_V7M3_PIPE] |325|  ; [ORIG 16-BIT INS]
    2407 0000004c 9906              LDR       A2, [SP, #24]         ; [DPU_V7M3_PIPE] |325|  ; [ORIG 16-BIT INS]
    2408 0000004e 6008              STR       A1, [A2, #0]          ; [DPU_V7M3_PIPE] |325|  ; [ORIG 16-BIT INS]
    2409                            .dwpsn  file "/vagrant/Q3_SDK_01/sdk_root/source/ti/drivers/net/wifi/slnetif/slnetifwifi.c",li
    2410                    ;----------------------------------------------------------------------
    2411                    ; 326 | slNetSockTimeVal->tv_usec = tv.tv_usec;                                
    2412                    ;----------------------------------------------------------------------
    2413 00000050 9803              LDR       A1, [SP, #12]         ; [DPU_V7M3_PIPE] |326|  ; [ORIG 16-BIT INS]
    2414 00000052 9906              LDR       A2, [SP, #24]         ; [DPU_V7M3_PIPE] |326|  ; [ORIG 16-BIT INS]
    2415 00000054 6048              STR       A1, [A2, #4]          ; [DPU_V7M3_PIPE] |326|  ; [ORIG 16-BIT INS]
    2416                            .dwpsn  file "/vagrant/Q3_SDK_01/sdk_root/source/ti/drivers/net/wifi/slnetif/slnetifwifi.c",li
    2417                    ;----------------------------------------------------------------------
    2418                    ; 327 | *optlen = sizeof(SlNetSock_Timeval_t);                                 
    2419                    ;----------------------------------------------------------------------
    2420 00000056 980B              LDR       A1, [SP, #44]         ; [DPU_V7M3_PIPE] |327|  ; [ORIG 16-BIT INS]
TI ARM Assembler Unix v20.2.1 Wed Sep 16 12:09:21 2020

Copyright (c) 1996-2018 Texas Instruments Incorporated
slnetifwifi.asm                                                      PAGE   45

    2421 00000058 2108              MOVS      A2, #8                ; [DPU_V7M3_PIPE] |327|  ; [ORIG 16-BIT INS]
    2422 0000005a 8001              STRH      A2, [A1, #0]          ; [DPU_V7M3_PIPE] |327|  ; [ORIG 16-BIT INS]
    2423                            .dwpsn  file "/vagrant/Q3_SDK_01/sdk_root/source/ti/drivers/net/wifi/slnetif/slnetifwifi.c",li
    2424                    ;----------------------------------------------------------------------
    2425                    ; 328 | break;                                                                 
    2426                    ; 331 | default:                                                               
    2427                    ;----------------------------------------------------------------------
    2428 0000005c E023              B         ||$C$L11||            ; [DPU_V7M3_PIPE] |328|  ; [ORIG 16-BIT INS]
    2429                            ; BRANCH OCCURS {||$C$L11||}     ; [] |328| 
    2430                    ;* --------------------------------------------------------------------------*
    2431 0000005e           ||$C$L7||:    
    2432                            .dwpsn  file "/vagrant/Q3_SDK_01/sdk_root/source/ti/drivers/net/wifi/slnetif/slnetifwifi.c",li
    2433                    ;----------------------------------------------------------------------
    2434                    ; 334 | status = sl_GetSockOpt(sd, level, optname, optval, optlen);            
    2435                    ;----------------------------------------------------------------------
    2436 0000005e 980B              LDR       A1, [SP, #44]         ; [DPU_V7M3_PIPE] |334|  ; [ORIG 16-BIT INS]
    2437 00000060 9000              STR       A1, [SP, #0]          ; [DPU_V7M3_PIPE] |334|  ; [ORIG 16-BIT INS]
    2438 00000062 2020F9BD          LDRSH     A3, [SP, #32]         ; [DPU_V7M3_PIPE] |334|  ; [KEEP 32-BIT INS]
    2439 00000066 9B0A              LDR       A4, [SP, #40]         ; [DPU_V7M3_PIPE] |334|  ; [ORIG 16-BIT INS]
    2440 00000068 101EF9BD          LDRSH     A2, [SP, #30]         ; [DPU_V7M3_PIPE] |334|  ; [KEEP 32-BIT INS]
    2441 0000006c 001CF9BD          LDRSH     A1, [SP, #28]         ; [DPU_V7M3_PIPE] |334|  ; [KEEP 32-BIT INS]
    2442                    $C$DW$250       .dwtag  DW_TAG_TI_branch
    2443                            .dwattr $C$DW$250, DW_AT_low_pc(0x00)
    2444                            .dwattr $C$DW$250, DW_AT_name("sl_GetSockOpt")
    2445                            .dwattr $C$DW$250, DW_AT_TI_call
    2446                    
    2447 00000070 FFFEF7FF!         BL        sl_GetSockOpt         ; [DPU_V7M3_PIPE] |334|  ; [KEEP 32-BIT INS]
    2448                            ; CALL OCCURS {sl_GetSockOpt }   ; [] |334| 
    2449 00000074 9005              STR       A1, [SP, #20]         ; [DPU_V7M3_PIPE] |334|  ; [ORIG 16-BIT INS]
    2450                            .dwpsn  file "/vagrant/Q3_SDK_01/sdk_root/source/ti/drivers/net/wifi/slnetif/slnetifwifi.c",li
    2451                    ;----------------------------------------------------------------------
    2452                    ; 335 | break;                                                                 
    2453                    ; 339 | break;                                                                 
    2454                    ; 341 | default:                                                               
    2455                    ;----------------------------------------------------------------------
    2456 00000076 E016              B         ||$C$L11||            ; [DPU_V7M3_PIPE] |335|  ; [ORIG 16-BIT INS]
    2457                            ; BRANCH OCCURS {||$C$L11||}     ; [] |335| 
    2458                    ;* --------------------------------------------------------------------------*
    2459                    ;* --------------------------------------------------------------------------*
    2460 00000078           ||$C$L8||:    
    2461                            .dwpsn  file "/vagrant/Q3_SDK_01/sdk_root/source/ti/drivers/net/wifi/slnetif/slnetifwifi.c",li
    2462 00000078 0020F9BD          LDRSH     A1, [SP, #32]         ; [DPU_V7M3_PIPE] |312|  ; [KEEP 32-BIT INS]
    2463 0000007c 3814              SUBS      A1, A1, #20           ; [DPU_V7M3_PIPE] |312|  ; [ORIG 16-BIT INS]
    2464 0000007e D0CC              BEQ       ||$C$L5||             ; [DPU_V7M3_PIPE] |312|  ; [ORIG 16-BIT INS]
    2465                            ; BRANCHCC OCCURS {||$C$L5||}    ; [] |312| 
    2466                    ;* --------------------------------------------------------------------------*
    2467 00000080 E7ED              B         ||$C$L7||             ; [DPU_V7M3_PIPE] |312|  ; [ORIG 16-BIT INS]
    2468                            ; BRANCH OCCURS {||$C$L7||}      ; [] |312| 
    2469                    ;* --------------------------------------------------------------------------*
    2470                    ;* --------------------------------------------------------------------------*
    2471 00000082           ||$C$L9||:    
    2472                            .dwpsn  file "/vagrant/Q3_SDK_01/sdk_root/source/ti/drivers/net/wifi/slnetif/slnetifwifi.c",li
    2473                    ;----------------------------------------------------------------------
    2474                    ; 344 | status = sl_GetSockOpt(sd, level, optname, optval, optlen);            
    2475                    ;----------------------------------------------------------------------
TI ARM Assembler Unix v20.2.1 Wed Sep 16 12:09:21 2020

Copyright (c) 1996-2018 Texas Instruments Incorporated
slnetifwifi.asm                                                      PAGE   46

    2476 00000082 980B              LDR       A1, [SP, #44]         ; [DPU_V7M3_PIPE] |344|  ; [ORIG 16-BIT INS]
    2477 00000084 9000              STR       A1, [SP, #0]          ; [DPU_V7M3_PIPE] |344|  ; [ORIG 16-BIT INS]
    2478 00000086 2020F9BD          LDRSH     A3, [SP, #32]         ; [DPU_V7M3_PIPE] |344|  ; [KEEP 32-BIT INS]
    2479 0000008a 9B0A              LDR       A4, [SP, #40]         ; [DPU_V7M3_PIPE] |344|  ; [ORIG 16-BIT INS]
    2480 0000008c 101EF9BD          LDRSH     A2, [SP, #30]         ; [DPU_V7M3_PIPE] |344|  ; [KEEP 32-BIT INS]
    2481 00000090 001CF9BD          LDRSH     A1, [SP, #28]         ; [DPU_V7M3_PIPE] |344|  ; [KEEP 32-BIT INS]
    2482                    $C$DW$251       .dwtag  DW_TAG_TI_branch
    2483                            .dwattr $C$DW$251, DW_AT_low_pc(0x00)
    2484                            .dwattr $C$DW$251, DW_AT_name("sl_GetSockOpt")
    2485                            .dwattr $C$DW$251, DW_AT_TI_call
    2486                    
    2487 00000094 FFFEF7FF!         BL        sl_GetSockOpt         ; [DPU_V7M3_PIPE] |344|  ; [KEEP 32-BIT INS]
    2488                            ; CALL OCCURS {sl_GetSockOpt }   ; [] |344| 
    2489 00000098 9005              STR       A1, [SP, #20]         ; [DPU_V7M3_PIPE] |344|  ; [ORIG 16-BIT INS]
    2490                            .dwpsn  file "/vagrant/Q3_SDK_01/sdk_root/source/ti/drivers/net/wifi/slnetif/slnetifwifi.c",li
    2491                    ;----------------------------------------------------------------------
    2492                    ; 345 | break;                                                                 
    2493                    ;----------------------------------------------------------------------
    2494 0000009a E004              B         ||$C$L11||            ; [DPU_V7M3_PIPE] |345|  ; [ORIG 16-BIT INS]
    2495                            ; BRANCH OCCURS {||$C$L11||}     ; [] |345| 
    2496                    ;* --------------------------------------------------------------------------*
    2497                    ;* --------------------------------------------------------------------------*
    2498 0000009c           ||$C$L10||:    
    2499                            .dwpsn  file "/vagrant/Q3_SDK_01/sdk_root/source/ti/drivers/net/wifi/slnetif/slnetifwifi.c",li
    2500 0000009c 001EF9BD          LDRSH     A1, [SP, #30]         ; [DPU_V7M3_PIPE] |308|  ; [KEEP 32-BIT INS]
    2501 000000a0 1E40              SUBS      A1, A1, #1            ; [DPU_V7M3_PIPE] |308|  ; [ORIG 16-BIT INS]
    2502 000000a2 D0E9              BEQ       ||$C$L8||             ; [DPU_V7M3_PIPE] |308|  ; [ORIG 16-BIT INS]
    2503                            ; BRANCHCC OCCURS {||$C$L8||}    ; [] |308| 
    2504                    ;* --------------------------------------------------------------------------*
    2505 000000a4 E7ED              B         ||$C$L9||             ; [DPU_V7M3_PIPE] |308|  ; [ORIG 16-BIT INS]
    2506                            ; BRANCH OCCURS {||$C$L9||}      ; [] |308| 
    2507                    ;* --------------------------------------------------------------------------*
    2508 000000a6           ||$C$L11||:    
    2509                            .dwpsn  file "/vagrant/Q3_SDK_01/sdk_root/source/ti/drivers/net/wifi/slnetif/slnetifwifi.c",li
    2510                    ;----------------------------------------------------------------------
    2511                    ; 349 | return (status);                                                       
    2512                    ;----------------------------------------------------------------------
    2513 000000a6 9805              LDR       A1, [SP, #20]         ; [DPU_V7M3_PIPE] |349|  ; [ORIG 16-BIT INS]
    2514                    ;* --------------------------------------------------------------------------*
    2515 000000a8           ||$C$L12||:    
    2516                            .dwpsn  file "/vagrant/Q3_SDK_01/sdk_root/source/ti/drivers/net/wifi/slnetif/slnetifwifi.c",li
    2517 000000a8 B009              ADD       SP, SP, #36           ; [DPU_V7M3_PIPE]  ; [ORIG 16-BIT INS]
    2518                            .dwcfi  cfa_offset, 4
    2519                    $C$DW$252       .dwtag  DW_TAG_TI_branch
    2520                            .dwattr $C$DW$252, DW_AT_low_pc(0x00)
    2521                            .dwattr $C$DW$252, DW_AT_TI_return
    2522                    
    2523 000000aa BD00              POP       {PC}                  ; [DPU_V7M3_PIPE]  ; [ORIG 16-BIT INS]
    2524                            .dwcfi  cfa_offset, 0
    2525                            ; BRANCH OCCURS                  ; [] 
    2526                            .dwattr $C$DW$234, DW_AT_TI_end_file("/vagrant/Q3_SDK_01/sdk_root/source/ti/drivers/net/wifi/s
    2527                            .dwattr $C$DW$234, DW_AT_TI_end_line(0x15e)
    2528                            .dwattr $C$DW$234, DW_AT_TI_end_column(0x01)
    2529                            .dwendentry
    2530                            .dwendtag $C$DW$234
TI ARM Assembler Unix v20.2.1 Wed Sep 16 12:09:21 2020

Copyright (c) 1996-2018 Texas Instruments Incorporated
slnetifwifi.asm                                                      PAGE   47

    2531                    
    2532 00000000                   .sect   ".text:SlNetIfWifi_recv"
    2533                            .clink
    2534                            .thumbfunc SlNetIfWifi_recv
    2535 00000000                   .thumb
    2536                            .global SlNetIfWifi_recv
    2537                    
    2538                    $C$DW$253       .dwtag  DW_TAG_subprogram
    2539                            .dwattr $C$DW$253, DW_AT_name("SlNetIfWifi_recv")
    2540                            .dwattr $C$DW$253, DW_AT_low_pc(SlNetIfWifi_recv)
    2541                            .dwattr $C$DW$253, DW_AT_high_pc(0x00)
    2542                            .dwattr $C$DW$253, DW_AT_TI_symbol_name("SlNetIfWifi_recv")
    2543                            .dwattr $C$DW$253, DW_AT_external
    2544                            .dwattr $C$DW$253, DW_AT_type(*$C$DW$T$340)
    2545                            .dwattr $C$DW$253, DW_AT_TI_begin_file("/vagrant/Q3_SDK_01/sdk_root/source/ti/drivers/net/wifi
    2546                            .dwattr $C$DW$253, DW_AT_TI_begin_line(0x166)
    2547                            .dwattr $C$DW$253, DW_AT_TI_begin_column(0x09)
    2548                            .dwattr $C$DW$253, DW_AT_decl_file("/vagrant/Q3_SDK_01/sdk_root/source/ti/drivers/net/wifi/sln
    2549                            .dwattr $C$DW$253, DW_AT_decl_line(0x166)
    2550                            .dwattr $C$DW$253, DW_AT_decl_column(0x09)
    2551                            .dwattr $C$DW$253, DW_AT_TI_max_frame_size(0x18)
    2552                            .dwpsn  file "/vagrant/Q3_SDK_01/sdk_root/source/ti/drivers/net/wifi/slnetif/slnetifwifi.c",li
    2553                    
    2554                            .dwfde $C$DW$CIE, SlNetIfWifi_recv
    2555                    $C$DW$254       .dwtag  DW_TAG_formal_parameter
    2556                            .dwattr $C$DW$254, DW_AT_name("sd")
    2557                            .dwattr $C$DW$254, DW_AT_TI_symbol_name("sd")
    2558                            .dwattr $C$DW$254, DW_AT_type(*$C$DW$T$10)
    2559                            .dwattr $C$DW$254, DW_AT_location[DW_OP_reg0]
    2560                    
    2561                    $C$DW$255       .dwtag  DW_TAG_formal_parameter
    2562                            .dwattr $C$DW$255, DW_AT_name("sdContext")
    2563                            .dwattr $C$DW$255, DW_AT_TI_symbol_name("sdContext")
    2564                            .dwattr $C$DW$255, DW_AT_type(*$C$DW$T$3)
    2565                            .dwattr $C$DW$255, DW_AT_location[DW_OP_reg1]
    2566                    
    2567                    $C$DW$256       .dwtag  DW_TAG_formal_parameter
    2568                            .dwattr $C$DW$256, DW_AT_name("buf")
    2569                            .dwattr $C$DW$256, DW_AT_TI_symbol_name("buf")
    2570                            .dwattr $C$DW$256, DW_AT_type(*$C$DW$T$3)
    2571                            .dwattr $C$DW$256, DW_AT_location[DW_OP_reg2]
    2572                    
    2573                    $C$DW$257       .dwtag  DW_TAG_formal_parameter
    2574                            .dwattr $C$DW$257, DW_AT_name("len")
    2575                            .dwattr $C$DW$257, DW_AT_TI_symbol_name("len")
    2576                            .dwattr $C$DW$257, DW_AT_type(*$C$DW$T$35)
    2577                            .dwattr $C$DW$257, DW_AT_location[DW_OP_reg3]
    2578                    
    2579                    $C$DW$258       .dwtag  DW_TAG_formal_parameter
    2580                            .dwattr $C$DW$258, DW_AT_name("flags")
    2581                            .dwattr $C$DW$258, DW_AT_TI_symbol_name("flags")
    2582                            .dwattr $C$DW$258, DW_AT_type(*$C$DW$T$35)
    2583                            .dwattr $C$DW$258, DW_AT_location[DW_OP_breg13 24]
    2584                    
    2585                    ;----------------------------------------------------------------------
TI ARM Assembler Unix v20.2.1 Wed Sep 16 12:09:21 2020

Copyright (c) 1996-2018 Texas Instruments Incorporated
slnetifwifi.asm                                                      PAGE   48

    2586                    ; 358 | int32_t SlNetIfWifi_recv(int16_t sd, void *sdContext, void *buf, uint32
    2587                    ;     | _t len, uint32_t flags)                                                
    2588                    ;----------------------------------------------------------------------
    2589                    
    2590                    ;*****************************************************************************
    2591                    ;* FUNCTION NAME: SlNetIfWifi_recv                                           *
    2592                    ;*                                                                           *
    2593                    ;*   Regs Modified     : A1,A2,A3,A4,V4,V9,SP,LR,SR                          *
    2594                    ;*   Regs Used         : A1,A2,A3,A4,V4,V9,SP,LR,SR                          *
    2595                    ;*   Local Frame Size  : 0 Args + 16 Auto + 8 Save = 24 byte                 *
    2596                    ;*****************************************************************************
    2597 00000000           SlNetIfWifi_recv:
    2598                    ;* --------------------------------------------------------------------------*
    2599                            .dwcfi  cfa_offset, 0
    2600 00000000 B58F              PUSH      {A1, A2, A3, A4, V4, LR} ; [DPU_V7M3_PIPE]  ; [ORIG 16-BIT INS]
    2601                            .dwcfi  cfa_offset, 24
    2602                            .dwcfi  save_reg_to_mem, 14, -4
    2603                            .dwcfi  save_reg_to_mem, 7, -8
    2604                            .dwcfi  save_reg_to_mem, 3, -12
    2605                            .dwcfi  save_reg_to_mem, 2, -16
    2606                            .dwcfi  save_reg_to_mem, 1, -20
    2607                            .dwcfi  save_reg_to_mem, 0, -24
    2608 00000002 AF06              ADD       V4, SP, #24           ; [DPU_V7M3_PIPE]  ; [ORIG 16-BIT INS]
    2609                    $C$DW$259       .dwtag  DW_TAG_variable
    2610                            .dwattr $C$DW$259, DW_AT_name("sdContext")
    2611                            .dwattr $C$DW$259, DW_AT_TI_symbol_name("sdContext")
    2612                            .dwattr $C$DW$259, DW_AT_type(*$C$DW$T$3)
    2613                            .dwattr $C$DW$259, DW_AT_location[DW_OP_breg13 0]
    2614                    
    2615                    $C$DW$260       .dwtag  DW_TAG_variable
    2616                            .dwattr $C$DW$260, DW_AT_name("buf")
    2617                            .dwattr $C$DW$260, DW_AT_TI_symbol_name("buf")
    2618                            .dwattr $C$DW$260, DW_AT_type(*$C$DW$T$3)
    2619                            .dwattr $C$DW$260, DW_AT_location[DW_OP_breg13 4]
    2620                    
    2621                    $C$DW$261       .dwtag  DW_TAG_variable
    2622                            .dwattr $C$DW$261, DW_AT_name("len")
    2623                            .dwattr $C$DW$261, DW_AT_TI_symbol_name("len")
    2624                            .dwattr $C$DW$261, DW_AT_type(*$C$DW$T$35)
    2625                            .dwattr $C$DW$261, DW_AT_location[DW_OP_breg13 8]
    2626                    
    2627                    $C$DW$262       .dwtag  DW_TAG_variable
    2628                            .dwattr $C$DW$262, DW_AT_name("sd")
    2629                            .dwattr $C$DW$262, DW_AT_TI_symbol_name("sd")
    2630                            .dwattr $C$DW$262, DW_AT_type(*$C$DW$T$344)
    2631                            .dwattr $C$DW$262, DW_AT_location[DW_OP_breg13 12]
    2632                    
    2633 00000004 9302              STR       A4, [SP, #8]          ; [DPU_V7M3_PIPE] |359|  ; [ORIG 16-BIT INS]
    2634 00000006 9201              STR       A3, [SP, #4]          ; [DPU_V7M3_PIPE] |359|  ; [ORIG 16-BIT INS]
    2635 00000008 9100              STR       A2, [SP, #0]          ; [DPU_V7M3_PIPE] |359|  ; [ORIG 16-BIT INS]
    2636 0000000a 000CF8AD          STRH      A1, [SP, #12]         ; [DPU_V7M3_PIPE] |359|  ; [KEEP 32-BIT INS]
    2637                            .dwpsn  file "/vagrant/Q3_SDK_01/sdk_root/source/ti/drivers/net/wifi/slnetif/slnetifwifi.c",li
    2638                    ;----------------------------------------------------------------------
    2639                    ; 360 | DISABLE_SEC_BITS_FROM_INPUT_FLAGS(flags);                              
    2640                    ;----------------------------------------------------------------------
TI ARM Assembler Unix v20.2.1 Wed Sep 16 12:09:21 2020

Copyright (c) 1996-2018 Texas Instruments Incorporated
slnetifwifi.asm                                                      PAGE   49

    2641 0000000e 6838              LDR       A1, [V4, #0]          ; [DPU_V7M3_PIPE] |360|  ; [ORIG 16-BIT INS]
    2642 00000010 407FF020          BIC       A1, A1, #-16777216    ; [DPU_V7M3_PIPE] |360|  ; [KEEP 32-BIT INS]
    2643 00000014 6038              STR       A1, [V4, #0]          ; [DPU_V7M3_PIPE] |360|  ; [ORIG 16-BIT INS]
    2644                            .dwpsn  file "/vagrant/Q3_SDK_01/sdk_root/source/ti/drivers/net/wifi/slnetif/slnetifwifi.c",li
    2645                    ;----------------------------------------------------------------------
    2646                    ; 361 | return sl_Recv(sd, buf, len, flags);                                   
    2647                    ;----------------------------------------------------------------------
    2648 00000016 000CF9BD          LDRSH     A1, [SP, #12]         ; [DPU_V7M3_PIPE] |361|  ; [KEEP 32-BIT INS]
    2649 0000001a 2008F9BD          LDRSH     A3, [SP, #8]          ; [DPU_V7M3_PIPE] |361|  ; [KEEP 32-BIT INS]
    2650 0000001e 3000F9B7          LDRSH     A4, [V4, #0]          ; [DPU_V7M3_PIPE] |361|  ; [KEEP 32-BIT INS]
    2651 00000022 9901              LDR       A2, [SP, #4]          ; [DPU_V7M3_PIPE] |361|  ; [ORIG 16-BIT INS]
    2652                    $C$DW$263       .dwtag  DW_TAG_TI_branch
    2653                            .dwattr $C$DW$263, DW_AT_low_pc(0x00)
    2654                            .dwattr $C$DW$263, DW_AT_name("sl_Recv")
    2655                            .dwattr $C$DW$263, DW_AT_TI_call
    2656                    
    2657 00000024 FFFEF7FF!         BL        sl_Recv               ; [DPU_V7M3_PIPE] |361|  ; [KEEP 32-BIT INS]
    2658                            ; CALL OCCURS {sl_Recv }         ; [] |361| 
    2659                            .dwpsn  file "/vagrant/Q3_SDK_01/sdk_root/source/ti/drivers/net/wifi/slnetif/slnetifwifi.c",li
    2660 00000028 9000              STR       A1, [SP, #0]          ; [DPU_V7M3_PIPE]  ; [ORIG 16-BIT INS]
    2661                    $C$DW$264       .dwtag  DW_TAG_TI_branch
    2662                            .dwattr $C$DW$264, DW_AT_low_pc(0x00)
    2663                            .dwattr $C$DW$264, DW_AT_TI_return
    2664                    
    2665 0000002a BD8F              POP       {A1, A2, A3, A4, V4, PC} ; [DPU_V7M3_PIPE]  ; [ORIG 16-BIT INS]
    2666                            .dwcfi  cfa_offset, 0
    2667                            .dwcfi  restore_reg, 7
    2668                            .dwcfi  restore_reg, 3
    2669                            .dwcfi  restore_reg, 2
    2670                            .dwcfi  restore_reg, 1
    2671                            .dwcfi  restore_reg, 0
    2672                            ; BRANCH OCCURS                  ; [] 
    2673                            .dwattr $C$DW$253, DW_AT_TI_end_file("/vagrant/Q3_SDK_01/sdk_root/source/ti/drivers/net/wifi/s
    2674                            .dwattr $C$DW$253, DW_AT_TI_end_line(0x16a)
    2675                            .dwattr $C$DW$253, DW_AT_TI_end_column(0x01)
    2676                            .dwendentry
    2677                            .dwendtag $C$DW$253
    2678                    
    2679 00000000                   .sect   ".text:SlNetIfWifi_recvFrom"
    2680                            .clink
    2681                            .thumbfunc SlNetIfWifi_recvFrom
    2682 00000000                   .thumb
    2683                            .global SlNetIfWifi_recvFrom
    2684                    
    2685                    $C$DW$265       .dwtag  DW_TAG_subprogram
    2686                            .dwattr $C$DW$265, DW_AT_name("SlNetIfWifi_recvFrom")
    2687                            .dwattr $C$DW$265, DW_AT_low_pc(SlNetIfWifi_recvFrom)
    2688                            .dwattr $C$DW$265, DW_AT_high_pc(0x00)
    2689                            .dwattr $C$DW$265, DW_AT_TI_symbol_name("SlNetIfWifi_recvFrom")
    2690                            .dwattr $C$DW$265, DW_AT_external
    2691                            .dwattr $C$DW$265, DW_AT_type(*$C$DW$T$340)
    2692                            .dwattr $C$DW$265, DW_AT_TI_begin_file("/vagrant/Q3_SDK_01/sdk_root/source/ti/drivers/net/wifi
    2693                            .dwattr $C$DW$265, DW_AT_TI_begin_line(0x172)
    2694                            .dwattr $C$DW$265, DW_AT_TI_begin_column(0x09)
    2695                            .dwattr $C$DW$265, DW_AT_decl_file("/vagrant/Q3_SDK_01/sdk_root/source/ti/drivers/net/wifi/sln
TI ARM Assembler Unix v20.2.1 Wed Sep 16 12:09:21 2020

Copyright (c) 1996-2018 Texas Instruments Incorporated
slnetifwifi.asm                                                      PAGE   50

    2696                            .dwattr $C$DW$265, DW_AT_decl_line(0x172)
    2697                            .dwattr $C$DW$265, DW_AT_decl_column(0x09)
    2698                            .dwattr $C$DW$265, DW_AT_TI_max_frame_size(0x20)
    2699                            .dwpsn  file "/vagrant/Q3_SDK_01/sdk_root/source/ti/drivers/net/wifi/slnetif/slnetifwifi.c",li
    2700                    
    2701                            .dwfde $C$DW$CIE, SlNetIfWifi_recvFrom
    2702                    $C$DW$266       .dwtag  DW_TAG_formal_parameter
    2703                            .dwattr $C$DW$266, DW_AT_name("sd")
    2704                            .dwattr $C$DW$266, DW_AT_TI_symbol_name("sd")
    2705                            .dwattr $C$DW$266, DW_AT_type(*$C$DW$T$10)
    2706                            .dwattr $C$DW$266, DW_AT_location[DW_OP_reg0]
    2707                    
    2708                    $C$DW$267       .dwtag  DW_TAG_formal_parameter
    2709                            .dwattr $C$DW$267, DW_AT_name("sdContext")
    2710                            .dwattr $C$DW$267, DW_AT_TI_symbol_name("sdContext")
    2711                            .dwattr $C$DW$267, DW_AT_type(*$C$DW$T$3)
    2712                            .dwattr $C$DW$267, DW_AT_location[DW_OP_reg1]
    2713                    
    2714                    $C$DW$268       .dwtag  DW_TAG_formal_parameter
    2715                            .dwattr $C$DW$268, DW_AT_name("buf")
    2716                            .dwattr $C$DW$268, DW_AT_TI_symbol_name("buf")
    2717                            .dwattr $C$DW$268, DW_AT_type(*$C$DW$T$3)
    2718                            .dwattr $C$DW$268, DW_AT_location[DW_OP_reg2]
    2719                    
    2720                    $C$DW$269       .dwtag  DW_TAG_formal_parameter
    2721                            .dwattr $C$DW$269, DW_AT_name("len")
    2722                            .dwattr $C$DW$269, DW_AT_TI_symbol_name("len")
    2723                            .dwattr $C$DW$269, DW_AT_type(*$C$DW$T$35)
    2724                            .dwattr $C$DW$269, DW_AT_location[DW_OP_reg3]
    2725                    
    2726                    $C$DW$270       .dwtag  DW_TAG_formal_parameter
    2727                            .dwattr $C$DW$270, DW_AT_name("flags")
    2728                            .dwattr $C$DW$270, DW_AT_TI_symbol_name("flags")
    2729                            .dwattr $C$DW$270, DW_AT_type(*$C$DW$T$35)
    2730                            .dwattr $C$DW$270, DW_AT_location[DW_OP_breg13 32]
    2731                    
    2732                    $C$DW$271       .dwtag  DW_TAG_formal_parameter
    2733                            .dwattr $C$DW$271, DW_AT_name("from")
    2734                            .dwattr $C$DW$271, DW_AT_TI_symbol_name("from")
    2735                            .dwattr $C$DW$271, DW_AT_type(*$C$DW$T$355)
    2736                            .dwattr $C$DW$271, DW_AT_location[DW_OP_breg13 36]
    2737                    
    2738                    $C$DW$272       .dwtag  DW_TAG_formal_parameter
    2739                            .dwattr $C$DW$272, DW_AT_name("fromlen")
    2740                            .dwattr $C$DW$272, DW_AT_TI_symbol_name("fromlen")
    2741                            .dwattr $C$DW$272, DW_AT_type(*$C$DW$T$357)
    2742                            .dwattr $C$DW$272, DW_AT_location[DW_OP_breg13 40]
    2743                    
    2744                    ;----------------------------------------------------------------------
    2745                    ; 370 | int32_t SlNetIfWifi_recvFrom(int16_t sd, void *sdContext, void *buf, ui
    2746                    ;     | nt32_t len, uint32_t flags, SlNetSock_Addr_t *from, SlNetSocklen_t *fro
    2747                    ;     | mlen)                                                                  
    2748                    ;----------------------------------------------------------------------
    2749                    
    2750                    ;*****************************************************************************
TI ARM Assembler Unix v20.2.1 Wed Sep 16 12:09:21 2020

Copyright (c) 1996-2018 Texas Instruments Incorporated
slnetifwifi.asm                                                      PAGE   51

    2751                    ;* FUNCTION NAME: SlNetIfWifi_recvFrom                                       *
    2752                    ;*                                                                           *
    2753                    ;*   Regs Modified     : A1,A2,A3,A4,V4,V9,SP,LR,SR                          *
    2754                    ;*   Regs Used         : A1,A2,A3,A4,V4,V9,SP,LR,SR                          *
    2755                    ;*   Local Frame Size  : 8 Args + 16 Auto + 8 Save = 32 byte                 *
    2756                    ;*****************************************************************************
    2757 00000000           SlNetIfWifi_recvFrom:
    2758                    ;* --------------------------------------------------------------------------*
    2759                            .dwcfi  cfa_offset, 0
    2760 00000000 B580              PUSH      {V4, LR}              ; [DPU_V7M3_PIPE]  ; [ORIG 16-BIT INS]
    2761                            .dwcfi  cfa_offset, 8
    2762                            .dwcfi  save_reg_to_mem, 14, -4
    2763                            .dwcfi  save_reg_to_mem, 7, -8
    2764 00000002 AF02              ADD       V4, SP, #8            ; [DPU_V7M3_PIPE]  ; [ORIG 16-BIT INS]
    2765 00000004 0D18F1AD          SUB       SP, SP, #24           ; [DPU_V7M3_PIPE]  ; [KEEP 32-BIT INS]
    2766                            .dwcfi  cfa_offset, 32
    2767                    $C$DW$273       .dwtag  DW_TAG_variable
    2768                            .dwattr $C$DW$273, DW_AT_name("sdContext")
    2769                            .dwattr $C$DW$273, DW_AT_TI_symbol_name("sdContext")
    2770                            .dwattr $C$DW$273, DW_AT_type(*$C$DW$T$3)
    2771                            .dwattr $C$DW$273, DW_AT_location[DW_OP_breg13 8]
    2772                    
    2773                    $C$DW$274       .dwtag  DW_TAG_variable
    2774                            .dwattr $C$DW$274, DW_AT_name("buf")
    2775                            .dwattr $C$DW$274, DW_AT_TI_symbol_name("buf")
    2776                            .dwattr $C$DW$274, DW_AT_type(*$C$DW$T$3)
    2777                            .dwattr $C$DW$274, DW_AT_location[DW_OP_breg13 12]
    2778                    
    2779                    $C$DW$275       .dwtag  DW_TAG_variable
    2780                            .dwattr $C$DW$275, DW_AT_name("len")
    2781                            .dwattr $C$DW$275, DW_AT_TI_symbol_name("len")
    2782                            .dwattr $C$DW$275, DW_AT_type(*$C$DW$T$35)
    2783                            .dwattr $C$DW$275, DW_AT_location[DW_OP_breg13 16]
    2784                    
    2785                    $C$DW$276       .dwtag  DW_TAG_variable
    2786                            .dwattr $C$DW$276, DW_AT_name("sd")
    2787                            .dwattr $C$DW$276, DW_AT_TI_symbol_name("sd")
    2788                            .dwattr $C$DW$276, DW_AT_type(*$C$DW$T$344)
    2789                            .dwattr $C$DW$276, DW_AT_location[DW_OP_breg13 20]
    2790                    
    2791 00000008 9304              STR       A4, [SP, #16]         ; [DPU_V7M3_PIPE] |371|  ; [ORIG 16-BIT INS]
    2792 0000000a 9203              STR       A3, [SP, #12]         ; [DPU_V7M3_PIPE] |371|  ; [ORIG 16-BIT INS]
    2793 0000000c 9102              STR       A2, [SP, #8]          ; [DPU_V7M3_PIPE] |371|  ; [ORIG 16-BIT INS]
    2794 0000000e 0014F8AD          STRH      A1, [SP, #20]         ; [DPU_V7M3_PIPE] |371|  ; [KEEP 32-BIT INS]
    2795                            .dwpsn  file "/vagrant/Q3_SDK_01/sdk_root/source/ti/drivers/net/wifi/slnetif/slnetifwifi.c",li
    2796                    ;----------------------------------------------------------------------
    2797                    ; 372 | DISABLE_SEC_BITS_FROM_INPUT_FLAGS(flags);                              
    2798                    ;----------------------------------------------------------------------
    2799 00000012 6838              LDR       A1, [V4, #0]          ; [DPU_V7M3_PIPE] |372|  ; [ORIG 16-BIT INS]
    2800 00000014 407FF020          BIC       A1, A1, #-16777216    ; [DPU_V7M3_PIPE] |372|  ; [KEEP 32-BIT INS]
    2801 00000018 6038              STR       A1, [V4, #0]          ; [DPU_V7M3_PIPE] |372|  ; [ORIG 16-BIT INS]
    2802                            .dwpsn  file "/vagrant/Q3_SDK_01/sdk_root/source/ti/drivers/net/wifi/slnetif/slnetifwifi.c",li
    2803                    ;----------------------------------------------------------------------
    2804                    ; 373 | return sl_RecvFrom(sd, buf, len, flags, (SlSockAddr_t *)from, fromlen);
    2805                    ;----------------------------------------------------------------------
TI ARM Assembler Unix v20.2.1 Wed Sep 16 12:09:21 2020

Copyright (c) 1996-2018 Texas Instruments Incorporated
slnetifwifi.asm                                                      PAGE   52

    2806 0000001a 6878              LDR       A1, [V4, #4]          ; [DPU_V7M3_PIPE] |373|  ; [ORIG 16-BIT INS]
    2807 0000001c 9000              STR       A1, [SP, #0]          ; [DPU_V7M3_PIPE] |373|  ; [ORIG 16-BIT INS]
    2808 0000001e 68B8              LDR       A1, [V4, #8]          ; [DPU_V7M3_PIPE] |373|  ; [ORIG 16-BIT INS]
    2809 00000020 9001              STR       A1, [SP, #4]          ; [DPU_V7M3_PIPE] |373|  ; [ORIG 16-BIT INS]
    2810 00000022 2010F9BD          LDRSH     A3, [SP, #16]         ; [DPU_V7M3_PIPE] |373|  ; [KEEP 32-BIT INS]
    2811 00000026 3000F9B7          LDRSH     A4, [V4, #0]          ; [DPU_V7M3_PIPE] |373|  ; [KEEP 32-BIT INS]
    2812 0000002a 9903              LDR       A2, [SP, #12]         ; [DPU_V7M3_PIPE] |373|  ; [ORIG 16-BIT INS]
    2813 0000002c 0014F9BD          LDRSH     A1, [SP, #20]         ; [DPU_V7M3_PIPE] |373|  ; [KEEP 32-BIT INS]
    2814                    $C$DW$277       .dwtag  DW_TAG_TI_branch
    2815                            .dwattr $C$DW$277, DW_AT_low_pc(0x00)
    2816                            .dwattr $C$DW$277, DW_AT_name("sl_RecvFrom")
    2817                            .dwattr $C$DW$277, DW_AT_TI_call
    2818                    
    2819 00000030 FFFEF7FF!         BL        sl_RecvFrom           ; [DPU_V7M3_PIPE] |373|  ; [KEEP 32-BIT INS]
    2820                            ; CALL OCCURS {sl_RecvFrom }     ; [] |373| 
    2821                            .dwpsn  file "/vagrant/Q3_SDK_01/sdk_root/source/ti/drivers/net/wifi/slnetif/slnetifwifi.c",li
    2822 00000034 B006              ADD       SP, SP, #24           ; [DPU_V7M3_PIPE]  ; [ORIG 16-BIT INS]
    2823                            .dwcfi  cfa_offset, 8
    2824                    $C$DW$278       .dwtag  DW_TAG_TI_branch
    2825                            .dwattr $C$DW$278, DW_AT_low_pc(0x00)
    2826                            .dwattr $C$DW$278, DW_AT_TI_return
    2827                    
    2828 00000036 BD80              POP       {V4, PC}              ; [DPU_V7M3_PIPE]  ; [ORIG 16-BIT INS]
    2829                            .dwcfi  cfa_offset, 0
    2830                            .dwcfi  restore_reg, 7
    2831                            ; BRANCH OCCURS                  ; [] 
    2832                            .dwattr $C$DW$265, DW_AT_TI_end_file("/vagrant/Q3_SDK_01/sdk_root/source/ti/drivers/net/wifi/s
    2833                            .dwattr $C$DW$265, DW_AT_TI_end_line(0x176)
    2834                            .dwattr $C$DW$265, DW_AT_TI_end_column(0x01)
    2835                            .dwendentry
    2836                            .dwendtag $C$DW$265
    2837                    
    2838 00000000                   .sect   ".text:SlNetIfWifi_send"
    2839                            .clink
    2840                            .thumbfunc SlNetIfWifi_send
    2841 00000000                   .thumb
    2842                            .global SlNetIfWifi_send
    2843                    
    2844                    $C$DW$279       .dwtag  DW_TAG_subprogram
    2845                            .dwattr $C$DW$279, DW_AT_name("SlNetIfWifi_send")
    2846                            .dwattr $C$DW$279, DW_AT_low_pc(SlNetIfWifi_send)
    2847                            .dwattr $C$DW$279, DW_AT_high_pc(0x00)
    2848                            .dwattr $C$DW$279, DW_AT_TI_symbol_name("SlNetIfWifi_send")
    2849                            .dwattr $C$DW$279, DW_AT_external
    2850                            .dwattr $C$DW$279, DW_AT_type(*$C$DW$T$340)
    2851                            .dwattr $C$DW$279, DW_AT_TI_begin_file("/vagrant/Q3_SDK_01/sdk_root/source/ti/drivers/net/wifi
    2852                            .dwattr $C$DW$279, DW_AT_TI_begin_line(0x17e)
    2853                            .dwattr $C$DW$279, DW_AT_TI_begin_column(0x09)
    2854                            .dwattr $C$DW$279, DW_AT_decl_file("/vagrant/Q3_SDK_01/sdk_root/source/ti/drivers/net/wifi/sln
    2855                            .dwattr $C$DW$279, DW_AT_decl_line(0x17e)
    2856                            .dwattr $C$DW$279, DW_AT_decl_column(0x09)
    2857                            .dwattr $C$DW$279, DW_AT_TI_max_frame_size(0x18)
    2858                            .dwpsn  file "/vagrant/Q3_SDK_01/sdk_root/source/ti/drivers/net/wifi/slnetif/slnetifwifi.c",li
    2859                    
    2860                            .dwfde $C$DW$CIE, SlNetIfWifi_send
TI ARM Assembler Unix v20.2.1 Wed Sep 16 12:09:21 2020

Copyright (c) 1996-2018 Texas Instruments Incorporated
slnetifwifi.asm                                                      PAGE   53

    2861                    $C$DW$280       .dwtag  DW_TAG_formal_parameter
    2862                            .dwattr $C$DW$280, DW_AT_name("sd")
    2863                            .dwattr $C$DW$280, DW_AT_TI_symbol_name("sd")
    2864                            .dwattr $C$DW$280, DW_AT_type(*$C$DW$T$10)
    2865                            .dwattr $C$DW$280, DW_AT_location[DW_OP_reg0]
    2866                    
    2867                    $C$DW$281       .dwtag  DW_TAG_formal_parameter
    2868                            .dwattr $C$DW$281, DW_AT_name("sdContext")
    2869                            .dwattr $C$DW$281, DW_AT_TI_symbol_name("sdContext")
    2870                            .dwattr $C$DW$281, DW_AT_type(*$C$DW$T$3)
    2871                            .dwattr $C$DW$281, DW_AT_location[DW_OP_reg1]
    2872                    
    2873                    $C$DW$282       .dwtag  DW_TAG_formal_parameter
    2874                            .dwattr $C$DW$282, DW_AT_name("buf")
    2875                            .dwattr $C$DW$282, DW_AT_TI_symbol_name("buf")
    2876                            .dwattr $C$DW$282, DW_AT_type(*$C$DW$T$383)
    2877                            .dwattr $C$DW$282, DW_AT_location[DW_OP_reg2]
    2878                    
    2879                    $C$DW$283       .dwtag  DW_TAG_formal_parameter
    2880                            .dwattr $C$DW$283, DW_AT_name("len")
    2881                            .dwattr $C$DW$283, DW_AT_TI_symbol_name("len")
    2882                            .dwattr $C$DW$283, DW_AT_type(*$C$DW$T$35)
    2883                            .dwattr $C$DW$283, DW_AT_location[DW_OP_reg3]
    2884                    
    2885                    $C$DW$284       .dwtag  DW_TAG_formal_parameter
    2886                            .dwattr $C$DW$284, DW_AT_name("flags")
    2887                            .dwattr $C$DW$284, DW_AT_TI_symbol_name("flags")
    2888                            .dwattr $C$DW$284, DW_AT_type(*$C$DW$T$35)
    2889                            .dwattr $C$DW$284, DW_AT_location[DW_OP_breg13 24]
    2890                    
    2891                    ;----------------------------------------------------------------------
    2892                    ; 382 | int32_t SlNetIfWifi_send(int16_t sd, void *sdContext, const void *buf,
    2893                    ;     | uint32_t len, uint32_t flags)                                          
    2894                    ;----------------------------------------------------------------------
    2895                    
    2896                    ;*****************************************************************************
    2897                    ;* FUNCTION NAME: SlNetIfWifi_send                                           *
    2898                    ;*                                                                           *
    2899                    ;*   Regs Modified     : A1,A2,A3,A4,V4,V9,SP,LR,SR                          *
    2900                    ;*   Regs Used         : A1,A2,A3,A4,V4,V9,SP,LR,SR                          *
    2901                    ;*   Local Frame Size  : 0 Args + 16 Auto + 8 Save = 24 byte                 *
    2902                    ;*****************************************************************************
    2903 00000000           SlNetIfWifi_send:
    2904                    ;* --------------------------------------------------------------------------*
    2905                            .dwcfi  cfa_offset, 0
    2906 00000000 B58F              PUSH      {A1, A2, A3, A4, V4, LR} ; [DPU_V7M3_PIPE]  ; [ORIG 16-BIT INS]
    2907                            .dwcfi  cfa_offset, 24
    2908                            .dwcfi  save_reg_to_mem, 14, -4
    2909                            .dwcfi  save_reg_to_mem, 7, -8
    2910                            .dwcfi  save_reg_to_mem, 3, -12
    2911                            .dwcfi  save_reg_to_mem, 2, -16
    2912                            .dwcfi  save_reg_to_mem, 1, -20
    2913                            .dwcfi  save_reg_to_mem, 0, -24
    2914 00000002 AF06              ADD       V4, SP, #24           ; [DPU_V7M3_PIPE]  ; [ORIG 16-BIT INS]
    2915                    $C$DW$285       .dwtag  DW_TAG_variable
TI ARM Assembler Unix v20.2.1 Wed Sep 16 12:09:21 2020

Copyright (c) 1996-2018 Texas Instruments Incorporated
slnetifwifi.asm                                                      PAGE   54

    2916                            .dwattr $C$DW$285, DW_AT_name("sdContext")
    2917                            .dwattr $C$DW$285, DW_AT_TI_symbol_name("sdContext")
    2918                            .dwattr $C$DW$285, DW_AT_type(*$C$DW$T$3)
    2919                            .dwattr $C$DW$285, DW_AT_location[DW_OP_breg13 0]
    2920                    
    2921                    $C$DW$286       .dwtag  DW_TAG_variable
    2922                            .dwattr $C$DW$286, DW_AT_name("buf")
    2923                            .dwattr $C$DW$286, DW_AT_TI_symbol_name("buf")
    2924                            .dwattr $C$DW$286, DW_AT_type(*$C$DW$T$383)
    2925                            .dwattr $C$DW$286, DW_AT_location[DW_OP_breg13 4]
    2926                    
    2927                    $C$DW$287       .dwtag  DW_TAG_variable
    2928                            .dwattr $C$DW$287, DW_AT_name("len")
    2929                            .dwattr $C$DW$287, DW_AT_TI_symbol_name("len")
    2930                            .dwattr $C$DW$287, DW_AT_type(*$C$DW$T$35)
    2931                            .dwattr $C$DW$287, DW_AT_location[DW_OP_breg13 8]
    2932                    
    2933                    $C$DW$288       .dwtag  DW_TAG_variable
    2934                            .dwattr $C$DW$288, DW_AT_name("sd")
    2935                            .dwattr $C$DW$288, DW_AT_TI_symbol_name("sd")
    2936                            .dwattr $C$DW$288, DW_AT_type(*$C$DW$T$344)
    2937                            .dwattr $C$DW$288, DW_AT_location[DW_OP_breg13 12]
    2938                    
    2939 00000004 9302              STR       A4, [SP, #8]          ; [DPU_V7M3_PIPE] |383|  ; [ORIG 16-BIT INS]
    2940 00000006 9201              STR       A3, [SP, #4]          ; [DPU_V7M3_PIPE] |383|  ; [ORIG 16-BIT INS]
    2941 00000008 9100              STR       A2, [SP, #0]          ; [DPU_V7M3_PIPE] |383|  ; [ORIG 16-BIT INS]
    2942 0000000a 000CF8AD          STRH      A1, [SP, #12]         ; [DPU_V7M3_PIPE] |383|  ; [KEEP 32-BIT INS]
    2943                            .dwpsn  file "/vagrant/Q3_SDK_01/sdk_root/source/ti/drivers/net/wifi/slnetif/slnetifwifi.c",li
    2944                    ;----------------------------------------------------------------------
    2945                    ; 384 | DISABLE_SEC_BITS_FROM_INPUT_FLAGS(flags);                              
    2946                    ;----------------------------------------------------------------------
    2947 0000000e 6838              LDR       A1, [V4, #0]          ; [DPU_V7M3_PIPE] |384|  ; [ORIG 16-BIT INS]
    2948 00000010 407FF020          BIC       A1, A1, #-16777216    ; [DPU_V7M3_PIPE] |384|  ; [KEEP 32-BIT INS]
    2949 00000014 6038              STR       A1, [V4, #0]          ; [DPU_V7M3_PIPE] |384|  ; [ORIG 16-BIT INS]
    2950                            .dwpsn  file "/vagrant/Q3_SDK_01/sdk_root/source/ti/drivers/net/wifi/slnetif/slnetifwifi.c",li
    2951                    ;----------------------------------------------------------------------
    2952                    ; 385 | return sl_Send(sd, buf, len, flags);                                   
    2953                    ;----------------------------------------------------------------------
    2954 00000016 000CF9BD          LDRSH     A1, [SP, #12]         ; [DPU_V7M3_PIPE] |385|  ; [KEEP 32-BIT INS]
    2955 0000001a 2008F9BD          LDRSH     A3, [SP, #8]          ; [DPU_V7M3_PIPE] |385|  ; [KEEP 32-BIT INS]
    2956 0000001e 3000F9B7          LDRSH     A4, [V4, #0]          ; [DPU_V7M3_PIPE] |385|  ; [KEEP 32-BIT INS]
    2957 00000022 9901              LDR       A2, [SP, #4]          ; [DPU_V7M3_PIPE] |385|  ; [ORIG 16-BIT INS]
    2958                    $C$DW$289       .dwtag  DW_TAG_TI_branch
    2959                            .dwattr $C$DW$289, DW_AT_low_pc(0x00)
    2960                            .dwattr $C$DW$289, DW_AT_name("sl_Send")
    2961                            .dwattr $C$DW$289, DW_AT_TI_call
    2962                    
    2963 00000024 FFFEF7FF!         BL        sl_Send               ; [DPU_V7M3_PIPE] |385|  ; [KEEP 32-BIT INS]
    2964                            ; CALL OCCURS {sl_Send }         ; [] |385| 
    2965                            .dwpsn  file "/vagrant/Q3_SDK_01/sdk_root/source/ti/drivers/net/wifi/slnetif/slnetifwifi.c",li
    2966 00000028 9000              STR       A1, [SP, #0]          ; [DPU_V7M3_PIPE]  ; [ORIG 16-BIT INS]
    2967                    $C$DW$290       .dwtag  DW_TAG_TI_branch
    2968                            .dwattr $C$DW$290, DW_AT_low_pc(0x00)
    2969                            .dwattr $C$DW$290, DW_AT_TI_return
    2970                    
TI ARM Assembler Unix v20.2.1 Wed Sep 16 12:09:21 2020

Copyright (c) 1996-2018 Texas Instruments Incorporated
slnetifwifi.asm                                                      PAGE   55

    2971 0000002a BD8F              POP       {A1, A2, A3, A4, V4, PC} ; [DPU_V7M3_PIPE]  ; [ORIG 16-BIT INS]
    2972                            .dwcfi  cfa_offset, 0
    2973                            .dwcfi  restore_reg, 7
    2974                            .dwcfi  restore_reg, 3
    2975                            .dwcfi  restore_reg, 2
    2976                            .dwcfi  restore_reg, 1
    2977                            .dwcfi  restore_reg, 0
    2978                            ; BRANCH OCCURS                  ; [] 
    2979                            .dwattr $C$DW$279, DW_AT_TI_end_file("/vagrant/Q3_SDK_01/sdk_root/source/ti/drivers/net/wifi/s
    2980                            .dwattr $C$DW$279, DW_AT_TI_end_line(0x182)
    2981                            .dwattr $C$DW$279, DW_AT_TI_end_column(0x01)
    2982                            .dwendentry
    2983                            .dwendtag $C$DW$279
    2984                    
    2985 00000000                   .sect   ".text:SlNetIfWifi_sendTo"
    2986                            .clink
    2987                            .thumbfunc SlNetIfWifi_sendTo
    2988 00000000                   .thumb
    2989                            .global SlNetIfWifi_sendTo
    2990                    
    2991                    $C$DW$291       .dwtag  DW_TAG_subprogram
    2992                            .dwattr $C$DW$291, DW_AT_name("SlNetIfWifi_sendTo")
    2993                            .dwattr $C$DW$291, DW_AT_low_pc(SlNetIfWifi_sendTo)
    2994                            .dwattr $C$DW$291, DW_AT_high_pc(0x00)
    2995                            .dwattr $C$DW$291, DW_AT_TI_symbol_name("SlNetIfWifi_sendTo")
    2996                            .dwattr $C$DW$291, DW_AT_external
    2997                            .dwattr $C$DW$291, DW_AT_type(*$C$DW$T$340)
    2998                            .dwattr $C$DW$291, DW_AT_TI_begin_file("/vagrant/Q3_SDK_01/sdk_root/source/ti/drivers/net/wifi
    2999                            .dwattr $C$DW$291, DW_AT_TI_begin_line(0x18a)
    3000                            .dwattr $C$DW$291, DW_AT_TI_begin_column(0x09)
    3001                            .dwattr $C$DW$291, DW_AT_decl_file("/vagrant/Q3_SDK_01/sdk_root/source/ti/drivers/net/wifi/sln
    3002                            .dwattr $C$DW$291, DW_AT_decl_line(0x18a)
    3003                            .dwattr $C$DW$291, DW_AT_decl_column(0x09)
    3004                            .dwattr $C$DW$291, DW_AT_TI_max_frame_size(0x20)
    3005                            .dwpsn  file "/vagrant/Q3_SDK_01/sdk_root/source/ti/drivers/net/wifi/slnetif/slnetifwifi.c",li
    3006                    
    3007                            .dwfde $C$DW$CIE, SlNetIfWifi_sendTo
    3008                    $C$DW$292       .dwtag  DW_TAG_formal_parameter
    3009                            .dwattr $C$DW$292, DW_AT_name("sd")
    3010                            .dwattr $C$DW$292, DW_AT_TI_symbol_name("sd")
