TI ARM Assembler Unix v20.2.1 Wed Sep 16 12:09:22 2020

Copyright (c) 1996-2018 Texas Instruments Incorporated
slwificonn.asm                                                       PAGE    1

       1                    ;******************************************************************************
       2                    ;* TI ARM G3 C/C++ Codegen                                          Unix v20.2.1.LTS *
       3                    ;* Date/Time created: Wed Sep 16 12:09:22 2020                                *
       4                    ;******************************************************************************
       5                            .compiler_opts --abi=eabi --arm_vmrs_si_workaround=off --code_state=16 --embedded_constants=on
       6 00000000                   .thumb
       7                    
       8                    $C$DW$CU        .dwtag  DW_TAG_compile_unit
       9                            .dwattr $C$DW$CU, DW_AT_name("/vagrant/Q3_SDK_01/sdk_root/source/ti/drivers/net/wifi/slnetif/s
      10                            .dwattr $C$DW$CU, DW_AT_producer("TI TI ARM G3 C/C++ Codegen Unix v20.2.1.LTS Copyright (c) 19
      11                            .dwattr $C$DW$CU, DW_AT_TI_version(0x01)
      12                            .dwattr $C$DW$CU, DW_AT_comp_dir("/vagrant/Q3_SDK_01/sdk_root/source/ti/drivers/net/wifi/slnet
      13                            .global g_fNetIfCB
      14 00000000                   .data
      15                            .align  4
      16                            .elfsym g_fNetIfCB,SYM_SIZE(4)
      17 00000000           g_fNetIfCB:
      18 00000000 00000000          .bits           0,32
      19                                            ; g_fNetIfCB @ 0
      20                    
      21                    $C$DW$1 .dwtag  DW_TAG_variable
      22                            .dwattr $C$DW$1, DW_AT_name("g_fNetIfCB")
      23                            .dwattr $C$DW$1, DW_AT_TI_symbol_name("g_fNetIfCB")
      24                            .dwattr $C$DW$1, DW_AT_location[DW_OP_addr g_fNetIfCB]
      25                            .dwattr $C$DW$1, DW_AT_type(*$C$DW$T$486)
      26                            .dwattr $C$DW$1, DW_AT_external
      27                            .dwattr $C$DW$1, DW_AT_decl_file("/vagrant/Q3_SDK_01/sdk_root/source/ti/drivers/net/wifi/slnet
      28                            .dwattr $C$DW$1, DW_AT_decl_line(0xca)
      29                            .dwattr $C$DW$1, DW_AT_decl_column(0x19)
      30                    
      31                            .global g_ifId
      32 00000004                   .data
      33                            .align  2
      34                            .elfsym g_ifId,SYM_SIZE(2)
      35 00000004           g_ifId:
      36 00000004 00000000          .bits           0,16
      37                                            ; g_ifId @ 0
      38                    
      39                    $C$DW$2 .dwtag  DW_TAG_variable
      40                            .dwattr $C$DW$2, DW_AT_name("g_ifId")
      41                            .dwattr $C$DW$2, DW_AT_TI_symbol_name("g_ifId")
      42                            .dwattr $C$DW$2, DW_AT_location[DW_OP_addr g_ifId]
      43                            .dwattr $C$DW$2, DW_AT_type(*$C$DW$T$67)
      44                            .dwattr $C$DW$2, DW_AT_external
      45                            .dwattr $C$DW$2, DW_AT_decl_file("/vagrant/Q3_SDK_01/sdk_root/source/ti/drivers/net/wifi/slnet
      46                            .dwattr $C$DW$2, DW_AT_decl_line(0xcb)
      47                            .dwattr $C$DW$2, DW_AT_decl_column(0x19)
      48                    
      49                            .global g_csLock
      50                            .common g_csLock,28,4
      51                    $C$DW$3 .dwtag  DW_TAG_variable
      52                            .dwattr $C$DW$3, DW_AT_name("g_csLock")
      53                            .dwattr $C$DW$3, DW_AT_TI_symbol_name("g_csLock")
      54                            .dwattr $C$DW$3, DW_AT_location[DW_OP_addr g_csLock]
      55                            .dwattr $C$DW$3, DW_AT_type(*$C$DW$T$782)
TI ARM Assembler Unix v20.2.1 Wed Sep 16 12:09:22 2020

Copyright (c) 1996-2018 Texas Instruments Incorporated
slwificonn.asm                                                       PAGE    2

      56                            .dwattr $C$DW$3, DW_AT_external
      57                            .dwattr $C$DW$3, DW_AT_decl_file("/vagrant/Q3_SDK_01/sdk_root/source/ti/drivers/net/wifi/slnet
      58                            .dwattr $C$DW$3, DW_AT_decl_line(0xce)
      59                            .dwattr $C$DW$3, DW_AT_decl_column(0x19)
      60                    
      61 00000006                   .data
      62                            .align  4
      63                            .elfsym g_ctx,SYM_SIZE(4)
      64 00000008           g_ctx:
      65 00000008 00000000          .bits           0,32
      66                                            ; g_ctx @ 0
      67                    
      68                    $C$DW$4 .dwtag  DW_TAG_variable
      69                            .dwattr $C$DW$4, DW_AT_name("g_ctx")
      70                            .dwattr $C$DW$4, DW_AT_TI_symbol_name("g_ctx")
      71                            .dwattr $C$DW$4, DW_AT_type(*$C$DW$T$681)
      72                            .dwattr $C$DW$4, DW_AT_location[DW_OP_addr g_ctx]
      73                            .dwattr $C$DW$4, DW_AT_decl_file("/vagrant/Q3_SDK_01/sdk_root/source/ti/drivers/net/wifi/slnet
      74                            .dwattr $C$DW$4, DW_AT_decl_line(0x103)
      75                            .dwattr $C$DW$4, DW_AT_decl_column(0x16)
      76                    
      77 00000000                   .sect   ".data:g_settings", RW
      78                            .align  4
      79                            .elfsym g_settings,SYM_SIZE(28)
      80 00000000           g_settings:
      81 00000000 00000003          .bits           0x3,16
      82                                            ; g_settings.connectTimeout @ 0
      83 00000000 00060003          .bits           0x6,16
      84                                            ; g_settings.ipTimeout @ 16
      85 00000004 0000003C          .bits           0x3c,16
      86                                            ; g_settings.reconnectTimeout @ 32
      87 00000004 012C003C          .bits           0x12c,16
      88                                            ; g_settings.provisioningTimeout @ 48
      89 00000008 00000014          .bits           0x14,16
      90                                            ; g_settings.idleMinInterval @ 64
      91 00000008 00780014          .bits           0x78,16
      92                                            ; g_settings.idleMaxInterval @ 80
      93 0000000c 00000000          .bits           0,32
      94                                            ; g_settings.provisioningAP_ssid @ 96
      95 00000010 00000000          .bits           0,8
      96                                            ; g_settings.provisioningAP_secType @ 128
      97 00000010 00000000          .bits           0,24
      98                    
      99 00000014 00000000          .bits           0,32
     100                                            ; g_settings.provisioningAP_password @ 160
     101 00000018 00000000          .bits           0,32
     102                                            ; g_settings.provisioningSC_key @ 192
     103                    
     104                    $C$DW$5 .dwtag  DW_TAG_variable
     105                            .dwattr $C$DW$5, DW_AT_name("g_settings")
     106                            .dwattr $C$DW$5, DW_AT_TI_symbol_name("g_settings")
     107                            .dwattr $C$DW$5, DW_AT_type(*$C$DW$T$678)
     108                            .dwattr $C$DW$5, DW_AT_location[DW_OP_addr g_settings]
     109                            .dwattr $C$DW$5, DW_AT_decl_file("/vagrant/Q3_SDK_01/sdk_root/source/ti/drivers/net/wifi/slnet
     110                            .dwattr $C$DW$5, DW_AT_decl_line(0x106)
TI ARM Assembler Unix v20.2.1 Wed Sep 16 12:09:22 2020

Copyright (c) 1996-2018 Texas Instruments Incorporated
slwificonn.asm                                                       PAGE    3

     111                            .dwattr $C$DW$5, DW_AT_decl_column(0x1b)
     112                    
     113 00000000                   .sect   ".data:g_fWifiSM", RW
     114                            .align  4
     115                            .elfsym g_fWifiSM,SYM_SIZE(32)
     116 00000000           g_fWifiSM:
     117 00000000 00000000          .bits           0,32
     118                                            ; g_fWifiSM[0] @ 0
     119 00000004                   .space  28
     120                    
     121                    $C$DW$6 .dwtag  DW_TAG_variable
     122                            .dwattr $C$DW$6, DW_AT_name("g_fWifiSM")
     123                            .dwattr $C$DW$6, DW_AT_TI_symbol_name("g_fWifiSM")
     124                            .dwattr $C$DW$6, DW_AT_type(*$C$DW$T$971)
     125                            .dwattr $C$DW$6, DW_AT_location[DW_OP_addr g_fWifiSM]
     126                            .dwattr $C$DW$6, DW_AT_decl_file("/vagrant/Q3_SDK_01/sdk_root/source/ti/drivers/net/wifi/slnet
     127                            .dwattr $C$DW$6, DW_AT_decl_line(0x10e)
     128                            .dwattr $C$DW$6, DW_AT_decl_column(0x14)
     129                    
     130 0000000c                   .data
     131                            .align  4
     132                            .elfsym g_fEnterPROVISIONING,SYM_SIZE(4)
     133 0000000c           g_fEnterPROVISIONING:
     134 0000000c 00000000          .bits           0,32
     135                                            ; g_fEnterPROVISIONING @ 0
     136                    
     137                    $C$DW$7 .dwtag  DW_TAG_variable
     138                            .dwattr $C$DW$7, DW_AT_name("g_fEnterPROVISIONING")
     139                            .dwattr $C$DW$7, DW_AT_TI_symbol_name("g_fEnterPROVISIONING")
     140                            .dwattr $C$DW$7, DW_AT_type(*$C$DW$T$965)
     141                            .dwattr $C$DW$7, DW_AT_location[DW_OP_addr g_fEnterPROVISIONING]
     142                            .dwattr $C$DW$7, DW_AT_decl_file("/vagrant/Q3_SDK_01/sdk_root/source/ti/drivers/net/wifi/slnet
     143                            .dwattr $C$DW$7, DW_AT_decl_line(0x111)
     144                            .dwattr $C$DW$7, DW_AT_decl_column(0x0e)
     145                    
     146 00000010                   .data
     147                            .align  4
     148                            .elfsym g_fProvStatusHandler,SYM_SIZE(4)
     149 00000010           g_fProvStatusHandler:
     150 00000010 00000000          .bits           0,32
     151                                            ; g_fProvStatusHandler @ 0
     152                    
     153                    $C$DW$8 .dwtag  DW_TAG_variable
     154                            .dwattr $C$DW$8, DW_AT_name("g_fProvStatusHandler")
     155                            .dwattr $C$DW$8, DW_AT_TI_symbol_name("g_fProvStatusHandler")
     156                            .dwattr $C$DW$8, DW_AT_type(*$C$DW$T$846)
     157                            .dwattr $C$DW$8, DW_AT_location[DW_OP_addr g_fProvStatusHandler]
     158                            .dwattr $C$DW$8, DW_AT_decl_file("/vagrant/Q3_SDK_01/sdk_root/source/ti/drivers/net/wifi/slnet
     159                            .dwattr $C$DW$8, DW_AT_decl_line(0x112)
     160                            .dwattr $C$DW$8, DW_AT_decl_column(0x0f)
     161                    
     162 00000014                   .data
     163                            .align  4
     164                            .elfsym g_fDebugPrint,SYM_SIZE(4)
     165 00000014           g_fDebugPrint:
TI ARM Assembler Unix v20.2.1 Wed Sep 16 12:09:22 2020

Copyright (c) 1996-2018 Texas Instruments Incorporated
slwificonn.asm                                                       PAGE    4

     166 00000014 00000000!         .bits   DummyPrintf,32          ; g_fDebugPrint @ 0
     167                    
     168                    $C$DW$9 .dwtag  DW_TAG_variable
     169                            .dwattr $C$DW$9, DW_AT_name("g_fDebugPrint")
     170                            .dwattr $C$DW$9, DW_AT_TI_symbol_name("g_fDebugPrint")
     171                            .dwattr $C$DW$9, DW_AT_type(*$C$DW$T$838)
     172                            .dwattr $C$DW$9, DW_AT_location[DW_OP_addr g_fDebugPrint]
     173                            .dwattr $C$DW$9, DW_AT_decl_file("/vagrant/Q3_SDK_01/sdk_root/source/ti/drivers/net/wifi/slnet
     174                            .dwattr $C$DW$9, DW_AT_decl_line(0x116)
     175                            .dwattr $C$DW$9, DW_AT_decl_column(0x1b)
     176                    
     177 00000000           SlEventHandlers:        .usect  ".bss:SlEventHandlers",24,4
     178                    $C$DW$10        .dwtag  DW_TAG_variable
     179                            .dwattr $C$DW$10, DW_AT_name("SlEventHandlers")
     180                            .dwattr $C$DW$10, DW_AT_TI_symbol_name("SlEventHandlers")
     181                            .dwattr $C$DW$10, DW_AT_type(*$C$DW$T$795)
     182                            .dwattr $C$DW$10, DW_AT_location[DW_OP_addr SlEventHandlers]
     183                            .dwattr $C$DW$10, DW_AT_decl_file("/vagrant/Q3_SDK_01/sdk_root/source/ti/drivers/net/wifi/slne
     184                            .dwattr $C$DW$10, DW_AT_decl_line(0x117)
     185                            .dwattr $C$DW$10, DW_AT_decl_column(0x1b)
     186                    
     187 00000000                   .sect   ".data:strState", RW
     188                            .align  4
     189                            .elfsym strState,SYM_SIZE(32)
     190 00000000           strState:
     191 00000000 00000000!         .bits   $C$SL1,32               ; strState[0] @ 0
     192 00000004 00000000!         .bits   $C$SL2,32               ; strState[1] @ 32
     193 00000008 00000000!         .bits   $C$SL3,32               ; strState[2] @ 64
     194 0000000c 00000000!         .bits   $C$SL4,32               ; strState[3] @ 96
     195 00000010 00000000!         .bits   $C$SL5,32               ; strState[4] @ 128
     196 00000014 00000000!         .bits   $C$SL6,32               ; strState[5] @ 160
     197 00000018 00000000!         .bits   $C$SL7,32               ; strState[6] @ 192
     198 0000001c 00000000!         .bits   $C$SL8,32               ; strState[7] @ 224
     199                    
     200                    $C$DW$11        .dwtag  DW_TAG_variable
     201                            .dwattr $C$DW$11, DW_AT_name("strState")
     202                            .dwattr $C$DW$11, DW_AT_TI_symbol_name("strState")
     203                            .dwattr $C$DW$11, DW_AT_type(*$C$DW$T$1134)
     204                            .dwattr $C$DW$11, DW_AT_location[DW_OP_addr strState]
     205                            .dwattr $C$DW$11, DW_AT_decl_file("/vagrant/Q3_SDK_01/sdk_root/source/ti/drivers/net/wifi/slne
     206                            .dwattr $C$DW$11, DW_AT_decl_line(0x11a)
     207                            .dwattr $C$DW$11, DW_AT_decl_column(0x14)
     208                    
     209 00000000                   .sect   ".data:strEvent", RW
     210                            .align  4
     211                            .elfsym strEvent,SYM_SIZE(64)
     212 00000000           strEvent:
     213 00000000 00000000!         .bits   $C$SL9,32               ; strEvent[0] @ 0
     214 00000004 00000000!         .bits   $C$SL10,32              ; strEvent[1] @ 32
     215 00000008 00000000!         .bits   $C$SL5,32               ; strEvent[2] @ 64
     216 0000000c 00000000!         .bits   $C$SL11,32              ; strEvent[3] @ 96
     217 00000010 00000000!         .bits   $C$SL12,32              ; strEvent[4] @ 128
     218 00000014 00000000!         .bits   $C$SL13,32              ; strEvent[5] @ 160
     219 00000018 00000000!         .bits   $C$SL14,32              ; strEvent[6] @ 192
     220 0000001c 00000000!         .bits   $C$SL15,32              ; strEvent[7] @ 224
TI ARM Assembler Unix v20.2.1 Wed Sep 16 12:09:22 2020

Copyright (c) 1996-2018 Texas Instruments Incorporated
slwificonn.asm                                                       PAGE    5

     221 00000020 00000000!         .bits   $C$SL16,32              ; strEvent[8] @ 256
     222 00000024 00000000!         .bits   $C$SL17,32              ; strEvent[9] @ 288
     223 00000028 00000000!         .bits   $C$SL18,32              ; strEvent[10] @ 320
     224 0000002c 00000000!         .bits   $C$SL19,32              ; strEvent[11] @ 352
     225 00000030 00000000!         .bits   $C$SL20,32              ; strEvent[12] @ 384
     226 00000034 00000000!         .bits   $C$SL21,32              ; strEvent[13] @ 416
     227 00000038 00000000!         .bits   $C$SL22,32              ; strEvent[14] @ 448
     228 0000003c 00000000!         .bits   $C$SL23,32              ; strEvent[15] @ 480
     229                    
     230                    $C$DW$12        .dwtag  DW_TAG_variable
     231                            .dwattr $C$DW$12, DW_AT_name("strEvent")
     232                            .dwattr $C$DW$12, DW_AT_TI_symbol_name("strEvent")
     233                            .dwattr $C$DW$12, DW_AT_type(*$C$DW$T$1135)
     234                            .dwattr $C$DW$12, DW_AT_location[DW_OP_addr strEvent]
     235                            .dwattr $C$DW$12, DW_AT_decl_file("/vagrant/Q3_SDK_01/sdk_root/source/ti/drivers/net/wifi/slne
     236                            .dwattr $C$DW$12, DW_AT_decl_line(0x126)
     237                            .dwattr $C$DW$12, DW_AT_decl_column(0x14)
     238                    
     239                    
     240                    $C$DW$13        .dwtag  DW_TAG_subprogram
     241                            .dwattr $C$DW$13, DW_AT_name("mq_send")
     242                            .dwattr $C$DW$13, DW_AT_TI_symbol_name("mq_send")
     243                            .dwattr $C$DW$13, DW_AT_type(*$C$DW$T$10)
     244                            .dwattr $C$DW$13, DW_AT_declaration
     245                            .dwattr $C$DW$13, DW_AT_external
     246                            .dwattr $C$DW$13, DW_AT_decl_file("/vagrant/Q3_SDK_01/sdk_root/source/ti/posix/ccs/mqueue.h")
     247                            .dwattr $C$DW$13, DW_AT_decl_line(0x66)
     248                            .dwattr $C$DW$13, DW_AT_decl_column(0x0c)
     249                    $C$DW$14        .dwtag  DW_TAG_formal_parameter
     250                            .dwattr $C$DW$14, DW_AT_type(*$C$DW$T$81)
     251                    
     252                    $C$DW$15        .dwtag  DW_TAG_formal_parameter
     253                            .dwattr $C$DW$15, DW_AT_type(*$C$DW$T$481)
     254                    
     255                    $C$DW$16        .dwtag  DW_TAG_formal_parameter
     256                            .dwattr $C$DW$16, DW_AT_type(*$C$DW$T$281)
     257                    
     258                    $C$DW$17        .dwtag  DW_TAG_formal_parameter
     259                            .dwattr $C$DW$17, DW_AT_type(*$C$DW$T$11)
     260                    
     261                            .dwendtag $C$DW$13
     262                    
     263                    
     264                    $C$DW$18        .dwtag  DW_TAG_subprogram
     265                            .dwattr $C$DW$18, DW_AT_name("mq_getattr")
     266                            .dwattr $C$DW$18, DW_AT_TI_symbol_name("mq_getattr")
     267                            .dwattr $C$DW$18, DW_AT_type(*$C$DW$T$10)
     268                            .dwattr $C$DW$18, DW_AT_declaration
     269                            .dwattr $C$DW$18, DW_AT_external
     270                            .dwattr $C$DW$18, DW_AT_decl_file("/vagrant/Q3_SDK_01/sdk_root/source/ti/posix/ccs/mqueue.h")
     271                            .dwattr $C$DW$18, DW_AT_decl_line(0x62)
     272                            .dwattr $C$DW$18, DW_AT_decl_column(0x0c)
     273                    $C$DW$19        .dwtag  DW_TAG_formal_parameter
     274                            .dwattr $C$DW$19, DW_AT_type(*$C$DW$T$81)
     275                    
TI ARM Assembler Unix v20.2.1 Wed Sep 16 12:09:22 2020

Copyright (c) 1996-2018 Texas Instruments Incorporated
slwificonn.asm                                                       PAGE    6

     276                    $C$DW$20        .dwtag  DW_TAG_formal_parameter
     277                            .dwattr $C$DW$20, DW_AT_type(*$C$DW$T$953)
     278                    
     279                            .dwendtag $C$DW$18
     280                    
     281                    
     282                    $C$DW$21        .dwtag  DW_TAG_subprogram
     283                            .dwattr $C$DW$21, DW_AT_name("mq_receive")
     284                            .dwattr $C$DW$21, DW_AT_TI_symbol_name("mq_receive")
     285                            .dwattr $C$DW$21, DW_AT_type(*$C$DW$T$1024)
     286                            .dwattr $C$DW$21, DW_AT_declaration
     287                            .dwattr $C$DW$21, DW_AT_external
     288                            .dwattr $C$DW$21, DW_AT_decl_file("/vagrant/Q3_SDK_01/sdk_root/source/ti/posix/ccs/mqueue.h")
     289                            .dwattr $C$DW$21, DW_AT_decl_line(0x64)
     290                            .dwattr $C$DW$21, DW_AT_decl_column(0x10)
     291                    $C$DW$22        .dwtag  DW_TAG_formal_parameter
     292                            .dwattr $C$DW$22, DW_AT_type(*$C$DW$T$81)
     293                    
     294                    $C$DW$23        .dwtag  DW_TAG_formal_parameter
     295                            .dwattr $C$DW$23, DW_AT_type(*$C$DW$T$69)
     296                    
     297                    $C$DW$24        .dwtag  DW_TAG_formal_parameter
     298                            .dwattr $C$DW$24, DW_AT_type(*$C$DW$T$281)
     299                    
     300                    $C$DW$25        .dwtag  DW_TAG_formal_parameter
     301                            .dwattr $C$DW$25, DW_AT_type(*$C$DW$T$1025)
     302                    
     303                            .dwendtag $C$DW$21
     304                    
     305                    
     306                    $C$DW$26        .dwtag  DW_TAG_subprogram
     307                            .dwattr $C$DW$26, DW_AT_name("sl_WlanDisconnect")
     308                            .dwattr $C$DW$26, DW_AT_TI_symbol_name("sl_WlanDisconnect")
     309                            .dwattr $C$DW$26, DW_AT_type(*$C$DW$T$8)
     310                            .dwattr $C$DW$26, DW_AT_declaration
     311                            .dwattr $C$DW$26, DW_AT_external
     312                            .dwattr $C$DW$26, DW_AT_decl_file("/vagrant/Q3_SDK_01/sdk_root/source/ti/drivers/net/wifi/wlan
     313                            .dwattr $C$DW$26, DW_AT_decl_line(0x51f)
     314                            .dwattr $C$DW$26, DW_AT_decl_column(0x06)
     315                            .dwendtag $C$DW$26
     316                    
     317                    
     318                    $C$DW$27        .dwtag  DW_TAG_subprogram
     319                            .dwattr $C$DW$27, DW_AT_name("sl_WlanConnect")
     320                            .dwattr $C$DW$27, DW_AT_TI_symbol_name("sl_WlanConnect")
     321                            .dwattr $C$DW$27, DW_AT_type(*$C$DW$T$8)
     322                            .dwattr $C$DW$27, DW_AT_declaration
     323                            .dwattr $C$DW$27, DW_AT_external
     324                            .dwattr $C$DW$27, DW_AT_decl_file("/vagrant/Q3_SDK_01/sdk_root/source/ti/drivers/net/wifi/wlan
     325                            .dwattr $C$DW$27, DW_AT_decl_line(0x510)
     326                            .dwattr $C$DW$27, DW_AT_decl_column(0x06)
     327                    $C$DW$28        .dwtag  DW_TAG_formal_parameter
     328                            .dwattr $C$DW$28, DW_AT_type(*$C$DW$T$871)
     329                    
     330                    $C$DW$29        .dwtag  DW_TAG_formal_parameter
TI ARM Assembler Unix v20.2.1 Wed Sep 16 12:09:22 2020

Copyright (c) 1996-2018 Texas Instruments Incorporated
slwificonn.asm                                                       PAGE    7

     331                            .dwattr $C$DW$29, DW_AT_type(*$C$DW$T$888)
     332                    
     333                    $C$DW$30        .dwtag  DW_TAG_formal_parameter
     334                            .dwattr $C$DW$30, DW_AT_type(*$C$DW$T$879)
     335                    
     336                    $C$DW$31        .dwtag  DW_TAG_formal_parameter
     337                            .dwattr $C$DW$31, DW_AT_type(*$C$DW$T$668)
     338                    
     339                    $C$DW$32        .dwtag  DW_TAG_formal_parameter
     340                            .dwattr $C$DW$32, DW_AT_type(*$C$DW$T$671)
     341                    
     342                            .dwendtag $C$DW$27
     343                    
     344                    
     345                    $C$DW$33        .dwtag  DW_TAG_subprogram
     346                            .dwattr $C$DW$33, DW_AT_name("sl_WlanProfileAdd")
     347                            .dwattr $C$DW$33, DW_AT_TI_symbol_name("sl_WlanProfileAdd")
     348                            .dwattr $C$DW$33, DW_AT_type(*$C$DW$T$8)
     349                            .dwattr $C$DW$33, DW_AT_declaration
     350                            .dwattr $C$DW$33, DW_AT_external
     351                            .dwattr $C$DW$33, DW_AT_decl_file("/vagrant/Q3_SDK_01/sdk_root/source/ti/drivers/net/wifi/wlan
     352                            .dwattr $C$DW$33, DW_AT_decl_line(0x553)
     353                            .dwattr $C$DW$33, DW_AT_decl_column(0x06)
     354                    $C$DW$34        .dwtag  DW_TAG_formal_parameter
     355                            .dwattr $C$DW$34, DW_AT_type(*$C$DW$T$871)
     356                    
     357                    $C$DW$35        .dwtag  DW_TAG_formal_parameter
     358                            .dwattr $C$DW$35, DW_AT_type(*$C$DW$T$888)
     359                    
     360                    $C$DW$36        .dwtag  DW_TAG_formal_parameter
     361                            .dwattr $C$DW$36, DW_AT_type(*$C$DW$T$879)
     362                    
     363                    $C$DW$37        .dwtag  DW_TAG_formal_parameter
     364                            .dwattr $C$DW$37, DW_AT_type(*$C$DW$T$668)
     365                    
     366                    $C$DW$38        .dwtag  DW_TAG_formal_parameter
     367                            .dwattr $C$DW$38, DW_AT_type(*$C$DW$T$671)
     368                    
     369                    $C$DW$39        .dwtag  DW_TAG_formal_parameter
     370                            .dwattr $C$DW$39, DW_AT_type(*$C$DW$T$279)
     371                    
     372                    $C$DW$40        .dwtag  DW_TAG_formal_parameter
     373                            .dwattr $C$DW$40, DW_AT_type(*$C$DW$T$279)
     374                    
     375                            .dwendtag $C$DW$33
     376                    
     377                    
     378                    $C$DW$41        .dwtag  DW_TAG_subprogram
     379                            .dwattr $C$DW$41, DW_AT_name("free")
     380                            .dwattr $C$DW$41, DW_AT_TI_symbol_name("free")
     381                            .dwattr $C$DW$41, DW_AT_declaration
     382                            .dwattr $C$DW$41, DW_AT_external
     383                            .dwattr $C$DW$41, DW_AT_decl_file("/opt/ti/ccs-latest/ccs/tools/compiler/ti-cgt-arm_20.2.1.LTS
     384                            .dwattr $C$DW$41, DW_AT_decl_line(0xb8)
     385                            .dwattr $C$DW$41, DW_AT_decl_column(0x19)
TI ARM Assembler Unix v20.2.1 Wed Sep 16 12:09:22 2020

Copyright (c) 1996-2018 Texas Instruments Incorporated
slwificonn.asm                                                       PAGE    8

     386                    $C$DW$42        .dwtag  DW_TAG_formal_parameter
     387                            .dwattr $C$DW$42, DW_AT_type(*$C$DW$T$3)
     388                    
     389                            .dwendtag $C$DW$41
     390                    
     391                    
     392                    $C$DW$43        .dwtag  DW_TAG_subprogram
     393                            .dwattr $C$DW$43, DW_AT_name("sl_Stop")
     394                            .dwattr $C$DW$43, DW_AT_TI_symbol_name("sl_Stop")
     395                            .dwattr $C$DW$43, DW_AT_type(*$C$DW$T$8)
     396                            .dwattr $C$DW$43, DW_AT_declaration
     397                            .dwattr $C$DW$43, DW_AT_external
     398                            .dwattr $C$DW$43, DW_AT_decl_file("/vagrant/Q3_SDK_01/sdk_root/source/ti/drivers/net/wifi/devi
     399                            .dwattr $C$DW$43, DW_AT_decl_line(0x1cd)
     400                            .dwattr $C$DW$43, DW_AT_decl_column(0x06)
     401                    $C$DW$44        .dwtag  DW_TAG_formal_parameter
     402                            .dwattr $C$DW$44, DW_AT_type(*$C$DW$T$278)
     403                    
     404                            .dwendtag $C$DW$43
     405                    
     406                    
     407                    $C$DW$45        .dwtag  DW_TAG_subprogram
     408                            .dwattr $C$DW$45, DW_AT_name("sl_Start")
     409                            .dwattr $C$DW$45, DW_AT_TI_symbol_name("sl_Start")
     410                            .dwattr $C$DW$45, DW_AT_type(*$C$DW$T$8)
     411                            .dwattr $C$DW$45, DW_AT_declaration
     412                            .dwattr $C$DW$45, DW_AT_external
     413                            .dwattr $C$DW$45, DW_AT_decl_file("/vagrant/Q3_SDK_01/sdk_root/source/ti/drivers/net/wifi/devi
     414                            .dwattr $C$DW$45, DW_AT_decl_line(0x1ad)
     415                            .dwattr $C$DW$45, DW_AT_decl_column(0x06)
     416                    $C$DW$46        .dwtag  DW_TAG_formal_parameter
     417                            .dwattr $C$DW$46, DW_AT_type(*$C$DW$T$402)
     418                    
     419                    $C$DW$47        .dwtag  DW_TAG_formal_parameter
     420                            .dwattr $C$DW$47, DW_AT_type(*$C$DW$T$24)
     421                    
     422                    $C$DW$48        .dwtag  DW_TAG_formal_parameter
     423                            .dwattr $C$DW$48, DW_AT_type(*$C$DW$T$835)
     424                    
     425                            .dwendtag $C$DW$45
     426                    
     427                    
     428                    $C$DW$49        .dwtag  DW_TAG_subprogram
     429                            .dwattr $C$DW$49, DW_AT_name("sl_WlanSetMode")
     430                            .dwattr $C$DW$49, DW_AT_TI_symbol_name("sl_WlanSetMode")
     431                            .dwattr $C$DW$49, DW_AT_type(*$C$DW$T$8)
     432                            .dwattr $C$DW$49, DW_AT_declaration
     433                            .dwattr $C$DW$49, DW_AT_external
     434                            .dwattr $C$DW$49, DW_AT_decl_file("/vagrant/Q3_SDK_01/sdk_root/source/ti/drivers/net/wifi/wlan
     435                            .dwattr $C$DW$49, DW_AT_decl_line(0x7bd)
     436                            .dwattr $C$DW$49, DW_AT_decl_column(0x06)
     437                    $C$DW$50        .dwtag  DW_TAG_formal_parameter
     438                            .dwattr $C$DW$50, DW_AT_type(*$C$DW$T$277)
     439                    
     440                            .dwendtag $C$DW$49
TI ARM Assembler Unix v20.2.1 Wed Sep 16 12:09:22 2020

Copyright (c) 1996-2018 Texas Instruments Incorporated
slwificonn.asm                                                       PAGE    9

     441                    
     442                    
     443                    $C$DW$51        .dwtag  DW_TAG_subprogram
     444                            .dwattr $C$DW$51, DW_AT_name("sl_UnregisterLibsEventHandler")
     445                            .dwattr $C$DW$51, DW_AT_TI_symbol_name("sl_UnregisterLibsEventHandler")
     446                            .dwattr $C$DW$51, DW_AT_type(*$C$DW$T$12)
     447                            .dwattr $C$DW$51, DW_AT_declaration
     448                            .dwattr $C$DW$51, DW_AT_external
     449                            .dwattr $C$DW$51, DW_AT_decl_file("/vagrant/Q3_SDK_01/sdk_root/source/ti/drivers/net/wifi/even
     450                            .dwattr $C$DW$51, DW_AT_decl_line(0x7d)
     451                            .dwattr $C$DW$51, DW_AT_decl_column(0x06)
     452                    $C$DW$52        .dwtag  DW_TAG_formal_parameter
     453                            .dwattr $C$DW$52, DW_AT_type(*$C$DW$T$583)
     454                    
     455                    $C$DW$53        .dwtag  DW_TAG_formal_parameter
     456                            .dwattr $C$DW$53, DW_AT_type(*$C$DW$T$794)
     457                    
     458                            .dwendtag $C$DW$51
     459                    
     460                    
     461                    $C$DW$54        .dwtag  DW_TAG_subprogram
     462                            .dwattr $C$DW$54, DW_AT_name("mq_close")
     463                            .dwattr $C$DW$54, DW_AT_TI_symbol_name("mq_close")
     464                            .dwattr $C$DW$54, DW_AT_type(*$C$DW$T$10)
     465                            .dwattr $C$DW$54, DW_AT_declaration
     466                            .dwattr $C$DW$54, DW_AT_external
     467                            .dwattr $C$DW$54, DW_AT_decl_file("/vagrant/Q3_SDK_01/sdk_root/source/ti/posix/ccs/mqueue.h")
     468                            .dwattr $C$DW$54, DW_AT_decl_line(0x61)
     469                            .dwattr $C$DW$54, DW_AT_decl_column(0x0c)
     470                    $C$DW$55        .dwtag  DW_TAG_formal_parameter
     471                            .dwattr $C$DW$55, DW_AT_type(*$C$DW$T$81)
     472                    
     473                            .dwendtag $C$DW$54
     474                    
     475                    
     476                    $C$DW$56        .dwtag  DW_TAG_subprogram
     477                            .dwattr $C$DW$56, DW_AT_name("timer_delete")
     478                            .dwattr $C$DW$56, DW_AT_TI_symbol_name("timer_delete")
     479                            .dwattr $C$DW$56, DW_AT_type(*$C$DW$T$10)
     480                            .dwattr $C$DW$56, DW_AT_declaration
     481                            .dwattr $C$DW$56, DW_AT_external
     482                            .dwattr $C$DW$56, DW_AT_decl_file("/vagrant/Q3_SDK_01/sdk_root/source/ti/posix/ccs/time.h")
     483                            .dwattr $C$DW$56, DW_AT_decl_line(0x8d)
     484                            .dwattr $C$DW$56, DW_AT_decl_column(0x0c)
     485                    $C$DW$57        .dwtag  DW_TAG_formal_parameter
     486                            .dwattr $C$DW$57, DW_AT_type(*$C$DW$T$84)
     487                    
     488                            .dwendtag $C$DW$56
     489                    
     490                    
     491                    $C$DW$58        .dwtag  DW_TAG_subprogram
     492                            .dwattr $C$DW$58, DW_AT_name("sem_post")
     493                            .dwattr $C$DW$58, DW_AT_TI_symbol_name("sem_post")
     494                            .dwattr $C$DW$58, DW_AT_type(*$C$DW$T$10)
     495                            .dwattr $C$DW$58, DW_AT_declaration
TI ARM Assembler Unix v20.2.1 Wed Sep 16 12:09:22 2020

Copyright (c) 1996-2018 Texas Instruments Incorporated
slwificonn.asm                                                       PAGE   10

     496                            .dwattr $C$DW$58, DW_AT_external
     497                            .dwattr $C$DW$58, DW_AT_decl_file("/vagrant/Q3_SDK_01/sdk_root/source/ti/posix/ccs/semaphore.h
     498                            .dwattr $C$DW$58, DW_AT_decl_line(0x4f)
     499                            .dwattr $C$DW$58, DW_AT_decl_column(0x08)
     500                    $C$DW$59        .dwtag  DW_TAG_formal_parameter
     501                            .dwattr $C$DW$59, DW_AT_type(*$C$DW$T$783)
     502                    
     503                            .dwendtag $C$DW$58
     504                    
     505                    
     506                    $C$DW$60        .dwtag  DW_TAG_subprogram
     507                            .dwattr $C$DW$60, DW_AT_name("sem_destroy")
     508                            .dwattr $C$DW$60, DW_AT_TI_symbol_name("sem_destroy")
     509                            .dwattr $C$DW$60, DW_AT_type(*$C$DW$T$10)
     510                            .dwattr $C$DW$60, DW_AT_declaration
     511                            .dwattr $C$DW$60, DW_AT_external
     512                            .dwattr $C$DW$60, DW_AT_decl_file("/vagrant/Q3_SDK_01/sdk_root/source/ti/posix/ccs/semaphore.h
     513                            .dwattr $C$DW$60, DW_AT_decl_line(0x4c)
     514                            .dwattr $C$DW$60, DW_AT_decl_column(0x08)
     515                    $C$DW$61        .dwtag  DW_TAG_formal_parameter
     516                            .dwattr $C$DW$61, DW_AT_type(*$C$DW$T$783)
     517                    
     518                            .dwendtag $C$DW$60
     519                    
     520                    
     521                    $C$DW$62        .dwtag  DW_TAG_subprogram
     522                            .dwattr $C$DW$62, DW_AT_name("sl_WlanPolicyGet")
     523                            .dwattr $C$DW$62, DW_AT_TI_symbol_name("sl_WlanPolicyGet")
     524                            .dwattr $C$DW$62, DW_AT_type(*$C$DW$T$8)
     525                            .dwattr $C$DW$62, DW_AT_declaration
     526                            .dwattr $C$DW$62, DW_AT_external
     527                            .dwattr $C$DW$62, DW_AT_decl_file("/vagrant/Q3_SDK_01/sdk_root/source/ti/drivers/net/wifi/wlan
     528                            .dwattr $C$DW$62, DW_AT_decl_line(0x6b9)
     529                            .dwattr $C$DW$62, DW_AT_decl_column(0x06)
     530                    $C$DW$63        .dwtag  DW_TAG_formal_parameter
     531                            .dwattr $C$DW$63, DW_AT_type(*$C$DW$T$277)
     532                    
     533                    $C$DW$64        .dwtag  DW_TAG_formal_parameter
     534                            .dwattr $C$DW$64, DW_AT_type(*$C$DW$T$165)
     535                    
     536                    $C$DW$65        .dwtag  DW_TAG_formal_parameter
     537                            .dwattr $C$DW$65, DW_AT_type(*$C$DW$T$165)
     538                    
     539                    $C$DW$66        .dwtag  DW_TAG_formal_parameter
     540                            .dwattr $C$DW$66, DW_AT_type(*$C$DW$T$165)
     541                    
     542                            .dwendtag $C$DW$62
     543                    
     544                    
     545                    $C$DW$67        .dwtag  DW_TAG_subprogram
     546                            .dwattr $C$DW$67, DW_AT_name("sl_WlanPolicySet")
     547                            .dwattr $C$DW$67, DW_AT_TI_symbol_name("sl_WlanPolicySet")
     548                            .dwattr $C$DW$67, DW_AT_type(*$C$DW$T$8)
     549                            .dwattr $C$DW$67, DW_AT_declaration
     550                            .dwattr $C$DW$67, DW_AT_external
TI ARM Assembler Unix v20.2.1 Wed Sep 16 12:09:22 2020

Copyright (c) 1996-2018 Texas Instruments Incorporated
slwificonn.asm                                                       PAGE   11

     551                            .dwattr $C$DW$67, DW_AT_decl_file("/vagrant/Q3_SDK_01/sdk_root/source/ti/drivers/net/wifi/wlan
     552                            .dwattr $C$DW$67, DW_AT_decl_line(0x65e)
     553                            .dwattr $C$DW$67, DW_AT_decl_column(0x06)
     554                    $C$DW$68        .dwtag  DW_TAG_formal_parameter
     555                            .dwattr $C$DW$68, DW_AT_type(*$C$DW$T$277)
     556                    
     557                    $C$DW$69        .dwtag  DW_TAG_formal_parameter
     558                            .dwattr $C$DW$69, DW_AT_type(*$C$DW$T$277)
     559                    
     560                    $C$DW$70        .dwtag  DW_TAG_formal_parameter
     561                            .dwattr $C$DW$70, DW_AT_type(*$C$DW$T$165)
     562                    
     563                    $C$DW$71        .dwtag  DW_TAG_formal_parameter
     564                            .dwattr $C$DW$71, DW_AT_type(*$C$DW$T$277)
     565                    
     566                            .dwendtag $C$DW$67
     567                    
     568                    
     569                    $C$DW$72        .dwtag  DW_TAG_subprogram
     570                            .dwattr $C$DW$72, DW_AT_name("sem_wait")
     571                            .dwattr $C$DW$72, DW_AT_TI_symbol_name("sem_wait")
     572                            .dwattr $C$DW$72, DW_AT_type(*$C$DW$T$10)
     573                            .dwattr $C$DW$72, DW_AT_declaration
     574                            .dwattr $C$DW$72, DW_AT_external
     575                            .dwattr $C$DW$72, DW_AT_decl_file("/vagrant/Q3_SDK_01/sdk_root/source/ti/posix/ccs/semaphore.h
     576                            .dwattr $C$DW$72, DW_AT_decl_line(0x52)
     577                            .dwattr $C$DW$72, DW_AT_decl_column(0x08)
     578                    $C$DW$73        .dwtag  DW_TAG_formal_parameter
     579                            .dwattr $C$DW$73, DW_AT_type(*$C$DW$T$783)
     580                    
     581                            .dwendtag $C$DW$72
     582                    
     583                    
     584                    $C$DW$74        .dwtag  DW_TAG_subprogram
     585                            .dwattr $C$DW$74, DW_AT_name("strlen")
     586                            .dwattr $C$DW$74, DW_AT_TI_symbol_name("strlen")
     587                            .dwattr $C$DW$74, DW_AT_type(*$C$DW$T$281)
     588                            .dwattr $C$DW$74, DW_AT_declaration
     589                            .dwattr $C$DW$74, DW_AT_external
     590                            .dwattr $C$DW$74, DW_AT_decl_file("/opt/ti/ccs-latest/ccs/tools/compiler/ti-cgt-arm_20.2.1.LTS
     591                            .dwattr $C$DW$74, DW_AT_decl_line(0x56)
     592                            .dwattr $C$DW$74, DW_AT_decl_column(0x14)
     593                    $C$DW$75        .dwtag  DW_TAG_formal_parameter
     594                            .dwattr $C$DW$75, DW_AT_type(*$C$DW$T$481)
     595                    
     596                            .dwendtag $C$DW$74
     597                    
     598                    
     599                    $C$DW$76        .dwtag  DW_TAG_subprogram
     600                            .dwattr $C$DW$76, DW_AT_name("sl_WlanSet")
     601                            .dwattr $C$DW$76, DW_AT_TI_symbol_name("sl_WlanSet")
     602                            .dwattr $C$DW$76, DW_AT_type(*$C$DW$T$8)
     603                            .dwattr $C$DW$76, DW_AT_declaration
     604                            .dwattr $C$DW$76, DW_AT_external
     605                            .dwattr $C$DW$76, DW_AT_decl_file("/vagrant/Q3_SDK_01/sdk_root/source/ti/drivers/net/wifi/wlan
TI ARM Assembler Unix v20.2.1 Wed Sep 16 12:09:22 2020

Copyright (c) 1996-2018 Texas Instruments Incorporated
slwificonn.asm                                                       PAGE   12

     606                            .dwattr $C$DW$76, DW_AT_decl_line(0x974)
     607                            .dwattr $C$DW$76, DW_AT_decl_column(0x06)
     608                    $C$DW$77        .dwtag  DW_TAG_formal_parameter
     609                            .dwattr $C$DW$77, DW_AT_type(*$C$DW$T$278)
     610                    
     611                    $C$DW$78        .dwtag  DW_TAG_formal_parameter
     612                            .dwattr $C$DW$78, DW_AT_type(*$C$DW$T$278)
     613                    
     614                    $C$DW$79        .dwtag  DW_TAG_formal_parameter
     615                            .dwattr $C$DW$79, DW_AT_type(*$C$DW$T$278)
     616                    
     617                    $C$DW$80        .dwtag  DW_TAG_formal_parameter
     618                            .dwattr $C$DW$80, DW_AT_type(*$C$DW$T$879)
     619                    
     620                            .dwendtag $C$DW$76
     621                    
     622                    
     623                    $C$DW$81        .dwtag  DW_TAG_subprogram
     624                            .dwattr $C$DW$81, DW_AT_name("sl_NetCfgGet")
     625                            .dwattr $C$DW$81, DW_AT_TI_symbol_name("sl_NetCfgGet")
     626                            .dwattr $C$DW$81, DW_AT_type(*$C$DW$T$8)
     627                            .dwattr $C$DW$81, DW_AT_declaration
     628                            .dwattr $C$DW$81, DW_AT_external
     629                            .dwattr $C$DW$81, DW_AT_decl_file("/vagrant/Q3_SDK_01/sdk_root/source/ti/drivers/net/wifi/netc
     630                            .dwattr $C$DW$81, DW_AT_decl_line(0x2b2)
     631                            .dwattr $C$DW$81, DW_AT_decl_column(0x06)
     632                    $C$DW$82        .dwtag  DW_TAG_formal_parameter
     633                            .dwattr $C$DW$82, DW_AT_type(*$C$DW$T$278)
     634                    
     635                    $C$DW$83        .dwtag  DW_TAG_formal_parameter
     636                            .dwattr $C$DW$83, DW_AT_type(*$C$DW$T$265)
     637                    
     638                    $C$DW$84        .dwtag  DW_TAG_formal_parameter
     639                            .dwattr $C$DW$84, DW_AT_type(*$C$DW$T$265)
     640                    
     641                    $C$DW$85        .dwtag  DW_TAG_formal_parameter
     642                            .dwattr $C$DW$85, DW_AT_type(*$C$DW$T$165)
     643                    
     644                            .dwendtag $C$DW$81
     645                    
     646                    
     647                    $C$DW$86        .dwtag  DW_TAG_subprogram
     648                            .dwattr $C$DW$86, DW_AT_name("sl_WlanProvisioning")
     649                            .dwattr $C$DW$86, DW_AT_TI_symbol_name("sl_WlanProvisioning")
     650                            .dwattr $C$DW$86, DW_AT_type(*$C$DW$T$8)
     651                            .dwattr $C$DW$86, DW_AT_declaration
     652                            .dwattr $C$DW$86, DW_AT_external
     653                            .dwattr $C$DW$86, DW_AT_decl_file("/vagrant/Q3_SDK_01/sdk_root/source/ti/drivers/net/wifi/wlan
     654                            .dwattr $C$DW$86, DW_AT_decl_line(0x79d)
     655                            .dwattr $C$DW$86, DW_AT_decl_column(0x06)
     656                    $C$DW$87        .dwtag  DW_TAG_formal_parameter
     657                            .dwattr $C$DW$87, DW_AT_type(*$C$DW$T$6)
     658                    
     659                    $C$DW$88        .dwtag  DW_TAG_formal_parameter
     660                            .dwattr $C$DW$88, DW_AT_type(*$C$DW$T$6)
TI ARM Assembler Unix v20.2.1 Wed Sep 16 12:09:22 2020

Copyright (c) 1996-2018 Texas Instruments Incorporated
slwificonn.asm                                                       PAGE   13

     661                    
     662                    $C$DW$89        .dwtag  DW_TAG_formal_parameter
     663                            .dwattr $C$DW$89, DW_AT_type(*$C$DW$T$9)
     664                    
     665                    $C$DW$90        .dwtag  DW_TAG_formal_parameter
     666                            .dwattr $C$DW$90, DW_AT_type(*$C$DW$T$69)
     667                    
     668                    $C$DW$91        .dwtag  DW_TAG_formal_parameter
     669                            .dwattr $C$DW$91, DW_AT_type(*$C$DW$T$13)
     670                    
     671                            .dwendtag $C$DW$86
     672                    
     673                    
     674                    $C$DW$92        .dwtag  DW_TAG_subprogram
     675                            .dwattr $C$DW$92, DW_AT_name("sl_WlanProfileDel")
     676                            .dwattr $C$DW$92, DW_AT_TI_symbol_name("sl_WlanProfileDel")
     677                            .dwattr $C$DW$92, DW_AT_type(*$C$DW$T$8)
     678                            .dwattr $C$DW$92, DW_AT_declaration
     679                            .dwattr $C$DW$92, DW_AT_external
     680                            .dwattr $C$DW$92, DW_AT_decl_file("/vagrant/Q3_SDK_01/sdk_root/source/ti/drivers/net/wifi/wlan
     681                            .dwattr $C$DW$92, DW_AT_decl_line(0x5c8)
     682                            .dwattr $C$DW$92, DW_AT_decl_column(0x06)
     683                    $C$DW$93        .dwtag  DW_TAG_formal_parameter
     684                            .dwattr $C$DW$93, DW_AT_type(*$C$DW$T$888)
     685                    
     686                            .dwendtag $C$DW$92
     687                    
     688                    
     689                    $C$DW$94        .dwtag  DW_TAG_subprogram
     690                            .dwattr $C$DW$94, DW_AT_name("memset")
     691                            .dwattr $C$DW$94, DW_AT_TI_symbol_name("memset")
     692                            .dwattr $C$DW$94, DW_AT_type(*$C$DW$T$3)
     693                            .dwattr $C$DW$94, DW_AT_declaration
     694                            .dwattr $C$DW$94, DW_AT_external
     695                            .dwattr $C$DW$94, DW_AT_decl_file("/opt/ti/ccs-latest/ccs/tools/compiler/ti-cgt-arm_20.2.1.LTS
     696                            .dwattr $C$DW$94, DW_AT_decl_line(0x82)
     697                            .dwattr $C$DW$94, DW_AT_decl_column(0x16)
     698                    $C$DW$95        .dwtag  DW_TAG_formal_parameter
     699                            .dwattr $C$DW$95, DW_AT_type(*$C$DW$T$3)
     700                    
     701                    $C$DW$96        .dwtag  DW_TAG_formal_parameter
     702                            .dwattr $C$DW$96, DW_AT_type(*$C$DW$T$10)
     703                    
     704                    $C$DW$97        .dwtag  DW_TAG_formal_parameter
     705                            .dwattr $C$DW$97, DW_AT_type(*$C$DW$T$281)
     706                    
     707                            .dwendtag $C$DW$94
     708                    
     709                    
     710                    $C$DW$98        .dwtag  DW_TAG_subprogram
     711                            .dwattr $C$DW$98, DW_AT_name("timer_settime")
     712                            .dwattr $C$DW$98, DW_AT_TI_symbol_name("timer_settime")
     713                            .dwattr $C$DW$98, DW_AT_type(*$C$DW$T$10)
     714                            .dwattr $C$DW$98, DW_AT_declaration
     715                            .dwattr $C$DW$98, DW_AT_external
TI ARM Assembler Unix v20.2.1 Wed Sep 16 12:09:22 2020

Copyright (c) 1996-2018 Texas Instruments Incorporated
slwificonn.asm                                                       PAGE   14

     716                            .dwattr $C$DW$98, DW_AT_decl_file("/vagrant/Q3_SDK_01/sdk_root/source/ti/posix/ccs/time.h")
     717                            .dwattr $C$DW$98, DW_AT_decl_line(0x8f)
     718                            .dwattr $C$DW$98, DW_AT_decl_column(0x0c)
     719                    $C$DW$99        .dwtag  DW_TAG_formal_parameter
     720                            .dwattr $C$DW$99, DW_AT_type(*$C$DW$T$84)
     721                    
     722                    $C$DW$100       .dwtag  DW_TAG_formal_parameter
     723                            .dwattr $C$DW$100, DW_AT_type(*$C$DW$T$10)
     724                    
     725                    $C$DW$101       .dwtag  DW_TAG_formal_parameter
     726                            .dwattr $C$DW$101, DW_AT_type(*$C$DW$T$941)
     727                    
     728                    $C$DW$102       .dwtag  DW_TAG_formal_parameter
     729                            .dwattr $C$DW$102, DW_AT_type(*$C$DW$T$942)
     730                    
     731                            .dwendtag $C$DW$98
     732                    
     733                    
     734                    $C$DW$103       .dwtag  DW_TAG_subprogram
     735                            .dwattr $C$DW$103, DW_AT_name("sleep")
     736                            .dwattr $C$DW$103, DW_AT_TI_symbol_name("sleep")
     737                            .dwattr $C$DW$103, DW_AT_type(*$C$DW$T$11)
     738                            .dwattr $C$DW$103, DW_AT_declaration
     739                            .dwattr $C$DW$103, DW_AT_external
     740                            .dwattr $C$DW$103, DW_AT_decl_file("/vagrant/Q3_SDK_01/sdk_root/source/ti/posix/ccs/unistd.h")
     741                            .dwattr $C$DW$103, DW_AT_decl_line(0x3e)
     742                            .dwattr $C$DW$103, DW_AT_decl_column(0x11)
     743                    $C$DW$104       .dwtag  DW_TAG_formal_parameter
     744                            .dwattr $C$DW$104, DW_AT_type(*$C$DW$T$11)
     745                    
     746                            .dwendtag $C$DW$103
     747                    
     748                    
     749                    $C$DW$105       .dwtag  DW_TAG_subprogram
     750                            .dwattr $C$DW$105, DW_AT_name("sem_init")
     751                            .dwattr $C$DW$105, DW_AT_TI_symbol_name("sem_init")
     752                            .dwattr $C$DW$105, DW_AT_type(*$C$DW$T$10)
     753                            .dwattr $C$DW$105, DW_AT_declaration
     754                            .dwattr $C$DW$105, DW_AT_external
     755                            .dwattr $C$DW$105, DW_AT_decl_file("/vagrant/Q3_SDK_01/sdk_root/source/ti/posix/ccs/semaphore.
     756                            .dwattr $C$DW$105, DW_AT_decl_line(0x4e)
     757                            .dwattr $C$DW$105, DW_AT_decl_column(0x08)
     758                    $C$DW$106       .dwtag  DW_TAG_formal_parameter
     759                            .dwattr $C$DW$106, DW_AT_type(*$C$DW$T$783)
     760                    
     761                    $C$DW$107       .dwtag  DW_TAG_formal_parameter
     762                            .dwattr $C$DW$107, DW_AT_type(*$C$DW$T$10)
     763                    
     764                    $C$DW$108       .dwtag  DW_TAG_formal_parameter
     765                            .dwattr $C$DW$108, DW_AT_type(*$C$DW$T$11)
     766                    
     767                            .dwendtag $C$DW$105
     768                    
     769                    
     770                    $C$DW$109       .dwtag  DW_TAG_subprogram
TI ARM Assembler Unix v20.2.1 Wed Sep 16 12:09:22 2020

Copyright (c) 1996-2018 Texas Instruments Incorporated
slwificonn.asm                                                       PAGE   15

     771                            .dwattr $C$DW$109, DW_AT_name("calloc")
     772                            .dwattr $C$DW$109, DW_AT_TI_symbol_name("calloc")
     773                            .dwattr $C$DW$109, DW_AT_type(*$C$DW$T$3)
     774                            .dwattr $C$DW$109, DW_AT_declaration
     775                            .dwattr $C$DW$109, DW_AT_external
     776                            .dwattr $C$DW$109, DW_AT_decl_file("/opt/ti/ccs-latest/ccs/tools/compiler/ti-cgt-arm_20.2.1.LT
     777                            .dwattr $C$DW$109, DW_AT_decl_line(0xb3)
     778                            .dwattr $C$DW$109, DW_AT_decl_column(0x19)
     779                    $C$DW$110       .dwtag  DW_TAG_formal_parameter
     780                            .dwattr $C$DW$110, DW_AT_type(*$C$DW$T$281)
     781                    
     782                    $C$DW$111       .dwtag  DW_TAG_formal_parameter
     783                            .dwattr $C$DW$111, DW_AT_type(*$C$DW$T$281)
     784                    
     785                            .dwendtag $C$DW$109
     786                    
     787                    
     788                    $C$DW$112       .dwtag  DW_TAG_subprogram
     789                            .dwattr $C$DW$112, DW_AT_name("mq_open")
     790                            .dwattr $C$DW$112, DW_AT_TI_symbol_name("mq_open")
     791                            .dwattr $C$DW$112, DW_AT_type(*$C$DW$T$81)
     792                            .dwattr $C$DW$112, DW_AT_declaration
     793                            .dwattr $C$DW$112, DW_AT_external
     794                            .dwattr $C$DW$112, DW_AT_decl_file("/vagrant/Q3_SDK_01/sdk_root/source/ti/posix/ccs/mqueue.h")
     795                            .dwattr $C$DW$112, DW_AT_decl_line(0x63)
     796                            .dwattr $C$DW$112, DW_AT_decl_column(0x0e)
     797                    $C$DW$113       .dwtag  DW_TAG_formal_parameter
     798                            .dwattr $C$DW$113, DW_AT_type(*$C$DW$T$481)
     799                    
     800                    $C$DW$114       .dwtag  DW_TAG_formal_parameter
     801                            .dwattr $C$DW$114, DW_AT_type(*$C$DW$T$10)
     802                    
     803                    $C$DW$115       .dwtag  DW_TAG_unspecified_parameters
     804                    
     805                            .dwendtag $C$DW$112
     806                    
     807                    
     808                    $C$DW$116       .dwtag  DW_TAG_subprogram
     809                            .dwattr $C$DW$116, DW_AT_name("pthread_attr_init")
     810                            .dwattr $C$DW$116, DW_AT_TI_symbol_name("pthread_attr_init")
     811                            .dwattr $C$DW$116, DW_AT_type(*$C$DW$T$10)
     812                            .dwattr $C$DW$116, DW_AT_declaration
     813                            .dwattr $C$DW$116, DW_AT_external
     814                            .dwattr $C$DW$116, DW_AT_decl_file("/vagrant/Q3_SDK_01/sdk_root/source/ti/posix/ccs/pthread.h"
     815                            .dwattr $C$DW$116, DW_AT_decl_line(0x83)
     816                            .dwattr $C$DW$116, DW_AT_decl_column(0x0c)
     817                    $C$DW$117       .dwtag  DW_TAG_formal_parameter
     818                            .dwattr $C$DW$117, DW_AT_type(*$C$DW$T$563)
     819                    
     820                            .dwendtag $C$DW$116
     821                    
     822                    
     823                    $C$DW$118       .dwtag  DW_TAG_subprogram
     824                            .dwattr $C$DW$118, DW_AT_name("timer_create")
     825                            .dwattr $C$DW$118, DW_AT_TI_symbol_name("timer_create")
TI ARM Assembler Unix v20.2.1 Wed Sep 16 12:09:22 2020

Copyright (c) 1996-2018 Texas Instruments Incorporated
slwificonn.asm                                                       PAGE   16

     826                            .dwattr $C$DW$118, DW_AT_type(*$C$DW$T$10)
     827                            .dwattr $C$DW$118, DW_AT_declaration
     828                            .dwattr $C$DW$118, DW_AT_external
     829                            .dwattr $C$DW$118, DW_AT_decl_file("/vagrant/Q3_SDK_01/sdk_root/source/ti/posix/ccs/time.h")
     830                            .dwattr $C$DW$118, DW_AT_decl_line(0x8b)
     831                            .dwattr $C$DW$118, DW_AT_decl_column(0x0c)
     832                    $C$DW$119       .dwtag  DW_TAG_formal_parameter
     833                            .dwattr $C$DW$119, DW_AT_type(*$C$DW$T$933)
     834                    
     835                    $C$DW$120       .dwtag  DW_TAG_formal_parameter
     836                            .dwattr $C$DW$120, DW_AT_type(*$C$DW$T$934)
     837                    
     838                    $C$DW$121       .dwtag  DW_TAG_formal_parameter
     839                            .dwattr $C$DW$121, DW_AT_type(*$C$DW$T$935)
     840                    
     841                            .dwendtag $C$DW$118
     842                    
     843                    
     844                    $C$DW$122       .dwtag  DW_TAG_subprogram
     845                            .dwattr $C$DW$122, DW_AT_name("sl_RegisterLibsEventHandler")
     846                            .dwattr $C$DW$122, DW_AT_TI_symbol_name("sl_RegisterLibsEventHandler")
     847                            .dwattr $C$DW$122, DW_AT_type(*$C$DW$T$12)
     848                            .dwattr $C$DW$122, DW_AT_declaration
     849                            .dwattr $C$DW$122, DW_AT_external
     850                            .dwattr $C$DW$122, DW_AT_decl_file("/vagrant/Q3_SDK_01/sdk_root/source/ti/drivers/net/wifi/eve
     851                            .dwattr $C$DW$122, DW_AT_decl_line(0x6f)
     852                            .dwattr $C$DW$122, DW_AT_decl_column(0x06)
     853                    $C$DW$123       .dwtag  DW_TAG_formal_parameter
     854                            .dwattr $C$DW$123, DW_AT_type(*$C$DW$T$583)
     855                    
     856                    $C$DW$124       .dwtag  DW_TAG_formal_parameter
     857                            .dwattr $C$DW$124, DW_AT_type(*$C$DW$T$794)
     858                    
     859                            .dwendtag $C$DW$122
     860                    
     861                    
     862                    $C$DW$125       .dwtag  DW_TAG_subprogram
     863                            .dwattr $C$DW$125, DW_AT_name("malloc")
     864                            .dwattr $C$DW$125, DW_AT_TI_symbol_name("malloc")
     865                            .dwattr $C$DW$125, DW_AT_type(*$C$DW$T$3)
     866                            .dwattr $C$DW$125, DW_AT_declaration
     867                            .dwattr $C$DW$125, DW_AT_external
     868                            .dwattr $C$DW$125, DW_AT_decl_file("/opt/ti/ccs-latest/ccs/tools/compiler/ti-cgt-arm_20.2.1.LT
     869                            .dwattr $C$DW$125, DW_AT_decl_line(0xb5)
     870                            .dwattr $C$DW$125, DW_AT_decl_column(0x19)
     871                    $C$DW$126       .dwtag  DW_TAG_formal_parameter
     872                            .dwattr $C$DW$126, DW_AT_type(*$C$DW$T$281)
     873                    
     874                            .dwendtag $C$DW$125
     875                    
     876                    ;       /opt/ti/ccs-latest/ccs/tools/compiler/ti-cgt-arm_20.2.1.LTS/bin/armacpia -@/tmp/TI7Oubrbjlz 
     877 00000000                   .sect   ".text:DummyPrintf"
     878                            .clink
     879                            .thumbfunc DummyPrintf
     880 00000000                   .thumb
TI ARM Assembler Unix v20.2.1 Wed Sep 16 12:09:22 2020

Copyright (c) 1996-2018 Texas Instruments Incorporated
slwificonn.asm                                                       PAGE   17

     881                    
     882                    $C$DW$127       .dwtag  DW_TAG_subprogram
     883                            .dwattr $C$DW$127, DW_AT_name("DummyPrintf")
     884                            .dwattr $C$DW$127, DW_AT_low_pc(DummyPrintf)
     885                            .dwattr $C$DW$127, DW_AT_high_pc(0x00)
     886                            .dwattr $C$DW$127, DW_AT_TI_symbol_name("DummyPrintf")
     887                            .dwattr $C$DW$127, DW_AT_TI_begin_file("/vagrant/Q3_SDK_01/sdk_root/source/ti/drivers/net/wifi
     888                            .dwattr $C$DW$127, DW_AT_TI_begin_line(0x115)
     889                            .dwattr $C$DW$127, DW_AT_TI_begin_column(0x0d)
     890                            .dwattr $C$DW$127, DW_AT_decl_file("/vagrant/Q3_SDK_01/sdk_root/source/ti/drivers/net/wifi/sln
     891                            .dwattr $C$DW$127, DW_AT_decl_line(0x115)
     892                            .dwattr $C$DW$127, DW_AT_decl_column(0x0d)
     893                            .dwattr $C$DW$127, DW_AT_TI_max_frame_size(0x10)
     894                            .dwpsn  file "/vagrant/Q3_SDK_01/sdk_root/source/ti/drivers/net/wifi/slnetif/slwificonn.c",lin
     895                    
     896                            .dwfde $C$DW$CIE, DummyPrintf
     897                    $C$DW$128       .dwtag  DW_TAG_formal_parameter
     898                            .dwattr $C$DW$128, DW_AT_name("pFormat")
     899                            .dwattr $C$DW$128, DW_AT_TI_symbol_name("pFormat")
     900                            .dwattr $C$DW$128, DW_AT_type(*$C$DW$T$481)
     901                            .dwattr $C$DW$128, DW_AT_location[DW_OP_breg13 0]
     902                    $C$DW$129       .dwtag  DW_TAG_unspecified_parameters
     903                    
     904                    
     905                    
     906                    ;*****************************************************************************
     907                    ;* FUNCTION NAME: DummyPrintf                                                *
     908                    ;*                                                                           *
     909                    ;*   Regs Modified     : SP                                                  *
     910                    ;*   Regs Used         : A1,A2,A3,A4,SP,LR                                   *
     911                    ;*   Local Frame Size  : 0 Args + 0 Auto + 0 Save = 0 byte                   *
     912                    ;*****************************************************************************
     913 00000000           DummyPrintf:
     914                    ;* --------------------------------------------------------------------------*
     915                            .dwcfi  cfa_offset, 0
     916 00000000 B40F              PUSH      {A1, A2, A3, A4}      ; [DPU_V7M3_PIPE]  ; [ORIG 16-BIT INS]
     917                            .dwcfi  cfa_offset, 16
     918                            .dwcfi  save_reg_to_mem, 3, -4
     919                            .dwcfi  save_reg_to_mem, 2, -8
     920                            .dwcfi  save_reg_to_mem, 1, -12
     921                            .dwcfi  save_reg_to_mem, 0, -16
     922                            .dwpsn  file "/vagrant/Q3_SDK_01/sdk_root/source/ti/drivers/net/wifi/slnetif/slwificonn.c",lin
     923                    ;----------------------------------------------------------------------
     924                    ; 277 | static void DummyPrintf(const char *pFormat, ...) {};                  
     925                    ;----------------------------------------------------------------------
     926 00000002 B004              ADD       SP, SP, #16           ; [DPU_V7M3_PIPE]  ; [ORIG 16-BIT INS]
     927                            .dwcfi  cfa_offset, 0
     928                    $C$DW$130       .dwtag  DW_TAG_TI_branch
     929                            .dwattr $C$DW$130, DW_AT_low_pc(0x00)
     930                            .dwattr $C$DW$130, DW_AT_TI_return
     931                    
     932 00000004 4770              BX        LR                    ; [DPU_V7M3_PIPE]  ; [ORIG 16-BIT INS]
     933                            ; BRANCH OCCURS                  ; [] 
     934                            .dwattr $C$DW$127, DW_AT_TI_end_file("/vagrant/Q3_SDK_01/sdk_root/source/ti/drivers/net/wifi/s
     935                            .dwattr $C$DW$127, DW_AT_TI_end_line(0x115)
TI ARM Assembler Unix v20.2.1 Wed Sep 16 12:09:22 2020

Copyright (c) 1996-2018 Texas Instruments Incorporated
slwificonn.asm                                                       PAGE   18

     936                            .dwattr $C$DW$127, DW_AT_TI_end_column(0x34)
     937                            .dwendentry
     938                            .dwendtag $C$DW$127
     939                    
     940 00000000                   .sect   ".text:DeferredEvent_enqueue"
     941                            .clink
     942                            .thumbfunc DeferredEvent_enqueue
     943 00000000                   .thumb
     944                    
     945                    $C$DW$131       .dwtag  DW_TAG_subprogram
     946                            .dwattr $C$DW$131, DW_AT_name("DeferredEvent_enqueue")
     947                            .dwattr $C$DW$131, DW_AT_low_pc(DeferredEvent_enqueue)
     948                            .dwattr $C$DW$131, DW_AT_high_pc(0x00)
     949                            .dwattr $C$DW$131, DW_AT_TI_symbol_name("DeferredEvent_enqueue")
     950                            .dwattr $C$DW$131, DW_AT_type(*$C$DW$T$10)
     951                            .dwattr $C$DW$131, DW_AT_TI_begin_file("/vagrant/Q3_SDK_01/sdk_root/source/ti/drivers/net/wifi
     952                            .dwattr $C$DW$131, DW_AT_TI_begin_line(0x147)
     953                            .dwattr $C$DW$131, DW_AT_TI_begin_column(0x0c)
     954                            .dwattr $C$DW$131, DW_AT_decl_file("/vagrant/Q3_SDK_01/sdk_root/source/ti/drivers/net/wifi/sln
     955                            .dwattr $C$DW$131, DW_AT_decl_line(0x147)
     956                            .dwattr $C$DW$131, DW_AT_decl_column(0x0c)
     957                            .dwattr $C$DW$131, DW_AT_TI_max_frame_size(0x18)
     958                            .dwpsn  file "/vagrant/Q3_SDK_01/sdk_root/source/ti/drivers/net/wifi/slnetif/slwificonn.c",lin
     959                    
     960                            .dwfde $C$DW$CIE, DeferredEvent_enqueue
     961                    $C$DW$132       .dwtag  DW_TAG_formal_parameter
     962                            .dwattr $C$DW$132, DW_AT_name("event")
     963                            .dwattr $C$DW$132, DW_AT_TI_symbol_name("event")
     964                            .dwattr $C$DW$132, DW_AT_type(*$C$DW$T$10)
     965                            .dwattr $C$DW$132, DW_AT_location[DW_OP_reg0]
     966                    
     967                    $C$DW$133       .dwtag  DW_TAG_formal_parameter
     968                            .dwattr $C$DW$133, DW_AT_name("pParams")
     969                            .dwattr $C$DW$133, DW_AT_TI_symbol_name("pParams")
     970                            .dwattr $C$DW$133, DW_AT_type(*$C$DW$T$3)
     971                            .dwattr $C$DW$133, DW_AT_location[DW_OP_reg1]
     972                    
     973                    ;----------------------------------------------------------------------
     974                    ; 327 | static int DeferredEvent_enqueue(SLWIFICONN_EVENT_e event, void *pParam
     975                    ;     | s)                                                                     
     976                    ;----------------------------------------------------------------------
     977                    
     978                    ;*****************************************************************************
     979                    ;* FUNCTION NAME: DeferredEvent_enqueue                                      *
     980                    ;*                                                                           *
     981                    ;*   Regs Modified     : A1,A2,A3,A4,V9,SP,LR,SR                             *
     982                    ;*   Regs Used         : A1,A2,A3,A4,V9,SP,LR,SR                             *
     983                    ;*   Local Frame Size  : 0 Args + 20 Auto + 4 Save = 24 byte                 *
     984                    ;*****************************************************************************
     985 00000000           DeferredEvent_enqueue:
     986                    ;* --------------------------------------------------------------------------*
     987                            .dwcfi  cfa_offset, 0
     988 00000000 B500              PUSH      {LR}                  ; [DPU_V7M3_PIPE]  ; [ORIG 16-BIT INS]
     989                            .dwcfi  cfa_offset, 4
     990                            .dwcfi  save_reg_to_mem, 14, -4
TI ARM Assembler Unix v20.2.1 Wed Sep 16 12:09:22 2020

Copyright (c) 1996-2018 Texas Instruments Incorporated
slwificonn.asm                                                       PAGE   19

     991 00000002 0D14F1AD          SUB       SP, SP, #20           ; [DPU_V7M3_PIPE]  ; [KEEP 32-BIT INS]
     992                            .dwcfi  cfa_offset, 24
     993                    $C$DW$134       .dwtag  DW_TAG_variable
     994                            .dwattr $C$DW$134, DW_AT_name("msg")
     995                            .dwattr $C$DW$134, DW_AT_TI_symbol_name("msg")
     996                            .dwattr $C$DW$134, DW_AT_type(*$C$DW$T$682)
     997                            .dwattr $C$DW$134, DW_AT_location[DW_OP_breg13 0]
     998                    
     999                    $C$DW$135       .dwtag  DW_TAG_variable
    1000                            .dwattr $C$DW$135, DW_AT_name("pParams")
    1001                            .dwattr $C$DW$135, DW_AT_TI_symbol_name("pParams")
    1002                            .dwattr $C$DW$135, DW_AT_type(*$C$DW$T$3)
    1003                            .dwattr $C$DW$135, DW_AT_location[DW_OP_breg13 8]
    1004                    
    1005                    $C$DW$136       .dwtag  DW_TAG_variable
    1006                            .dwattr $C$DW$136, DW_AT_name("retVal")
    1007                            .dwattr $C$DW$136, DW_AT_TI_symbol_name("retVal")
    1008                            .dwattr $C$DW$136, DW_AT_type(*$C$DW$T$10)
    1009                            .dwattr $C$DW$136, DW_AT_location[DW_OP_breg13 12]
    1010                    
    1011                    $C$DW$137       .dwtag  DW_TAG_variable
    1012                            .dwattr $C$DW$137, DW_AT_name("event")
    1013                            .dwattr $C$DW$137, DW_AT_TI_symbol_name("event")
    1014                            .dwattr $C$DW$137, DW_AT_type(*$C$DW$T$102)
    1015                            .dwattr $C$DW$137, DW_AT_location[DW_OP_breg13 16]
    1016                    
    1017                    ;----------------------------------------------------------------------
    1018                    ; 329 | int retVal;                                                            
    1019                    ; 330 | DeferredEvent_t msg;                                                   
    1020                    ;----------------------------------------------------------------------
    1021 00000006 9102              STR       A2, [SP, #8]          ; [DPU_V7M3_PIPE] |328|  ; [ORIG 16-BIT INS]
    1022 00000008 0010F88D          STRB      A1, [SP, #16]         ; [DPU_V7M3_PIPE] |328|  ; [KEEP 32-BIT INS]
    1023                            .dwpsn  file "/vagrant/Q3_SDK_01/sdk_root/source/ti/drivers/net/wifi/slnetif/slwificonn.c",lin
    1024                    ;----------------------------------------------------------------------
    1025                    ; 331 | msg.event = event;                                                     
    1026                    ;----------------------------------------------------------------------
    1027 0000000c 0010F89D          LDRB      A1, [SP, #16]         ; [DPU_V7M3_PIPE] |331|  ; [KEEP 32-BIT INS]
    1028 00000010 0000F88D          STRB      A1, [SP, #0]          ; [DPU_V7M3_PIPE] |331|  ; [KEEP 32-BIT INS]
    1029                            .dwpsn  file "/vagrant/Q3_SDK_01/sdk_root/source/ti/drivers/net/wifi/slnetif/slwificonn.c",lin
    1030                    ;----------------------------------------------------------------------
    1031                    ; 332 | msg.pParams = pParams;                                                 
    1032                    ;----------------------------------------------------------------------
    1033 00000014 9802              LDR       A1, [SP, #8]          ; [DPU_V7M3_PIPE] |332|  ; [ORIG 16-BIT INS]
    1034 00000016 9001              STR       A1, [SP, #4]          ; [DPU_V7M3_PIPE] |332|  ; [ORIG 16-BIT INS]
    1035                            .dwpsn  file "/vagrant/Q3_SDK_01/sdk_root/source/ti/drivers/net/wifi/slnetif/slwificonn.c",lin
    1036                    ;----------------------------------------------------------------------
    1037                    ; 334 | retVal = mq_send(g_ctx->DeferredEventQ, (char *)&msg, sizeof(DeferredEv
    1038                    ;     | ent_t), 0);                                                            
    1039                    ;----------------------------------------------------------------------
    1040 00000018 482A              LDR       A1, $C$CON1           ; [DPU_V7M3_PIPE] |334|  ; [ORIG 16-BIT INS]
    1041 0000001a 6800              LDR       A1, [A1, #0]          ; [DPU_V7M3_PIPE] |334|  ; [ORIG 16-BIT INS]
    1042 0000001c 6880              LDR       A1, [A1, #8]          ; [DPU_V7M3_PIPE] |334|  ; [ORIG 16-BIT INS]
    1043 0000001e 2208              MOVS      A3, #8                ; [DPU_V7M3_PIPE] |334|  ; [ORIG 16-BIT INS]
    1044 00000020 2300              MOVS      A4, #0                ; [DPU_V7M3_PIPE] |334|  ; [ORIG 16-BIT INS]
    1045 00000022 4669              MOV       A2, SP                ; [DPU_V7M3_PIPE] |334|  ; [ORIG 16-BIT INS]
TI ARM Assembler Unix v20.2.1 Wed Sep 16 12:09:22 2020

Copyright (c) 1996-2018 Texas Instruments Incorporated
slwificonn.asm                                                       PAGE   20

    1046                    $C$DW$138       .dwtag  DW_TAG_TI_branch
    1047                            .dwattr $C$DW$138, DW_AT_low_pc(0x00)
    1048                            .dwattr $C$DW$138, DW_AT_name("mq_send")
    1049                            .dwattr $C$DW$138, DW_AT_TI_call
    1050                    
    1051 00000024 FFFEF7FF!         BL        mq_send               ; [DPU_V7M3_PIPE] |334|  ; [KEEP 32-BIT INS]
    1052                            ; CALL OCCURS {mq_send }         ; [] |334| 
    1053 00000028 9003              STR       A1, [SP, #12]         ; [DPU_V7M3_PIPE] |334|  ; [ORIG 16-BIT INS]
    1054                            .dwpsn  file "/vagrant/Q3_SDK_01/sdk_root/source/ti/drivers/net/wifi/slnetif/slwificonn.c",lin
    1055                    ;----------------------------------------------------------------------
    1056                    ; 335 | assert(retVal >= 0);                                                   
    1057                    ;----------------------------------------------------------------------
    1058 0000002a 9903              LDR       A2, [SP, #12]         ; [DPU_V7M3_PIPE] |335|  ; [ORIG 16-BIT INS]
    1059 0000002c 2000              MOVS      A1, #0                ; [DPU_V7M3_PIPE] |335|  ; [ORIG 16-BIT INS]
    1060 0000002e 2900              CMP       A2, #0                ; [DPU_V7M3_PIPE] |335|  ; [ORIG 16-BIT INS]
    1061 00000030 D400              BMI       ||$C$L1||             ; [DPU_V7M3_PIPE] |335|  ; [ORIG 16-BIT INS]
    1062                            ; BRANCHCC OCCURS {||$C$L1||}    ; [] |335| 
    1063                    ;* --------------------------------------------------------------------------*
    1064 00000032 2001              MOVS      A1, #1                ; [DPU_V7M3_PIPE] |335|  ; [ORIG 16-BIT INS]
    1065                    ;* --------------------------------------------------------------------------*
    1066 00000034           ||$C$L1||:    
    1067 00000034 B910              CBNZ      A1, ||$C$L2||         ; []  ; [ORIG 16-BIT INS]
    1068                            ; BRANCHCC OCCURS {||$C$L2||}    ; [] |335| 
    1069                    ;* --------------------------------------------------------------------------*
    1070 00000036 A003              ADR       A1, $C$SL24           ; [DPU_V7M3_PIPE] |335|  ; [ORIG 16-BIT INS]
    1071                    $C$DW$139       .dwtag  DW_TAG_TI_branch
    1072                            .dwattr $C$DW$139, DW_AT_low_pc(0x00)
    1073                            .dwattr $C$DW$139, DW_AT_name("_abort_msg")
    1074                            .dwattr $C$DW$139, DW_AT_TI_call
    1075                    
    1076 00000038 FFFEF7FF!         BL        _abort_msg            ; [DPU_V7M3_PIPE] |335|  ; [KEEP 32-BIT INS]
    1077                            ; CALL OCCURS {_abort_msg }      ; [] |335| 
    1078                    ;* --------------------------------------------------------------------------*
    1079 0000003c           ||$C$L2||:    
    1080                            .dwpsn  file "/vagrant/Q3_SDK_01/sdk_root/source/ti/drivers/net/wifi/slnetif/slwificonn.c",lin
    1081                    ;----------------------------------------------------------------------
    1082                    ; 336 | return retVal;                                                         
    1083                    ;----------------------------------------------------------------------
    1084 0000003c 9803              LDR       A1, [SP, #12]         ; [DPU_V7M3_PIPE] |336|  ; [ORIG 16-BIT INS]
    1085                            .dwpsn  file "/vagrant/Q3_SDK_01/sdk_root/source/ti/drivers/net/wifi/slnetif/slwificonn.c",lin
    1086 0000003e B005              ADD       SP, SP, #20           ; [DPU_V7M3_PIPE]  ; [ORIG 16-BIT INS]
    1087                            .dwcfi  cfa_offset, 4
    1088                    $C$DW$140       .dwtag  DW_TAG_TI_branch
    1089                            .dwattr $C$DW$140, DW_AT_low_pc(0x00)
    1090                            .dwattr $C$DW$140, DW_AT_TI_return
    1091                    
    1092 00000040 BD00              POP       {PC}                  ; [DPU_V7M3_PIPE]  ; [ORIG 16-BIT INS]
    1093                            .dwcfi  cfa_offset, 0
    1094                            ; BRANCH OCCURS                  ; [] 
    1095                            .dwattr $C$DW$131, DW_AT_TI_end_file("/vagrant/Q3_SDK_01/sdk_root/source/ti/drivers/net/wifi/s
    1096                            .dwattr $C$DW$131, DW_AT_TI_end_line(0x151)
    1097                            .dwattr $C$DW$131, DW_AT_TI_end_column(0x01)
    1098                            .dwendentry
    1099                            .dwendtag $C$DW$131
    1100                    
TI ARM Assembler Unix v20.2.1 Wed Sep 16 12:09:22 2020

Copyright (c) 1996-2018 Texas Instruments Incorporated
slwificonn.asm                                                       PAGE   21

    1101 00000000                   .sect   ".text:DeferredEvent_dequeue"
    1102                            .clink
    1103                            .thumbfunc DeferredEvent_dequeue
    1104 00000000                   .thumb
    1105                    
    1106                    $C$DW$141       .dwtag  DW_TAG_subprogram
    1107                            .dwattr $C$DW$141, DW_AT_name("DeferredEvent_dequeue")
    1108                            .dwattr $C$DW$141, DW_AT_low_pc(DeferredEvent_dequeue)
    1109                            .dwattr $C$DW$141, DW_AT_high_pc(0x00)
    1110                            .dwattr $C$DW$141, DW_AT_TI_symbol_name("DeferredEvent_dequeue")
    1111                            .dwattr $C$DW$141, DW_AT_type(*$C$DW$T$10)
    1112                            .dwattr $C$DW$141, DW_AT_TI_begin_file("/vagrant/Q3_SDK_01/sdk_root/source/ti/drivers/net/wifi
    1113                            .dwattr $C$DW$141, DW_AT_TI_begin_line(0x158)
    1114                            .dwattr $C$DW$141, DW_AT_TI_begin_column(0x0c)
    1115                            .dwattr $C$DW$141, DW_AT_decl_file("/vagrant/Q3_SDK_01/sdk_root/source/ti/drivers/net/wifi/sln
    1116                            .dwattr $C$DW$141, DW_AT_decl_line(0x158)
    1117                            .dwattr $C$DW$141, DW_AT_decl_column(0x0c)
    1118                            .dwattr $C$DW$141, DW_AT_TI_max_frame_size(0x28)
    1119                            .dwpsn  file "/vagrant/Q3_SDK_01/sdk_root/source/ti/drivers/net/wifi/slnetif/slwificonn.c",lin
    1120                    
    1121                            .dwfde $C$DW$CIE, DeferredEvent_dequeue
    1122                    $C$DW$142       .dwtag  DW_TAG_formal_parameter
    1123                            .dwattr $C$DW$142, DW_AT_name("pEvent")
    1124                            .dwattr $C$DW$142, DW_AT_TI_symbol_name("pEvent")
    1125                            .dwattr $C$DW$142, DW_AT_type(*$C$DW$T$584)
    1126                            .dwattr $C$DW$142, DW_AT_location[DW_OP_reg0]
    1127                    
    1128                    $C$DW$143       .dwtag  DW_TAG_formal_parameter
    1129                            .dwattr $C$DW$143, DW_AT_name("ppParams")
    1130                            .dwattr $C$DW$143, DW_AT_TI_symbol_name("ppParams")
    1131                            .dwattr $C$DW$143, DW_AT_type(*$C$DW$T$420)
    1132                            .dwattr $C$DW$143, DW_AT_location[DW_OP_reg1]
    1133                    
    1134                    ;----------------------------------------------------------------------
    1135                    ; 344 | static int DeferredEvent_dequeue(SLWIFICONN_EVENT_e *pEvent, void **ppP
    1136                    ;     | arams)                                                                 
    1137                    ;----------------------------------------------------------------------
    1138                    
    1139                    ;*****************************************************************************
    1140                    ;* FUNCTION NAME: DeferredEvent_dequeue                                      *
    1141                    ;*                                                                           *
    1142                    ;*   Regs Modified     : A1,A2,A3,A4,V9,SP,LR,SR                             *
    1143                    ;*   Regs Used         : A1,A2,A3,A4,V9,SP,LR,SR                             *
    1144                    ;*   Local Frame Size  : 0 Args + 36 Auto + 4 Save = 40 byte                 *
    1145                    ;*****************************************************************************
    1146 00000000           DeferredEvent_dequeue:
    1147                    ;* --------------------------------------------------------------------------*
    1148                            .dwcfi  cfa_offset, 0
    1149 00000000 B500              PUSH      {LR}                  ; [DPU_V7M3_PIPE]  ; [ORIG 16-BIT INS]
    1150                            .dwcfi  cfa_offset, 4
    1151                            .dwcfi  save_reg_to_mem, 14, -4
    1152 00000002 0D24F1AD          SUB       SP, SP, #36           ; [DPU_V7M3_PIPE]  ; [KEEP 32-BIT INS]
    1153                            .dwcfi  cfa_offset, 40
    1154                    $C$DW$144       .dwtag  DW_TAG_variable
    1155                            .dwattr $C$DW$144, DW_AT_name("msg")
TI ARM Assembler Unix v20.2.1 Wed Sep 16 12:09:22 2020

Copyright (c) 1996-2018 Texas Instruments Incorporated
slwificonn.asm                                                       PAGE   22

    1156                            .dwattr $C$DW$144, DW_AT_TI_symbol_name("msg")
    1157                            .dwattr $C$DW$144, DW_AT_type(*$C$DW$T$682)
    1158                            .dwattr $C$DW$144, DW_AT_location[DW_OP_breg13 0]
    1159                    
    1160                    $C$DW$145       .dwtag  DW_TAG_variable
    1161                            .dwattr $C$DW$145, DW_AT_name("mqstat")
    1162                            .dwattr $C$DW$145, DW_AT_TI_symbol_name("mqstat")
    1163                            .dwattr $C$DW$145, DW_AT_type(*$C$DW$T$556)
    1164                            .dwattr $C$DW$145, DW_AT_location[DW_OP_breg13 8]
    1165                    
    1166                    $C$DW$146       .dwtag  DW_TAG_variable
    1167                            .dwattr $C$DW$146, DW_AT_name("pEvent")
    1168                            .dwattr $C$DW$146, DW_AT_TI_symbol_name("pEvent")
    1169                            .dwattr $C$DW$146, DW_AT_type(*$C$DW$T$584)
    1170                            .dwattr $C$DW$146, DW_AT_location[DW_OP_breg13 24]
    1171                    
    1172                    $C$DW$147       .dwtag  DW_TAG_variable
    1173                            .dwattr $C$DW$147, DW_AT_name("ppParams")
    1174                            .dwattr $C$DW$147, DW_AT_TI_symbol_name("ppParams")
    1175                            .dwattr $C$DW$147, DW_AT_type(*$C$DW$T$420)
    1176                            .dwattr $C$DW$147, DW_AT_location[DW_OP_breg13 28]
    1177                    
    1178                    $C$DW$148       .dwtag  DW_TAG_variable
    1179                            .dwattr $C$DW$148, DW_AT_name("retVal")
    1180                            .dwattr $C$DW$148, DW_AT_TI_symbol_name("retVal")
    1181                            .dwattr $C$DW$148, DW_AT_type(*$C$DW$T$10)
    1182                            .dwattr $C$DW$148, DW_AT_location[DW_OP_breg13 32]
    1183                    
    1184                    ;----------------------------------------------------------------------
    1185                    ; 346 | int retVal;                                                            
    1186                    ; 347 | DeferredEvent_t msg;                                                   
    1187                    ; 348 | struct mq_attr mqstat;                                                 
    1188                    ;----------------------------------------------------------------------
    1189 00000006 9107              STR       A2, [SP, #28]         ; [DPU_V7M3_PIPE] |345|  ; [ORIG 16-BIT INS]
    1190 00000008 9006              STR       A1, [SP, #24]         ; [DPU_V7M3_PIPE] |345|  ; [ORIG 16-BIT INS]
    1191                            .dwpsn  file "/vagrant/Q3_SDK_01/sdk_root/source/ti/drivers/net/wifi/slnetif/slwificonn.c",lin
    1192                    ;----------------------------------------------------------------------
    1193                    ; 350 | retVal = mq_getattr(g_ctx->DeferredEventQ, &mqstat);                   
    1194                    ;----------------------------------------------------------------------
    1195 0000000a 4837              LDR       A1, $C$CON2           ; [DPU_V7M3_PIPE] |350|  ; [ORIG 16-BIT INS]
    1196 0000000c 6800              LDR       A1, [A1, #0]          ; [DPU_V7M3_PIPE] |350|  ; [ORIG 16-BIT INS]
    1197 0000000e 6880              LDR       A1, [A1, #8]          ; [DPU_V7M3_PIPE] |350|  ; [ORIG 16-BIT INS]
    1198 00000010 A902              ADD       A2, SP, #8            ; [DPU_V7M3_PIPE] |350|  ; [ORIG 16-BIT INS]
    1199                    $C$DW$149       .dwtag  DW_TAG_TI_branch
    1200                            .dwattr $C$DW$149, DW_AT_low_pc(0x00)
    1201                            .dwattr $C$DW$149, DW_AT_name("mq_getattr")
    1202                            .dwattr $C$DW$149, DW_AT_TI_call
    1203                    
    1204 00000012 FFFEF7FF!         BL        mq_getattr            ; [DPU_V7M3_PIPE] |350|  ; [KEEP 32-BIT INS]
    1205                            ; CALL OCCURS {mq_getattr }      ; [] |350| 
    1206 00000016 9008              STR       A1, [SP, #32]         ; [DPU_V7M3_PIPE] |350|  ; [ORIG 16-BIT INS]
    1207                            .dwpsn  file "/vagrant/Q3_SDK_01/sdk_root/source/ti/drivers/net/wifi/slnetif/slwificonn.c",lin
    1208                    ;----------------------------------------------------------------------
    1209                    ; 352 | if(retVal == 0 && mqstat.mq_curmsgs)                                   
    1210                    ;----------------------------------------------------------------------
TI ARM Assembler Unix v20.2.1 Wed Sep 16 12:09:22 2020

Copyright (c) 1996-2018 Texas Instruments Incorporated
slwificonn.asm                                                       PAGE   23

    1211 00000018 9808              LDR       A1, [SP, #32]         ; [DPU_V7M3_PIPE] |352|  ; [ORIG 16-BIT INS]
    1212 0000001a BB08              CBNZ      A1, ||$C$L6||         ; []  ; [ORIG 16-BIT INS]
    1213                            ; BRANCHCC OCCURS {||$C$L6||}    ; [] |352| 
    1214                    ;* --------------------------------------------------------------------------*
    1215 0000001c 9805              LDR       A1, [SP, #20]         ; [DPU_V7M3_PIPE] |352|  ; [ORIG 16-BIT INS]
    1216 0000001e B1F8              CBZ       A1, ||$C$L6||         ; []  ; [ORIG 16-BIT INS]
    1217                            ; BRANCHCC OCCURS {||$C$L6||}    ; [] |352| 
    1218                    ;* --------------------------------------------------------------------------*
    1219                            .dwpsn  file "/vagrant/Q3_SDK_01/sdk_root/source/ti/drivers/net/wifi/slnetif/slwificonn.c",lin
    1220                    ;----------------------------------------------------------------------
    1221                    ; 354 | retVal = mq_receive(g_ctx->DeferredEventQ, (char *)&msg, sizeof(Deferre
    1222                    ;     | dEvent_t), 0);                                                         
    1223                    ;----------------------------------------------------------------------
    1224 00000020 4831              LDR       A1, $C$CON2           ; [DPU_V7M3_PIPE] |354|  ; [ORIG 16-BIT INS]
    1225 00000022 6800              LDR       A1, [A1, #0]          ; [DPU_V7M3_PIPE] |354|  ; [ORIG 16-BIT INS]
    1226 00000024 6880              LDR       A1, [A1, #8]          ; [DPU_V7M3_PIPE] |354|  ; [ORIG 16-BIT INS]
    1227 00000026 4669              MOV       A2, SP                ; [DPU_V7M3_PIPE] |354|  ; [ORIG 16-BIT INS]
    1228 00000028 2208              MOVS      A3, #8                ; [DPU_V7M3_PIPE] |354|  ; [ORIG 16-BIT INS]
    1229 0000002a 2300              MOVS      A4, #0                ; [DPU_V7M3_PIPE] |354|  ; [ORIG 16-BIT INS]
    1230                    $C$DW$150       .dwtag  DW_TAG_TI_branch
    1231                            .dwattr $C$DW$150, DW_AT_low_pc(0x00)
    1232                            .dwattr $C$DW$150, DW_AT_name("mq_receive")
    1233                            .dwattr $C$DW$150, DW_AT_TI_call
    1234                    
    1235 0000002c FFFEF7FF!         BL        mq_receive            ; [DPU_V7M3_PIPE] |354|  ; [KEEP 32-BIT INS]
    1236                            ; CALL OCCURS {mq_receive }      ; [] |354| 
    1237 00000030 9008              STR       A1, [SP, #32]         ; [DPU_V7M3_PIPE] |354|  ; [ORIG 16-BIT INS]
    1238                            .dwpsn  file "/vagrant/Q3_SDK_01/sdk_root/source/ti/drivers/net/wifi/slnetif/slwificonn.c",lin
    1239                    ;----------------------------------------------------------------------
    1240                    ; 355 | assert(retVal > 0);                                                    
    1241                    ;----------------------------------------------------------------------
    1242 00000032 9908              LDR       A2, [SP, #32]         ; [DPU_V7M3_PIPE] |355|  ; [ORIG 16-BIT INS]
    1243 00000034 2000              MOVS      A1, #0                ; [DPU_V7M3_PIPE] |355|  ; [ORIG 16-BIT INS]
    1244 00000036 2900              CMP       A2, #0                ; [DPU_V7M3_PIPE] |355|  ; [ORIG 16-BIT INS]
    1245 00000038 DD00              BLE       ||$C$L3||             ; [DPU_V7M3_PIPE] |355|  ; [ORIG 16-BIT INS]
    1246                            ; BRANCHCC OCCURS {||$C$L3||}    ; [] |355| 
    1247                    ;* --------------------------------------------------------------------------*
    1248 0000003a 2001              MOVS      A1, #1                ; [DPU_V7M3_PIPE] |355|  ; [ORIG 16-BIT INS]
    1249                    ;* --------------------------------------------------------------------------*
    1250 0000003c           ||$C$L3||:    
    1251 0000003c B910              CBNZ      A1, ||$C$L4||         ; []  ; [ORIG 16-BIT INS]
    1252                            ; BRANCHCC OCCURS {||$C$L4||}    ; [] |355| 
    1253                    ;* --------------------------------------------------------------------------*
    1254 0000003e A00B              ADR       A1, $C$SL25           ; [DPU_V7M3_PIPE] |355|  ; [ORIG 16-BIT INS]
    1255                    $C$DW$151       .dwtag  DW_TAG_TI_branch
    1256                            .dwattr $C$DW$151, DW_AT_low_pc(0x00)
    1257                            .dwattr $C$DW$151, DW_AT_name("_abort_msg")
    1258                            .dwattr $C$DW$151, DW_AT_TI_call
    1259                    
    1260 00000040 FFFEF7FF!         BL        _abort_msg            ; [DPU_V7M3_PIPE] |355|  ; [KEEP 32-BIT INS]
    1261                            ; CALL OCCURS {_abort_msg }      ; [] |355| 
    1262                    ;* --------------------------------------------------------------------------*
    1263 00000044           ||$C$L4||:    
    1264                            .dwpsn  file "/vagrant/Q3_SDK_01/sdk_root/source/ti/drivers/net/wifi/slnetif/slwificonn.c",lin
    1265                    ;----------------------------------------------------------------------
TI ARM Assembler Unix v20.2.1 Wed Sep 16 12:09:22 2020

Copyright (c) 1996-2018 Texas Instruments Incorporated
slwificonn.asm                                                       PAGE   24

    1266                    ; 356 | if(retVal > 0)                                                         
    1267                    ;----------------------------------------------------------------------
    1268 00000044 9808              LDR       A1, [SP, #32]         ; [DPU_V7M3_PIPE] |356|  ; [ORIG 16-BIT INS]
    1269 00000046 2800              CMP       A1, #0                ; [DPU_V7M3_PIPE] |356|  ; [ORIG 16-BIT INS]
    1270 00000048 DD06              BLE       ||$C$L5||             ; [DPU_V7M3_PIPE] |356|  ; [ORIG 16-BIT INS]
    1271                            ; BRANCHCC OCCURS {||$C$L5||}    ; [] |356| 
    1272                    ;* --------------------------------------------------------------------------*
    1273                            .dwpsn  file "/vagrant/Q3_SDK_01/sdk_root/source/ti/drivers/net/wifi/slnetif/slwificonn.c",lin
    1274                    ;----------------------------------------------------------------------
    1275                    ; 358 | *pEvent = msg.event;                                                   
    1276                    ;----------------------------------------------------------------------
    1277 0000004a 0000F89D          LDRB      A1, [SP, #0]          ; [DPU_V7M3_PIPE] |358|  ; [KEEP 32-BIT INS]
    1278 0000004e 9906              LDR       A2, [SP, #24]         ; [DPU_V7M3_PIPE] |358|  ; [ORIG 16-BIT INS]
    1279 00000050 7008              STRB      A1, [A2, #0]          ; [DPU_V7M3_PIPE] |358|  ; [ORIG 16-BIT INS]
    1280                            .dwpsn  file "/vagrant/Q3_SDK_01/sdk_root/source/ti/drivers/net/wifi/slnetif/slwificonn.c",lin
    1281                    ;----------------------------------------------------------------------
    1282                    ; 359 | *ppParams = msg.pParams;                                               
    1283                    ; 361 | // return number of pending messages (after this one was read)         
    1284                    ;----------------------------------------------------------------------
    1285 00000052 9801              LDR       A1, [SP, #4]          ; [DPU_V7M3_PIPE] |359|  ; [ORIG 16-BIT INS]
    1286 00000054 9907              LDR       A2, [SP, #28]         ; [DPU_V7M3_PIPE] |359|  ; [ORIG 16-BIT INS]
    1287 00000056 6008              STR       A1, [A2, #0]          ; [DPU_V7M3_PIPE] |359|  ; [ORIG 16-BIT INS]
    1288                    ;* --------------------------------------------------------------------------*
    1289 00000058           ||$C$L5||:    
    1290                            .dwpsn  file "/vagrant/Q3_SDK_01/sdk_root/source/ti/drivers/net/wifi/slnetif/slwificonn.c",lin
    1291                    ;----------------------------------------------------------------------
    1292                    ; 362 | retVal = mqstat.mq_curmsgs - 1;                                        
    1293                    ; 364 | else                                                                   
    1294                    ;----------------------------------------------------------------------
    1295 00000058 9805              LDR       A1, [SP, #20]         ; [DPU_V7M3_PIPE] |362|  ; [ORIG 16-BIT INS]
    1296 0000005a 1E40              SUBS      A1, A1, #1            ; [DPU_V7M3_PIPE] |362|  ; [ORIG 16-BIT INS]
    1297 0000005c 9008              STR       A1, [SP, #32]         ; [DPU_V7M3_PIPE] |362|  ; [ORIG 16-BIT INS]
    1298 0000005e E002              B         ||$C$L7||             ; [DPU_V7M3_PIPE]  ; [ORIG 16-BIT INS]
    1299                            ; BRANCH OCCURS {||$C$L7||}      ; [] 
    1300                    ;* --------------------------------------------------------------------------*
    1301 00000060           ||$C$L6||:    
    1302                            .dwpsn  file "/vagrant/Q3_SDK_01/sdk_root/source/ti/drivers/net/wifi/slnetif/slwificonn.c",lin
    1303                    ;----------------------------------------------------------------------
    1304                    ; 366 | retVal = -1;                                                           
    1305                    ;----------------------------------------------------------------------
    1306 00000060 30FFF04F          MOV       A1, #-1               ; [DPU_V7M3_PIPE] |366|  ; [KEEP 32-BIT INS]
    1307 00000064 9008              STR       A1, [SP, #32]         ; [DPU_V7M3_PIPE] |366|  ; [ORIG 16-BIT INS]
    1308                    ;* --------------------------------------------------------------------------*
    1309 00000066           ||$C$L7||:    
    1310                            .dwpsn  file "/vagrant/Q3_SDK_01/sdk_root/source/ti/drivers/net/wifi/slnetif/slwificonn.c",lin
    1311                    ;----------------------------------------------------------------------
    1312                    ; 368 | return retVal;                                                         
    1313                    ;----------------------------------------------------------------------
    1314 00000066 9808              LDR       A1, [SP, #32]         ; [DPU_V7M3_PIPE] |368|  ; [ORIG 16-BIT INS]
    1315                            .dwpsn  file "/vagrant/Q3_SDK_01/sdk_root/source/ti/drivers/net/wifi/slnetif/slwificonn.c",lin
    1316 00000068 B009              ADD       SP, SP, #36           ; [DPU_V7M3_PIPE]  ; [ORIG 16-BIT INS]
    1317                            .dwcfi  cfa_offset, 4
    1318                    $C$DW$152       .dwtag  DW_TAG_TI_branch
    1319                            .dwattr $C$DW$152, DW_AT_low_pc(0x00)
    1320                            .dwattr $C$DW$152, DW_AT_TI_return
TI ARM Assembler Unix v20.2.1 Wed Sep 16 12:09:22 2020

Copyright (c) 1996-2018 Texas Instruments Incorporated
slwificonn.asm                                                       PAGE   25

    1321                    
    1322 0000006a BD00              POP       {PC}                  ; [DPU_V7M3_PIPE]  ; [ORIG 16-BIT INS]
    1323                            .dwcfi  cfa_offset, 0
    1324                            ; BRANCH OCCURS                  ; [] 
    1325                            .dwattr $C$DW$141, DW_AT_TI_end_file("/vagrant/Q3_SDK_01/sdk_root/source/ti/drivers/net/wifi/s
    1326                            .dwattr $C$DW$141, DW_AT_TI_end_line(0x171)
    1327                            .dwattr $C$DW$141, DW_AT_TI_end_column(0x01)
    1328                            .dwendentry
    1329                            .dwendtag $C$DW$141
    1330                    
    1331 00000000                   .sect   ".text:NonPersistentProfile_process"
    1332                            .clink
    1333                            .thumbfunc NonPersistentProfile_process
    1334 00000000                   .thumb
    1335                    
    1336                    $C$DW$153       .dwtag  DW_TAG_subprogram
    1337                            .dwattr $C$DW$153, DW_AT_name("NonPersistentProfile_process")
    1338                            .dwattr $C$DW$153, DW_AT_low_pc(NonPersistentProfile_process)
    1339                            .dwattr $C$DW$153, DW_AT_high_pc(0x00)
    1340                            .dwattr $C$DW$153, DW_AT_TI_symbol_name("NonPersistentProfile_process")
    1341                            .dwattr $C$DW$153, DW_AT_type(*$C$DW$T$10)
    1342                            .dwattr $C$DW$153, DW_AT_TI_begin_file("/vagrant/Q3_SDK_01/sdk_root/source/ti/drivers/net/wifi
    1343                            .dwattr $C$DW$153, DW_AT_TI_begin_line(0x179)
    1344                            .dwattr $C$DW$153, DW_AT_TI_begin_column(0x0c)
    1345                            .dwattr $C$DW$153, DW_AT_decl_file("/vagrant/Q3_SDK_01/sdk_root/source/ti/drivers/net/wifi/sln
    1346                            .dwattr $C$DW$153, DW_AT_decl_line(0x179)
    1347                            .dwattr $C$DW$153, DW_AT_decl_column(0x0c)
    1348                            .dwattr $C$DW$153, DW_AT_TI_max_frame_size(0x20)
    1349                            .dwpsn  file "/vagrant/Q3_SDK_01/sdk_root/source/ti/drivers/net/wifi/slnetif/slwificonn.c",lin
    1350                    
    1351                            .dwfde $C$DW$CIE, NonPersistentProfile_process
    1352                    $C$DW$154       .dwtag  DW_TAG_formal_parameter
    1353                            .dwattr $C$DW$154, DW_AT_name("bWlanDisconnect")
    1354                            .dwattr $C$DW$154, DW_AT_TI_symbol_name("bWlanDisconnect")
    1355                            .dwattr $C$DW$154, DW_AT_type(*$C$DW$T$10)
    1356                            .dwattr $C$DW$154, DW_AT_location[DW_OP_reg0]
    1357                    
    1358                    ;----------------------------------------------------------------------
    1359                    ; 377 | static int NonPersistentProfile_process(bool bWlanDisconnect)          
    1360                    ;----------------------------------------------------------------------
    1361                    
    1362                    ;*****************************************************************************
    1363                    ;* FUNCTION NAME: NonPersistentProfile_process                               *
    1364                    ;*                                                                           *
    1365                    ;*   Regs Modified     : A1,A2,A3,A4,V9,SP,LR,SR                             *
    1366                    ;*   Regs Used         : A1,A2,A3,A4,V9,SP,LR,SR                             *
    1367                    ;*   Local Frame Size  : 4 Args + 20 Auto + 4 Save = 28 byte                 *
    1368                    ;*****************************************************************************
    1369 00000000           NonPersistentProfile_process:
    1370                    ;* --------------------------------------------------------------------------*
    1371                            .dwcfi  cfa_offset, 0
    1372 00000000 B500              PUSH      {LR}                  ; [DPU_V7M3_PIPE]  ; [ORIG 16-BIT INS]
    1373                            .dwcfi  cfa_offset, 4
    1374                            .dwcfi  save_reg_to_mem, 14, -4
    1375 00000002 0D1CF1AD          SUB       SP, SP, #28           ; [DPU_V7M3_PIPE]  ; [KEEP 32-BIT INS]
TI ARM Assembler Unix v20.2.1 Wed Sep 16 12:09:22 2020

Copyright (c) 1996-2018 Texas Instruments Incorporated
slwificonn.asm                                                       PAGE   26

    1376                            .dwcfi  cfa_offset, 32
    1377                    $C$DW$155       .dwtag  DW_TAG_variable
    1378                            .dwattr $C$DW$155, DW_AT_name("retVal")
    1379                            .dwattr $C$DW$155, DW_AT_TI_symbol_name("retVal")
    1380                            .dwattr $C$DW$155, DW_AT_type(*$C$DW$T$10)
    1381                            .dwattr $C$DW$155, DW_AT_location[DW_OP_breg13 4]
    1382                    
    1383                    $C$DW$156       .dwtag  DW_TAG_variable
    1384                            .dwattr $C$DW$156, DW_AT_name("bWlanDisconnect")
    1385                            .dwattr $C$DW$156, DW_AT_TI_symbol_name("bWlanDisconnect")
    1386                            .dwattr $C$DW$156, DW_AT_type(*$C$DW$T$94)
    1387                            .dwattr $C$DW$156, DW_AT_location[DW_OP_breg13 8]
    1388                    
    1389 00000006 0008F88D          STRB      A1, [SP, #8]          ; [DPU_V7M3_PIPE] |378|  ; [KEEP 32-BIT INS]
    1390                            .dwpsn  file "/vagrant/Q3_SDK_01/sdk_root/source/ti/drivers/net/wifi/slnetif/slwificonn.c",lin
    1391                    ;----------------------------------------------------------------------
    1392                    ; 379 | int retVal = 0;                                                        
    1393                    ;----------------------------------------------------------------------
    1394 0000000a 2000              MOVS      A1, #0                ; [DPU_V7M3_PIPE] |379|  ; [ORIG 16-BIT INS]
    1395 0000000c 9001              STR       A1, [SP, #4]          ; [DPU_V7M3_PIPE] |379|  ; [ORIG 16-BIT INS]
    1396                            .dwpsn  file "/vagrant/Q3_SDK_01/sdk_root/source/ti/drivers/net/wifi/slnetif/slwificonn.c",lin
    1397                    ;----------------------------------------------------------------------
    1398                    ; 381 | if(bWlanDisconnect)                                                    
    1399                    ;----------------------------------------------------------------------
    1400 0000000e 0008F89D          LDRB      A1, [SP, #8]          ; [DPU_V7M3_PIPE] |381|  ; [KEEP 32-BIT INS]
    1401 00000012 B140              CBZ       A1, ||$C$L8||         ; []  ; [ORIG 16-BIT INS]
    1402                            ; BRANCHCC OCCURS {||$C$L8||}    ; [] |381| 
    1403                    ;* --------------------------------------------------------------------------*
    1404                            .dwpsn  file "/vagrant/Q3_SDK_01/sdk_root/source/ti/drivers/net/wifi/slnetif/slwificonn.c",lin
    1405                    ;----------------------------------------------------------------------
    1406                    ; 383 | retVal = sl_WlanDisconnect();                                          
    1407                    ;----------------------------------------------------------------------
    1408                    $C$DW$157       .dwtag  DW_TAG_TI_branch
    1409                            .dwattr $C$DW$157, DW_AT_low_pc(0x00)
    1410                            .dwattr $C$DW$157, DW_AT_name("sl_WlanDisconnect")
    1411                            .dwattr $C$DW$157, DW_AT_TI_call
    1412                    
    1413 00000014 FFFEF7FF!         BL        sl_WlanDisconnect     ; [DPU_V7M3_PIPE] |383|  ; [KEEP 32-BIT INS]
    1414                            ; CALL OCCURS {sl_WlanDisconnect }  ; [] |383| 
    1415 00000018 9001              STR       A1, [SP, #4]          ; [DPU_V7M3_PIPE] |383|  ; [ORIG 16-BIT INS]
    1416                            .dwpsn  file "/vagrant/Q3_SDK_01/sdk_root/source/ti/drivers/net/wifi/slnetif/slwificonn.c",lin
    1417                    ;----------------------------------------------------------------------
    1418                    ; 384 | g_ctx->bWlanConnectUsed = false;                                       
    1419                    ; 387 | else                                                                   
    1420                    ;----------------------------------------------------------------------
    1421 0000001a 4839              LDR       A1, $C$CON3           ; [DPU_V7M3_PIPE] |384|  ; [ORIG 16-BIT INS]
    1422 0000001c 6800              LDR       A1, [A1, #0]          ; [DPU_V7M3_PIPE] |384|  ; [ORIG 16-BIT INS]
    1423 0000001e 2100              MOVS      A2, #0                ; [DPU_V7M3_PIPE] |384|  ; [ORIG 16-BIT INS]
    1424 00000020 1074F880          STRB      A2, [A1, #116]        ; [DPU_V7M3_PIPE] |384|  ; [KEEP 32-BIT INS]
    1425 00000024 E02D              B         ||$C$L13||            ; [DPU_V7M3_PIPE]  ; [ORIG 16-BIT INS]
    1426                            ; BRANCH OCCURS {||$C$L13||}     ; [] 
    1427                    ;* --------------------------------------------------------------------------*
    1428                    ||$C$L8||:    
    1429                    
    1430                    $C$DW$158       .dwtag  DW_TAG_lexical_block
TI ARM Assembler Unix v20.2.1 Wed Sep 16 12:09:22 2020

Copyright (c) 1996-2018 Texas Instruments Incorporated
slwificonn.asm                                                       PAGE   27

    1431                            .dwattr $C$DW$158, DW_AT_low_pc(0x00)
    1432                            .dwattr $C$DW$158, DW_AT_high_pc(0x00)
    1433                    $C$DW$159       .dwtag  DW_TAG_variable
    1434                            .dwattr $C$DW$159, DW_AT_name("pProf")
    1435                            .dwattr $C$DW$159, DW_AT_TI_symbol_name("pProf")
    1436                            .dwattr $C$DW$159, DW_AT_type(*$C$DW$T$99)
    1437                            .dwattr $C$DW$159, DW_AT_location[DW_OP_breg13 12]
    1438                    
    1439                            .dwpsn  file "/vagrant/Q3_SDK_01/sdk_root/source/ti/drivers/net/wifi/slnetif/slwificonn.c",lin
    1440                    ;----------------------------------------------------------------------
    1441                    ; 389 | profile_t *pProf = (profile_t *)g_ctx->pNonPersistentProfile;          
    1442                    ;----------------------------------------------------------------------
    1443 00000026 4836              LDR       A1, $C$CON3           ; [DPU_V7M3_PIPE] |389|  ; [ORIG 16-BIT INS]
    1444 00000028 6800              LDR       A1, [A1, #0]          ; [DPU_V7M3_PIPE] |389|  ; [ORIG 16-BIT INS]
    1445 0000002a 6F00              LDR       A1, [A1, #112]        ; [DPU_V7M3_PIPE] |389|  ; [ORIG 16-BIT INS]
    1446 0000002c 9003              STR       A1, [SP, #12]         ; [DPU_V7M3_PIPE] |389|  ; [ORIG 16-BIT INS]
    1447                            .dwpsn  file "/vagrant/Q3_SDK_01/sdk_root/source/ti/drivers/net/wifi/slnetif/slwificonn.c",lin
    1448                    ;----------------------------------------------------------------------
    1449                    ; 391 | if(pProf)                                                              
    1450                    ;----------------------------------------------------------------------
    1451 0000002e 9803              LDR       A1, [SP, #12]         ; [DPU_V7M3_PIPE] |391|  ; [ORIG 16-BIT INS]
    1452 00000030 2800              CMP       A1, #0                ; [DPU_V7M3_PIPE] |391|  ; [ORIG 16-BIT INS]
    1453 00000032 D026              BEQ       ||$C$L12||            ; [DPU_V7M3_PIPE] |391|  ; [ORIG 16-BIT INS]
    1454                            ; BRANCHCC OCCURS {||$C$L12||}   ; [] |391| 
    1455                    ;* --------------------------------------------------------------------------*
    1456                    
    1457                    $C$DW$160       .dwtag  DW_TAG_lexical_block
    1458                            .dwattr $C$DW$160, DW_AT_low_pc(0x00)
    1459                            .dwattr $C$DW$160, DW_AT_high_pc(0x00)
    1460                    $C$DW$161       .dwtag  DW_TAG_variable
    1461                            .dwattr $C$DW$161, DW_AT_name("pBssid")
    1462                            .dwattr $C$DW$161, DW_AT_TI_symbol_name("pBssid")
    1463                            .dwattr $C$DW$161, DW_AT_type(*$C$DW$T$477)
    1464                            .dwattr $C$DW$161, DW_AT_location[DW_OP_breg13 16]
    1465                    
    1466                    $C$DW$162       .dwtag  DW_TAG_variable
    1467                            .dwattr $C$DW$162, DW_AT_name("pSecParamsExt")
    1468                            .dwattr $C$DW$162, DW_AT_TI_symbol_name("pSecParamsExt")
    1469                            .dwattr $C$DW$162, DW_AT_type(*$C$DW$T$672)
    1470                            .dwattr $C$DW$162, DW_AT_location[DW_OP_breg13 20]
    1471                    
    1472                            .dwpsn  file "/vagrant/Q3_SDK_01/sdk_root/source/ti/drivers/net/wifi/slnetif/slwificonn.c",lin
    1473                    ;----------------------------------------------------------------------
    1474                    ; 393 | uint8_t *pBssid = NULL;                                                
    1475                    ;----------------------------------------------------------------------
    1476 00000034 2000              MOVS      A1, #0                ; [DPU_V7M3_PIPE] |393|  ; [ORIG 16-BIT INS]
    1477 00000036 9004              STR       A1, [SP, #16]         ; [DPU_V7M3_PIPE] |393|  ; [ORIG 16-BIT INS]
    1478                            .dwpsn  file "/vagrant/Q3_SDK_01/sdk_root/source/ti/drivers/net/wifi/slnetif/slwificonn.c",lin
    1479                    ;----------------------------------------------------------------------
    1480                    ; 394 | SlWlanSecParamsExt_t *pSecParamsExt = NULL;                            
    1481                    ;----------------------------------------------------------------------
    1482 00000038 2000              MOVS      A1, #0                ; [DPU_V7M3_PIPE] |394|  ; [ORIG 16-BIT INS]
    1483 0000003a 9005              STR       A1, [SP, #20]         ; [DPU_V7M3_PIPE] |394|  ; [ORIG 16-BIT INS]
    1484                            .dwpsn  file "/vagrant/Q3_SDK_01/sdk_root/source/ti/drivers/net/wifi/slnetif/slwificonn.c",lin
    1485                    ;----------------------------------------------------------------------
TI ARM Assembler Unix v20.2.1 Wed Sep 16 12:09:22 2020

Copyright (c) 1996-2018 Texas Instruments Incorporated
slwificonn.asm                                                       PAGE   28

    1486                    ; 395 | assert(pProf);                                                         
    1487                    ;----------------------------------------------------------------------
    1488 0000003c 9803              LDR       A1, [SP, #12]         ; [DPU_V7M3_PIPE] |395|  ; [ORIG 16-BIT INS]
    1489 0000003e B910              CBNZ      A1, ||$C$L9||         ; []  ; [ORIG 16-BIT INS]
    1490                            ; BRANCHCC OCCURS {||$C$L9||}    ; [] |395| 
    1491                    ;* --------------------------------------------------------------------------*
    1492 00000040 A011              ADR       A1, $C$SL26           ; [DPU_V7M3_PIPE] |395|  ; [ORIG 16-BIT INS]
    1493                    $C$DW$163       .dwtag  DW_TAG_TI_branch
    1494                            .dwattr $C$DW$163, DW_AT_low_pc(0x00)
    1495                            .dwattr $C$DW$163, DW_AT_name("_abort_msg")
    1496                            .dwattr $C$DW$163, DW_AT_TI_call
    1497                    
    1498 00000042 FFFEF7FF!         BL        _abort_msg            ; [DPU_V7M3_PIPE] |395|  ; [KEEP 32-BIT INS]
    1499                            ; CALL OCCURS {_abort_msg }      ; [] |395| 
    1500                    ;* --------------------------------------------------------------------------*
    1501 00000046           ||$C$L9||:    
    1502                            .dwpsn  file "/vagrant/Q3_SDK_01/sdk_root/source/ti/drivers/net/wifi/slnetif/slwificonn.c",lin
    1503                    ;----------------------------------------------------------------------
    1504                    ; 396 | if(pProf->bSetBssid)                                                   
    1505                    ;----------------------------------------------------------------------
    1506 00000046 9803              LDR       A1, [SP, #12]         ; [DPU_V7M3_PIPE] |396|  ; [ORIG 16-BIT INS]
    1507 00000048 7840              LDRB      A1, [A1, #1]          ; [DPU_V7M3_PIPE] |396|  ; [ORIG 16-BIT INS]
    1508 0000004a B110              CBZ       A1, ||$C$L10||        ; []  ; [ORIG 16-BIT INS]
    1509                            ; BRANCHCC OCCURS {||$C$L10||}   ; [] |396| 
    1510                    ;* --------------------------------------------------------------------------*
    1511                            .dwpsn  file "/vagrant/Q3_SDK_01/sdk_root/source/ti/drivers/net/wifi/slnetif/slwificonn.c",lin
    1512                    ;----------------------------------------------------------------------
    1513                    ; 398 | pBssid = pProf->bssid;                                                 
    1514                    ;----------------------------------------------------------------------
    1515 0000004c 9803              LDR       A1, [SP, #12]         ; [DPU_V7M3_PIPE] |398|  ; [ORIG 16-BIT INS]
    1516 0000004e 1C80              ADDS      A1, A1, #2            ; [DPU_V7M3_PIPE] |398|  ; [ORIG 16-BIT INS]
    1517 00000050 9004              STR       A1, [SP, #16]         ; [DPU_V7M3_PIPE] |398|  ; [ORIG 16-BIT INS]
    1518                    ;* --------------------------------------------------------------------------*
    1519 00000052           ||$C$L10||:    
    1520                            .dwpsn  file "/vagrant/Q3_SDK_01/sdk_root/source/ti/drivers/net/wifi/slnetif/slwificonn.c",lin
    1521                    ;----------------------------------------------------------------------
    1522                    ; 400 | if(pProf->secParams.Type == SL_WLAN_SEC_TYPE_WPA_ENT)                  
    1523                    ;----------------------------------------------------------------------
    1524 00000052 9803              LDR       A1, [SP, #12]         ; [DPU_V7M3_PIPE] |400|  ; [ORIG 16-BIT INS]
    1525 00000054 7A00              LDRB      A1, [A1, #8]          ; [DPU_V7M3_PIPE] |400|  ; [ORIG 16-BIT INS]
    1526 00000056 2805              CMP       A1, #5                ; [DPU_V7M3_PIPE] |400|  ; [ORIG 16-BIT INS]
    1527 00000058 D102              BNE       ||$C$L11||            ; [DPU_V7M3_PIPE] |400|  ; [ORIG 16-BIT INS]
    1528                            ; BRANCHCC OCCURS {||$C$L11||}   ; [] |400| 
    1529                    ;* --------------------------------------------------------------------------*
    1530                            .dwpsn  file "/vagrant/Q3_SDK_01/sdk_root/source/ti/drivers/net/wifi/slnetif/slwificonn.c",lin
    1531                    ;----------------------------------------------------------------------
    1532                    ; 402 | pSecParamsExt = &pProf->extSecParams;                                  
    1533                    ;----------------------------------------------------------------------
    1534 0000005a 9803              LDR       A1, [SP, #12]         ; [DPU_V7M3_PIPE] |402|  ; [ORIG 16-BIT INS]
    1535 0000005c 3014              ADDS      A1, A1, #20           ; [DPU_V7M3_PIPE] |402|  ; [ORIG 16-BIT INS]
    1536 0000005e 9005              STR       A1, [SP, #20]         ; [DPU_V7M3_PIPE] |402|  ; [ORIG 16-BIT INS]
    1537                    ;* --------------------------------------------------------------------------*
    1538 00000060           ||$C$L11||:    
    1539                            .dwpsn  file "/vagrant/Q3_SDK_01/sdk_root/source/ti/drivers/net/wifi/slnetif/slwificonn.c",lin
    1540                    ;----------------------------------------------------------------------
TI ARM Assembler Unix v20.2.1 Wed Sep 16 12:09:22 2020

Copyright (c) 1996-2018 Texas Instruments Incorporated
slwificonn.asm                                                       PAGE   29

    1541                    ; 404 | retVal = sl_WlanConnect(PROFILE_SSID(pProf), pProf->ssidLen, pBssid, &p
    1542                    ;     | Prof->secParams, pSecParamsExt);                                       
    1543                    ;----------------------------------------------------------------------
    1544 00000060 9805              LDR       A1, [SP, #20]         ; [DPU_V7M3_PIPE] |404|  ; [ORIG 16-BIT INS]
    1545 00000062 9000              STR       A1, [SP, #0]          ; [DPU_V7M3_PIPE] |404|  ; [ORIG 16-BIT INS]
    1546 00000064 9903              LDR       A2, [SP, #12]         ; [DPU_V7M3_PIPE] |404|  ; [ORIG 16-BIT INS]
    1547 00000066 9B03              LDR       A4, [SP, #12]         ; [DPU_V7M3_PIPE] |404|  ; [ORIG 16-BIT INS]
    1548 00000068 9A04              LDR       A3, [SP, #16]         ; [DPU_V7M3_PIPE] |404|  ; [ORIG 16-BIT INS]
    1549 0000006a 9803              LDR       A1, [SP, #12]         ; [DPU_V7M3_PIPE] |404|  ; [ORIG 16-BIT INS]
    1550 0000006c 7809              LDRB      A2, [A2, #0]          ; [DPU_V7M3_PIPE] |404|  ; [ORIG 16-BIT INS]
    1551 0000006e 3308              ADDS      A4, A4, #8            ; [DPU_V7M3_PIPE] |404|  ; [ORIG 16-BIT INS]
    1552 00000070 302C              ADDS      A1, A1, #44           ; [DPU_V7M3_PIPE] |404|  ; [ORIG 16-BIT INS]
    1553                    $C$DW$164       .dwtag  DW_TAG_TI_branch
    1554                            .dwattr $C$DW$164, DW_AT_low_pc(0x00)
    1555                            .dwattr $C$DW$164, DW_AT_name("sl_WlanConnect")
    1556                            .dwattr $C$DW$164, DW_AT_TI_call
    1557                    
    1558 00000072 FFFEF7FF!         BL        sl_WlanConnect        ; [DPU_V7M3_PIPE] |404|  ; [KEEP 32-BIT INS]
    1559                            ; CALL OCCURS {sl_WlanConnect }  ; [] |404| 
    1560 00000076 9001              STR       A1, [SP, #4]          ; [DPU_V7M3_PIPE] |404|  ; [ORIG 16-BIT INS]
    1561                            .dwpsn  file "/vagrant/Q3_SDK_01/sdk_root/source/ti/drivers/net/wifi/slnetif/slwificonn.c",lin
    1562                    ;----------------------------------------------------------------------
    1563                    ; 405 | g_ctx->bWlanConnectUsed = true;                                        
    1564                    ;----------------------------------------------------------------------
    1565 00000078 4821              LDR       A1, $C$CON3           ; [DPU_V7M3_PIPE] |405|  ; [ORIG 16-BIT INS]
    1566 0000007a 6800              LDR       A1, [A1, #0]          ; [DPU_V7M3_PIPE] |405|  ; [ORIG 16-BIT INS]
    1567 0000007c 2101              MOVS      A2, #1                ; [DPU_V7M3_PIPE] |405|  ; [ORIG 16-BIT INS]
    1568 0000007e 1074F880          STRB      A2, [A1, #116]        ; [DPU_V7M3_PIPE] |405|  ; [KEEP 32-BIT INS]
    1569                            .dwendtag $C$DW$160
    1570                    
    1571                    ;* --------------------------------------------------------------------------*
    1572                    ||$C$L12||:    
    1573                            .dwendtag $C$DW$158
    1574                    
    1575                    ;* --------------------------------------------------------------------------*
    1576 00000082           ||$C$L13||:    
    1577                            .dwpsn  file "/vagrant/Q3_SDK_01/sdk_root/source/ti/drivers/net/wifi/slnetif/slwificonn.c",lin
    1578                    ;----------------------------------------------------------------------
    1579                    ; 408 | return retVal;                                                         
    1580                    ;----------------------------------------------------------------------
    1581 00000082 9801              LDR       A1, [SP, #4]          ; [DPU_V7M3_PIPE] |408|  ; [ORIG 16-BIT INS]
    1582                            .dwpsn  file "/vagrant/Q3_SDK_01/sdk_root/source/ti/drivers/net/wifi/slnetif/slwificonn.c",lin
    1583 00000084 B007              ADD       SP, SP, #28           ; [DPU_V7M3_PIPE]  ; [ORIG 16-BIT INS]
    1584                            .dwcfi  cfa_offset, 4
    1585                    $C$DW$165       .dwtag  DW_TAG_TI_branch
    1586                            .dwattr $C$DW$165, DW_AT_low_pc(0x00)
    1587                            .dwattr $C$DW$165, DW_AT_TI_return
    1588                    
    1589 00000086 BD00              POP       {PC}                  ; [DPU_V7M3_PIPE]  ; [ORIG 16-BIT INS]
    1590                            .dwcfi  cfa_offset, 0
    1591                            ; BRANCH OCCURS                  ; [] 
    1592                            .dwattr $C$DW$153, DW_AT_TI_end_file("/vagrant/Q3_SDK_01/sdk_root/source/ti/drivers/net/wifi/s
    1593                            .dwattr $C$DW$153, DW_AT_TI_end_line(0x199)
    1594                            .dwattr $C$DW$153, DW_AT_TI_end_column(0x01)
    1595                            .dwendentry
TI ARM Assembler Unix v20.2.1 Wed Sep 16 12:09:22 2020

Copyright (c) 1996-2018 Texas Instruments Incorporated
slwificonn.asm                                                       PAGE   30

    1596                            .dwendtag $C$DW$153
    1597                    
    1598 00000000                   .sect   ".text:DeferredEvent_process"
    1599                            .clink
    1600                            .thumbfunc DeferredEvent_process
    1601 00000000                   .thumb
    1602                    
    1603                    $C$DW$166       .dwtag  DW_TAG_subprogram
    1604                            .dwattr $C$DW$166, DW_AT_name("DeferredEvent_process")
    1605                            .dwattr $C$DW$166, DW_AT_low_pc(DeferredEvent_process)
    1606                            .dwattr $C$DW$166, DW_AT_high_pc(0x00)
    1607                            .dwattr $C$DW$166, DW_AT_TI_symbol_name("DeferredEvent_process")
    1608                            .dwattr $C$DW$166, DW_AT_type(*$C$DW$T$10)
    1609                            .dwattr $C$DW$166, DW_AT_TI_begin_file("/vagrant/Q3_SDK_01/sdk_root/source/ti/drivers/net/wifi
    1610                            .dwattr $C$DW$166, DW_AT_TI_begin_line(0x1a0)
    1611                            .dwattr $C$DW$166, DW_AT_TI_begin_column(0x0c)
    1612                            .dwattr $C$DW$166, DW_AT_decl_file("/vagrant/Q3_SDK_01/sdk_root/source/ti/drivers/net/wifi/sln
    1613                            .dwattr $C$DW$166, DW_AT_decl_line(0x1a0)
    1614                            .dwattr $C$DW$166, DW_AT_decl_column(0x0c)
    1615                            .dwattr $C$DW$166, DW_AT_TI_max_frame_size(0x28)
    1616                            .dwpsn  file "/vagrant/Q3_SDK_01/sdk_root/source/ti/drivers/net/wifi/slnetif/slwificonn.c",lin
    1617                    
    1618                            .dwfde $C$DW$CIE, DeferredEvent_process
    1619                    ;----------------------------------------------------------------------
    1620                    ; 416 | static int DeferredEvent_process()                                     
    1621                    ;----------------------------------------------------------------------
    1622                    
    1623                    ;*****************************************************************************
    1624                    ;* FUNCTION NAME: DeferredEvent_process                                      *
    1625                    ;*                                                                           *
    1626                    ;*   Regs Modified     : A1,A2,A3,A4,V9,SP,LR,SR                             *
    1627                    ;*   Regs Used         : A1,A2,A3,A4,V9,SP,LR,SR                             *
    1628                    ;*   Local Frame Size  : 12 Args + 24 Auto + 4 Save = 40 byte                *
    1629                    ;*****************************************************************************
    1630 00000000           DeferredEvent_process:
    1631                    ;* --------------------------------------------------------------------------*
    1632                            .dwcfi  cfa_offset, 0
    1633 00000000 B500              PUSH      {LR}                  ; [DPU_V7M3_PIPE]  ; [ORIG 16-BIT INS]
    1634                            .dwcfi  cfa_offset, 4
    1635                            .dwcfi  save_reg_to_mem, 14, -4
    1636 00000002 0D24F1AD          SUB       SP, SP, #36           ; [DPU_V7M3_PIPE]  ; [KEEP 32-BIT INS]
    1637                            .dwcfi  cfa_offset, 40
    1638                    $C$DW$167       .dwtag  DW_TAG_variable
    1639                            .dwattr $C$DW$167, DW_AT_name("retVal")
    1640                            .dwattr $C$DW$167, DW_AT_TI_symbol_name("retVal")
    1641                            .dwattr $C$DW$167, DW_AT_type(*$C$DW$T$10)
    1642                            .dwattr $C$DW$167, DW_AT_location[DW_OP_breg13 12]
    1643                    
    1644                    $C$DW$168       .dwtag  DW_TAG_variable
    1645                            .dwattr $C$DW$168, DW_AT_name("pParams")
    1646                            .dwattr $C$DW$168, DW_AT_TI_symbol_name("pParams")
    1647                            .dwattr $C$DW$168, DW_AT_type(*$C$DW$T$3)
    1648                            .dwattr $C$DW$168, DW_AT_location[DW_OP_breg13 16]
    1649                    
    1650                    $C$DW$169       .dwtag  DW_TAG_variable
TI ARM Assembler Unix v20.2.1 Wed Sep 16 12:09:22 2020

Copyright (c) 1996-2018 Texas Instruments Incorporated
slwificonn.asm                                                       PAGE   31

    1651                            .dwattr $C$DW$169, DW_AT_name("deferredEvent")
    1652                            .dwattr $C$DW$169, DW_AT_TI_symbol_name("deferredEvent")
    1653                            .dwattr $C$DW$169, DW_AT_type(*$C$DW$T$102)
    1654                            .dwattr $C$DW$169, DW_AT_location[DW_OP_breg13 20]
    1655                    
    1656                            .dwpsn  file "/vagrant/Q3_SDK_01/sdk_root/source/ti/drivers/net/wifi/slnetif/slwificonn.c",lin
    1657                    ;----------------------------------------------------------------------
    1658                    ; 418 | int retVal = SL_RET_OBJ_NOT_SET;                                       
    1659                    ; 419 | SLWIFICONN_EVENT_e deferredEvent;                                      
    1660                    ; 420 | void *pParams;                                                         
    1661                    ;----------------------------------------------------------------------
    1662 00000006 4844              LDR       A1, $C$CON4           ; [DPU_V7M3_PIPE] |418|  ; [ORIG 16-BIT INS]
    1663 00000008 9003              STR       A1, [SP, #12]         ; [DPU_V7M3_PIPE] |418|  ; [ORIG 16-BIT INS]
    1664                            .dwpsn  file "/vagrant/Q3_SDK_01/sdk_root/source/ti/drivers/net/wifi/slnetif/slwificonn.c",lin
    1665                    ;----------------------------------------------------------------------
    1666                    ; 421 | while (DeferredEvent_dequeue(&deferredEvent, &pParams) >= 0)           
    1667                    ;----------------------------------------------------------------------
    1668 0000000a E03B              B         ||$C$L21||            ; [DPU_V7M3_PIPE] |421|  ; [ORIG 16-BIT INS]
    1669                            ; BRANCH OCCURS {||$C$L21||}     ; [] |421| 
    1670                    ;* --------------------------------------------------------------------------*
    1671                    ||$C$L14||:    
    1672                    
    1673                    $C$DW$170       .dwtag  DW_TAG_lexical_block
    1674                            .dwattr $C$DW$170, DW_AT_low_pc(0x00)
    1675                            .dwattr $C$DW$170, DW_AT_high_pc(0x00)
    1676                            .dwpsn  file "/vagrant/Q3_SDK_01/sdk_root/source/ti/drivers/net/wifi/slnetif/slwificonn.c",lin
    1677                    ;----------------------------------------------------------------------
    1678                    ; 423 | if(deferredEvent == SLWIFICONN_EVENT_ADD_PROFILE)                      
    1679                    ;----------------------------------------------------------------------
    1680 0000000c 0014F89D          LDRB      A1, [SP, #20]         ; [DPU_V7M3_PIPE] |423|  ; [KEEP 32-BIT INS]
    1681 00000010 280B              CMP       A1, #11               ; [DPU_V7M3_PIPE] |423|  ; [ORIG 16-BIT INS]
    1682 00000012 D12A              BNE       ||$C$L18||            ; [DPU_V7M3_PIPE] |423|  ; [ORIG 16-BIT INS]
    1683                            ; BRANCHCC OCCURS {||$C$L18||}   ; [] |423| 
    1684                    ;* --------------------------------------------------------------------------*
    1685                    
    1686                    $C$DW$171       .dwtag  DW_TAG_lexical_block
    1687                            .dwattr $C$DW$171, DW_AT_low_pc(0x00)
    1688                            .dwattr $C$DW$171, DW_AT_high_pc(0x00)
    1689                            .dwpsn  file "/vagrant/Q3_SDK_01/sdk_root/source/ti/drivers/net/wifi/slnetif/slwificonn.c",lin
    1690                    ;----------------------------------------------------------------------
    1691                    ; 425 | if(pParams)                                                            
    1692                    ;----------------------------------------------------------------------
    1693 00000014 9804              LDR       A1, [SP, #16]         ; [DPU_V7M3_PIPE] |425|  ; [ORIG 16-BIT INS]
    1694 00000016 2800              CMP       A1, #0                ; [DPU_V7M3_PIPE] |425|  ; [ORIG 16-BIT INS]
    1695 00000018 D027              BEQ       ||$C$L17||            ; [DPU_V7M3_PIPE] |425|  ; [ORIG 16-BIT INS]
    1696                            ; BRANCHCC OCCURS {||$C$L17||}   ; [] |425| 
    1697                    ;* --------------------------------------------------------------------------*
    1698                    
    1699                    $C$DW$172       .dwtag  DW_TAG_lexical_block
    1700                            .dwattr $C$DW$172, DW_AT_low_pc(0x00)
    1701                            .dwattr $C$DW$172, DW_AT_high_pc(0x00)
    1702                    $C$DW$173       .dwtag  DW_TAG_variable
    1703                            .dwattr $C$DW$173, DW_AT_name("pBssid")
    1704                            .dwattr $C$DW$173, DW_AT_TI_symbol_name("pBssid")
    1705                            .dwattr $C$DW$173, DW_AT_type(*$C$DW$T$477)
TI ARM Assembler Unix v20.2.1 Wed Sep 16 12:09:22 2020

Copyright (c) 1996-2018 Texas Instruments Incorporated
slwificonn.asm                                                       PAGE   32

    1706                            .dwattr $C$DW$173, DW_AT_location[DW_OP_breg13 24]
    1707                    
    1708                    $C$DW$174       .dwtag  DW_TAG_variable
    1709                            .dwattr $C$DW$174, DW_AT_name("pSecParamsExt")
    1710                            .dwattr $C$DW$174, DW_AT_TI_symbol_name("pSecParamsExt")
    1711                            .dwattr $C$DW$174, DW_AT_type(*$C$DW$T$672)
    1712                            .dwattr $C$DW$174, DW_AT_location[DW_OP_breg13 28]
    1713                    
    1714                    $C$DW$175       .dwtag  DW_TAG_variable
    1715                            .dwattr $C$DW$175, DW_AT_name("pProf")
    1716                            .dwattr $C$DW$175, DW_AT_TI_symbol_name("pProf")
    1717                            .dwattr $C$DW$175, DW_AT_type(*$C$DW$T$99)
    1718                            .dwattr $C$DW$175, DW_AT_location[DW_OP_breg13 32]
    1719                    
    1720                            .dwpsn  file "/vagrant/Q3_SDK_01/sdk_root/source/ti/drivers/net/wifi/slnetif/slwificonn.c",lin
    1721                    ;----------------------------------------------------------------------
    1722                    ; 427 | uint8_t *pBssid = NULL;                                                
    1723                    ;----------------------------------------------------------------------
    1724 0000001a 2000              MOVS      A1, #0                ; [DPU_V7M3_PIPE] |427|  ; [ORIG 16-BIT INS]
    1725 0000001c 9006              STR       A1, [SP, #24]         ; [DPU_V7M3_PIPE] |427|  ; [ORIG 16-BIT INS]
    1726                            .dwpsn  file "/vagrant/Q3_SDK_01/sdk_root/source/ti/drivers/net/wifi/slnetif/slwificonn.c",lin
    1727                    ;----------------------------------------------------------------------
    1728                    ; 428 | SlWlanSecParamsExt_t *pSecParamsExt = NULL;                            
    1729                    ;----------------------------------------------------------------------
    1730 0000001e 2000              MOVS      A1, #0                ; [DPU_V7M3_PIPE] |428|  ; [ORIG 16-BIT INS]
    1731 00000020 9007              STR       A1, [SP, #28]         ; [DPU_V7M3_PIPE] |428|  ; [ORIG 16-BIT INS]
    1732                            .dwpsn  file "/vagrant/Q3_SDK_01/sdk_root/source/ti/drivers/net/wifi/slnetif/slwificonn.c",lin
    1733                    ;----------------------------------------------------------------------
    1734                    ; 429 | profile_t *pProf = (profile_t *)pParams;                               
    1735                    ;----------------------------------------------------------------------
    1736 00000022 9804              LDR       A1, [SP, #16]         ; [DPU_V7M3_PIPE] |429|  ; [ORIG 16-BIT INS]
    1737 00000024 9008              STR       A1, [SP, #32]         ; [DPU_V7M3_PIPE] |429|  ; [ORIG 16-BIT INS]
    1738                            .dwpsn  file "/vagrant/Q3_SDK_01/sdk_root/source/ti/drivers/net/wifi/slnetif/slwificonn.c",lin
    1739                    ;----------------------------------------------------------------------
    1740                    ; 430 | if(pProf->bSetBssid)                                                   
    1741                    ;----------------------------------------------------------------------
    1742 00000026 9808              LDR       A1, [SP, #32]         ; [DPU_V7M3_PIPE] |430|  ; [ORIG 16-BIT INS]
    1743 00000028 7840              LDRB      A1, [A1, #1]          ; [DPU_V7M3_PIPE] |430|  ; [ORIG 16-BIT INS]
    1744 0000002a B110              CBZ       A1, ||$C$L15||        ; []  ; [ORIG 16-BIT INS]
    1745                            ; BRANCHCC OCCURS {||$C$L15||}   ; [] |430| 
    1746                    ;* --------------------------------------------------------------------------*
    1747                            .dwpsn  file "/vagrant/Q3_SDK_01/sdk_root/source/ti/drivers/net/wifi/slnetif/slwificonn.c",lin
    1748                    ;----------------------------------------------------------------------
    1749                    ; 432 | pBssid = pProf->bssid;                                                 
    1750                    ;----------------------------------------------------------------------
    1751 0000002c 9808              LDR       A1, [SP, #32]         ; [DPU_V7M3_PIPE] |432|  ; [ORIG 16-BIT INS]
    1752 0000002e 1C80              ADDS      A1, A1, #2            ; [DPU_V7M3_PIPE] |432|  ; [ORIG 16-BIT INS]
    1753 00000030 9006              STR       A1, [SP, #24]         ; [DPU_V7M3_PIPE] |432|  ; [ORIG 16-BIT INS]
    1754                    ;* --------------------------------------------------------------------------*
    1755 00000032           ||$C$L15||:    
    1756                            .dwpsn  file "/vagrant/Q3_SDK_01/sdk_root/source/ti/drivers/net/wifi/slnetif/slwificonn.c",lin
    1757                    ;----------------------------------------------------------------------
    1758                    ; 434 | if(pProf->secParams.Type == SL_WLAN_SEC_TYPE_WPA_ENT)                  
    1759                    ;----------------------------------------------------------------------
    1760 00000032 9808              LDR       A1, [SP, #32]         ; [DPU_V7M3_PIPE] |434|  ; [ORIG 16-BIT INS]
TI ARM Assembler Unix v20.2.1 Wed Sep 16 12:09:22 2020

Copyright (c) 1996-2018 Texas Instruments Incorporated
slwificonn.asm                                                       PAGE   33

    1761 00000034 7A00              LDRB      A1, [A1, #8]          ; [DPU_V7M3_PIPE] |434|  ; [ORIG 16-BIT INS]
    1762 00000036 2805              CMP       A1, #5                ; [DPU_V7M3_PIPE] |434|  ; [ORIG 16-BIT INS]
    1763 00000038 D102              BNE       ||$C$L16||            ; [DPU_V7M3_PIPE] |434|  ; [ORIG 16-BIT INS]
    1764                            ; BRANCHCC OCCURS {||$C$L16||}   ; [] |434| 
    1765                    ;* --------------------------------------------------------------------------*
    1766                            .dwpsn  file "/vagrant/Q3_SDK_01/sdk_root/source/ti/drivers/net/wifi/slnetif/slwificonn.c",lin
    1767                    ;----------------------------------------------------------------------
    1768                    ; 436 | pSecParamsExt = &pProf->extSecParams;                                  
    1769                    ;----------------------------------------------------------------------
    1770 0000003a 9808              LDR       A1, [SP, #32]         ; [DPU_V7M3_PIPE] |436|  ; [ORIG 16-BIT INS]
    1771 0000003c 3014              ADDS      A1, A1, #20           ; [DPU_V7M3_PIPE] |436|  ; [ORIG 16-BIT INS]
    1772 0000003e 9007              STR       A1, [SP, #28]         ; [DPU_V7M3_PIPE] |436|  ; [ORIG 16-BIT INS]
    1773                    ;* --------------------------------------------------------------------------*
    1774 00000040           ||$C$L16||:    
    1775                            .dwpsn  file "/vagrant/Q3_SDK_01/sdk_root/source/ti/drivers/net/wifi/slnetif/slwificonn.c",lin
    1776                    ;----------------------------------------------------------------------
    1777                    ; 438 | retVal = sl_WlanProfileAdd(PROFILE_SSID(pProf), pProf->ssidLen, pBssid,
    1778                    ;     |  &pProf->secParams, pSecParamsExt, pProf->priority, 0);                
    1779                    ;----------------------------------------------------------------------
    1780 00000040 9907              LDR       A2, [SP, #28]         ; [DPU_V7M3_PIPE] |438|  ; [ORIG 16-BIT INS]
    1781 00000042 9808              LDR       A1, [SP, #32]         ; [DPU_V7M3_PIPE] |438|  ; [ORIG 16-BIT INS]
    1782 00000044 9100              STR       A2, [SP, #0]          ; [DPU_V7M3_PIPE] |438|  ; [ORIG 16-BIT INS]
    1783 00000046 0028F890          LDRB      A1, [A1, #40]         ; [DPU_V7M3_PIPE] |438|  ; [KEEP 32-BIT INS]
    1784 0000004a 9001              STR       A1, [SP, #4]          ; [DPU_V7M3_PIPE] |438|  ; [ORIG 16-BIT INS]
    1785 0000004c 2000              MOVS      A1, #0                ; [DPU_V7M3_PIPE] |438|  ; [ORIG 16-BIT INS]
    1786 0000004e 9002              STR       A1, [SP, #8]          ; [DPU_V7M3_PIPE] |438|  ; [ORIG 16-BIT INS]
    1787 00000050 9B08              LDR       A4, [SP, #32]         ; [DPU_V7M3_PIPE] |438|  ; [ORIG 16-BIT INS]
    1788 00000052 9908              LDR       A2, [SP, #32]         ; [DPU_V7M3_PIPE] |438|  ; [ORIG 16-BIT INS]
    1789 00000054 9808              LDR       A1, [SP, #32]         ; [DPU_V7M3_PIPE] |438|  ; [ORIG 16-BIT INS]
    1790 00000056 9A06              LDR       A3, [SP, #24]         ; [DPU_V7M3_PIPE] |438|  ; [ORIG 16-BIT INS]
    1791 00000058 7809              LDRB      A2, [A2, #0]          ; [DPU_V7M3_PIPE] |438|  ; [ORIG 16-BIT INS]
    1792 0000005a 3308              ADDS      A4, A4, #8            ; [DPU_V7M3_PIPE] |438|  ; [ORIG 16-BIT INS]
    1793 0000005c 302C              ADDS      A1, A1, #44           ; [DPU_V7M3_PIPE] |438|  ; [ORIG 16-BIT INS]
    1794                    $C$DW$176       .dwtag  DW_TAG_TI_branch
    1795                            .dwattr $C$DW$176, DW_AT_low_pc(0x00)
    1796                            .dwattr $C$DW$176, DW_AT_name("sl_WlanProfileAdd")
    1797                            .dwattr $C$DW$176, DW_AT_TI_call
    1798                    
    1799 0000005e FFFEF7FF!         BL        sl_WlanProfileAdd     ; [DPU_V7M3_PIPE] |438|  ; [KEEP 32-BIT INS]
    1800                            ; CALL OCCURS {sl_WlanProfileAdd }  ; [] |438| 
    1801 00000062 9003              STR       A1, [SP, #12]         ; [DPU_V7M3_PIPE] |438|  ; [ORIG 16-BIT INS]
    1802                            .dwpsn  file "/vagrant/Q3_SDK_01/sdk_root/source/ti/drivers/net/wifi/slnetif/slwificonn.c",lin
    1803                    ;----------------------------------------------------------------------
    1804                    ; 439 | free(pProf);                                                           
    1805                    ;----------------------------------------------------------------------
    1806 00000064 9808              LDR       A1, [SP, #32]         ; [DPU_V7M3_PIPE] |439|  ; [ORIG 16-BIT INS]
    1807                    $C$DW$177       .dwtag  DW_TAG_TI_branch
    1808                            .dwattr $C$DW$177, DW_AT_low_pc(0x00)
    1809                            .dwattr $C$DW$177, DW_AT_name("free")
    1810                            .dwattr $C$DW$177, DW_AT_TI_call
    1811                    
    1812 00000066 FFFEF7FF!         BL        free                  ; [DPU_V7M3_PIPE] |439|  ; [KEEP 32-BIT INS]
    1813                            ; CALL OCCURS {free }            ; [] |439| 
    1814                            .dwendtag $C$DW$172
    1815                    
TI ARM Assembler Unix v20.2.1 Wed Sep 16 12:09:22 2020

Copyright (c) 1996-2018 Texas Instruments Incorporated
slwificonn.asm                                                       PAGE   34

    1816                    ;* --------------------------------------------------------------------------*
    1817                    ||$C$L17||:    
    1818                            .dwendtag $C$DW$171
    1819                    
    1820                    ;* --------------------------------------------------------------------------*
    1821 0000006a           ||$C$L18||:    
    1822                            .dwpsn  file "/vagrant/Q3_SDK_01/sdk_root/source/ti/drivers/net/wifi/slnetif/slwificonn.c",lin
    1823                    ;----------------------------------------------------------------------
    1824                    ; 442 | retVal = SignalEvent(deferredEvent);                                   
    1825                    ;----------------------------------------------------------------------
    1826 0000006a 0014F89D          LDRB      A1, [SP, #20]         ; [DPU_V7M3_PIPE] |442|  ; [KEEP 32-BIT INS]
    1827                    $C$DW$178       .dwtag  DW_TAG_TI_branch
    1828                            .dwattr $C$DW$178, DW_AT_low_pc(0x00)
    1829                            .dwattr $C$DW$178, DW_AT_name("SignalEvent")
    1830                            .dwattr $C$DW$178, DW_AT_TI_call
    1831                    
    1832 0000006e FFFEF7FF!         BL        SignalEvent           ; [DPU_V7M3_PIPE] |442|  ; [KEEP 32-BIT INS]
    1833                            ; CALL OCCURS {SignalEvent }     ; [] |442| 
    1834 00000072 9003              STR       A1, [SP, #12]         ; [DPU_V7M3_PIPE] |442|  ; [ORIG 16-BIT INS]
    1835                            .dwpsn  file "/vagrant/Q3_SDK_01/sdk_root/source/ti/drivers/net/wifi/slnetif/slwificonn.c",lin
    1836                    ;----------------------------------------------------------------------
    1837                    ; 443 | assert(retVal == 0);                                                   
    1838                    ;----------------------------------------------------------------------
    1839 00000074 9903              LDR       A2, [SP, #12]         ; [DPU_V7M3_PIPE] |443|  ; [ORIG 16-BIT INS]
    1840 00000076 2000              MOVS      A1, #0                ; [DPU_V7M3_PIPE] |443|  ; [ORIG 16-BIT INS]
    1841 00000078 B901              CBNZ      A2, ||$C$L19||        ; []  ; [ORIG 16-BIT INS]
    1842                            ; BRANCHCC OCCURS {||$C$L19||}   ; [] |443| 
    1843                    ;* --------------------------------------------------------------------------*
    1844 0000007a 2001              MOVS      A1, #1                ; [DPU_V7M3_PIPE] |443|  ; [ORIG 16-BIT INS]
    1845                    ;* --------------------------------------------------------------------------*
    1846 0000007c           ||$C$L19||:    
    1847 0000007c B910              CBNZ      A1, ||$C$L20||        ; []  ; [ORIG 16-BIT INS]
    1848                            ; BRANCHCC OCCURS {||$C$L20||}   ; [] |443| 
    1849                    ;* --------------------------------------------------------------------------*
    1850 0000007e A006              ADR       A1, $C$SL27           ; [DPU_V7M3_PIPE] |443|  ; [ORIG 16-BIT INS]
    1851                    $C$DW$179       .dwtag  DW_TAG_TI_branch
    1852                            .dwattr $C$DW$179, DW_AT_low_pc(0x00)
    1853                            .dwattr $C$DW$179, DW_AT_name("_abort_msg")
    1854                            .dwattr $C$DW$179, DW_AT_TI_call
    1855                    
    1856 00000080 FFFEF7FF!         BL        _abort_msg            ; [DPU_V7M3_PIPE] |443|  ; [KEEP 32-BIT INS]
    1857                            ; CALL OCCURS {_abort_msg }      ; [] |443| 
    1858                    ;* --------------------------------------------------------------------------*
    1859                    ||$C$L20||:    
    1860                            .dwendtag $C$DW$170
    1861                    
    1862                    ;* --------------------------------------------------------------------------*
    1863                    ;*   BEGIN LOOP ||$C$L21||
    1864                    ;* --------------------------------------------------------------------------*
    1865 00000084           ||$C$L21||:    
    1866                            .dwpsn  file "/vagrant/Q3_SDK_01/sdk_root/source/ti/drivers/net/wifi/slnetif/slwificonn.c",lin
    1867 00000084 A805              ADD       A1, SP, #20           ; [DPU_V7M3_PIPE] |421|  ; [ORIG 16-BIT INS]
    1868 00000086 A904              ADD       A2, SP, #16           ; [DPU_V7M3_PIPE] |421|  ; [ORIG 16-BIT INS]
    1869                    $C$DW$180       .dwtag  DW_TAG_TI_branch
    1870                            .dwattr $C$DW$180, DW_AT_low_pc(0x00)
TI ARM Assembler Unix v20.2.1 Wed Sep 16 12:09:22 2020

Copyright (c) 1996-2018 Texas Instruments Incorporated
slwificonn.asm                                                       PAGE   35

    1871                            .dwattr $C$DW$180, DW_AT_name("DeferredEvent_dequeue")
    1872                            .dwattr $C$DW$180, DW_AT_TI_call
    1873                    
    1874 00000088 FFFEF7FF!         BL        DeferredEvent_dequeue ; [DPU_V7M3_PIPE] |421|  ; [KEEP 32-BIT INS]
    1875                            ; CALL OCCURS {DeferredEvent_dequeue }  ; [] |421| 
    1876 0000008c 2800              CMP       A1, #0                ; [DPU_V7M3_PIPE] |421|  ; [ORIG 16-BIT INS]
    1877 0000008e D5BD              BPL       ||$C$L14||            ; [DPU_V7M3_PIPE] |421|  ; [ORIG 16-BIT INS]
    1878                            ; BRANCHCC OCCURS {||$C$L14||}   ; [] |421| 
    1879                    ;* --------------------------------------------------------------------------*
    1880                            .dwpsn  file "/vagrant/Q3_SDK_01/sdk_root/source/ti/drivers/net/wifi/slnetif/slwificonn.c",lin
    1881                    ;----------------------------------------------------------------------
    1882                    ; 445 | return retVal;                                                         
    1883                    ;----------------------------------------------------------------------
    1884 00000090 9803              LDR       A1, [SP, #12]         ; [DPU_V7M3_PIPE] |445|  ; [ORIG 16-BIT INS]
    1885                            .dwpsn  file "/vagrant/Q3_SDK_01/sdk_root/source/ti/drivers/net/wifi/slnetif/slwificonn.c",lin
    1886 00000092 B009              ADD       SP, SP, #36           ; [DPU_V7M3_PIPE]  ; [ORIG 16-BIT INS]
    1887                            .dwcfi  cfa_offset, 4
    1888                    $C$DW$181       .dwtag  DW_TAG_TI_branch
    1889                            .dwattr $C$DW$181, DW_AT_low_pc(0x00)
    1890                            .dwattr $C$DW$181, DW_AT_TI_return
    1891                    
    1892 00000094 BD00              POP       {PC}                  ; [DPU_V7M3_PIPE]  ; [ORIG 16-BIT INS]
    1893                            .dwcfi  cfa_offset, 0
    1894                            ; BRANCH OCCURS                  ; [] 
    1895                            .dwattr $C$DW$166, DW_AT_TI_end_file("/vagrant/Q3_SDK_01/sdk_root/source/ti/drivers/net/wifi/s
    1896                            .dwattr $C$DW$166, DW_AT_TI_end_line(0x1be)
    1897                            .dwattr $C$DW$166, DW_AT_TI_end_column(0x01)
    1898                            .dwendentry
    1899                            .dwendtag $C$DW$166
    1900                    
    1901 00000000                   .sect   ".text:ResetNWP"
    1902                            .clink
    1903                            .thumbfunc ResetNWP
    1904 00000000                   .thumb
    1905                    
    1906                    $C$DW$182       .dwtag  DW_TAG_subprogram
    1907                            .dwattr $C$DW$182, DW_AT_name("ResetNWP")
    1908                            .dwattr $C$DW$182, DW_AT_low_pc(ResetNWP)
    1909                            .dwattr $C$DW$182, DW_AT_high_pc(0x00)
    1910                            .dwattr $C$DW$182, DW_AT_TI_symbol_name("ResetNWP")
    1911                            .dwattr $C$DW$182, DW_AT_type(*$C$DW$T$10)
    1912                            .dwattr $C$DW$182, DW_AT_TI_begin_file("/vagrant/Q3_SDK_01/sdk_root/source/ti/drivers/net/wifi
    1913                            .dwattr $C$DW$182, DW_AT_TI_begin_line(0x1c5)
    1914                            .dwattr $C$DW$182, DW_AT_TI_begin_column(0x05)
    1915                            .dwattr $C$DW$182, DW_AT_decl_file("/vagrant/Q3_SDK_01/sdk_root/source/ti/drivers/net/wifi/sln
    1916                            .dwattr $C$DW$182, DW_AT_decl_line(0x1c5)
    1917                            .dwattr $C$DW$182, DW_AT_decl_column(0x05)
    1918                            .dwattr $C$DW$182, DW_AT_TI_max_frame_size(0x08)
    1919                            .dwpsn  file "/vagrant/Q3_SDK_01/sdk_root/source/ti/drivers/net/wifi/slnetif/slwificonn.c",lin
    1920                    
    1921                            .dwfde $C$DW$CIE, ResetNWP
    1922                    ;----------------------------------------------------------------------
    1923                    ; 453 | int ResetNWP()                                                         
    1924                    ;----------------------------------------------------------------------
    1925                    
TI ARM Assembler Unix v20.2.1 Wed Sep 16 12:09:22 2020

Copyright (c) 1996-2018 Texas Instruments Incorporated
slwificonn.asm                                                       PAGE   36

    1926                    ;*****************************************************************************
    1927                    ;* FUNCTION NAME: ResetNWP                                                   *
    1928                    ;*                                                                           *
    1929                    ;*   Regs Modified     : A1,A2,A3,A4,V9,SP,LR,SR                             *
    1930                    ;*   Regs Used         : A1,A2,A3,A4,V9,SP,LR,SR                             *
    1931                    ;*   Local Frame Size  : 0 Args + 4 Auto + 4 Save = 8 byte                   *
    1932                    ;*****************************************************************************
    1933 00000000           ResetNWP:
    1934                    ;* --------------------------------------------------------------------------*
    1935                            .dwcfi  cfa_offset, 0
    1936 00000000 B508              PUSH      {A4, LR}              ; [DPU_V7M3_PIPE]  ; [ORIG 16-BIT INS]
    1937                            .dwcfi  cfa_offset, 8
    1938                            .dwcfi  save_reg_to_mem, 14, -4
    1939                            .dwcfi  save_reg_to_mem, 3, -8
    1940                    $C$DW$183       .dwtag  DW_TAG_variable
    1941                            .dwattr $C$DW$183, DW_AT_name("retVal")
    1942                            .dwattr $C$DW$183, DW_AT_TI_symbol_name("retVal")
    1943                            .dwattr $C$DW$183, DW_AT_type(*$C$DW$T$10)
    1944                            .dwattr $C$DW$183, DW_AT_location[DW_OP_breg13 0]
    1945                    
    1946                            .dwpsn  file "/vagrant/Q3_SDK_01/sdk_root/source/ti/drivers/net/wifi/slnetif/slwificonn.c",lin
    1947                    ;----------------------------------------------------------------------
    1948                    ; 455 | int retVal = sl_Stop(SL_STOP_TIMEOUT);                                 
    1949                    ;----------------------------------------------------------------------
    1950 00000002 20C8              MOVS      A1, #200              ; [DPU_V7M3_PIPE] |455|  ; [ORIG 16-BIT INS]
    1951                    $C$DW$184       .dwtag  DW_TAG_TI_branch
    1952                            .dwattr $C$DW$184, DW_AT_low_pc(0x00)
    1953                            .dwattr $C$DW$184, DW_AT_name("sl_Stop")
    1954                            .dwattr $C$DW$184, DW_AT_TI_call
    1955                    
    1956 00000004 FFFEF7FF!         BL        sl_Stop               ; [DPU_V7M3_PIPE] |455|  ; [KEEP 32-BIT INS]
    1957                            ; CALL OCCURS {sl_Stop }         ; [] |455| 
    1958 00000008 9000              STR       A1, [SP, #0]          ; [DPU_V7M3_PIPE] |455|  ; [ORIG 16-BIT INS]
    1959                            .dwpsn  file "/vagrant/Q3_SDK_01/sdk_root/source/ti/drivers/net/wifi/slnetif/slwificonn.c",lin
    1960                    ;----------------------------------------------------------------------
    1961                    ; 456 | assert(retVal == 0);                                                   
    1962                    ;----------------------------------------------------------------------
    1963 0000000a 9900              LDR       A2, [SP, #0]          ; [DPU_V7M3_PIPE] |456|  ; [ORIG 16-BIT INS]
    1964 0000000c 2000              MOVS      A1, #0                ; [DPU_V7M3_PIPE] |456|  ; [ORIG 16-BIT INS]
    1965 0000000e B901              CBNZ      A2, ||$C$L22||        ; []  ; [ORIG 16-BIT INS]
    1966                            ; BRANCHCC OCCURS {||$C$L22||}   ; [] |456| 
    1967                    ;* --------------------------------------------------------------------------*
    1968 00000010 2001              MOVS      A1, #1                ; [DPU_V7M3_PIPE] |456|  ; [ORIG 16-BIT INS]
    1969                    ;* --------------------------------------------------------------------------*
    1970 00000012           ||$C$L22||:    
    1971 00000012 B910              CBNZ      A1, ||$C$L23||        ; []  ; [ORIG 16-BIT INS]
    1972                            ; BRANCHCC OCCURS {||$C$L23||}   ; [] |456| 
    1973                    ;* --------------------------------------------------------------------------*
    1974 00000014 A011              ADR       A1, $C$SL28           ; [DPU_V7M3_PIPE] |456|  ; [ORIG 16-BIT INS]
    1975                    $C$DW$185       .dwtag  DW_TAG_TI_branch
    1976                            .dwattr $C$DW$185, DW_AT_low_pc(0x00)
    1977                            .dwattr $C$DW$185, DW_AT_name("_abort_msg")
    1978                            .dwattr $C$DW$185, DW_AT_TI_call
    1979                    
    1980 00000016 FFFEF7FF!         BL        _abort_msg            ; [DPU_V7M3_PIPE] |456|  ; [KEEP 32-BIT INS]
TI ARM Assembler Unix v20.2.1 Wed Sep 16 12:09:22 2020

Copyright (c) 1996-2018 Texas Instruments Incorporated
slwificonn.asm                                                       PAGE   37

    1981                            ; CALL OCCURS {_abort_msg }      ; [] |456| 
    1982                    ;* --------------------------------------------------------------------------*
    1983 0000001a           ||$C$L23||:    
    1984                            .dwpsn  file "/vagrant/Q3_SDK_01/sdk_root/source/ti/drivers/net/wifi/slnetif/slwificonn.c",lin
    1985                    ;----------------------------------------------------------------------
    1986                    ; 458 | retVal = sl_Start(0,0,0);                                              
    1987                    ;----------------------------------------------------------------------
    1988 0000001a 2000              MOVS      A1, #0                ; [DPU_V7M3_PIPE] |458|  ; [ORIG 16-BIT INS]
    1989 0000001c 2100              MOVS      A2, #0                ; [DPU_V7M3_PIPE] |458|  ; [ORIG 16-BIT INS]
    1990 0000001e 2200              MOVS      A3, #0                ; [DPU_V7M3_PIPE] |458|  ; [ORIG 16-BIT INS]
    1991                    $C$DW$186       .dwtag  DW_TAG_TI_branch
    1992                            .dwattr $C$DW$186, DW_AT_low_pc(0x00)
    1993                            .dwattr $C$DW$186, DW_AT_name("sl_Start")
    1994                            .dwattr $C$DW$186, DW_AT_TI_call
    1995                    
    1996 00000020 FFFEF7FF!         BL        sl_Start              ; [DPU_V7M3_PIPE] |458|  ; [KEEP 32-BIT INS]
    1997                            ; CALL OCCURS {sl_Start }        ; [] |458| 
    1998 00000024 9000              STR       A1, [SP, #0]          ; [DPU_V7M3_PIPE] |458|  ; [ORIG 16-BIT INS]
    1999                            .dwpsn  file "/vagrant/Q3_SDK_01/sdk_root/source/ti/drivers/net/wifi/slnetif/slwificonn.c",lin
    2000                    ;----------------------------------------------------------------------
    2001                    ; 459 | assert(retVal >= 0);                                                   
    2002                    ;----------------------------------------------------------------------
    2003 00000026 9900              LDR       A2, [SP, #0]          ; [DPU_V7M3_PIPE] |459|  ; [ORIG 16-BIT INS]
    2004 00000028 2000              MOVS      A1, #0                ; [DPU_V7M3_PIPE] |459|  ; [ORIG 16-BIT INS]
    2005 0000002a 2900              CMP       A2, #0                ; [DPU_V7M3_PIPE] |459|  ; [ORIG 16-BIT INS]
    2006 0000002c D400              BMI       ||$C$L24||            ; [DPU_V7M3_PIPE] |459|  ; [ORIG 16-BIT INS]
    2007                            ; BRANCHCC OCCURS {||$C$L24||}   ; [] |459| 
    2008                    ;* --------------------------------------------------------------------------*
    2009 0000002e 2001              MOVS      A1, #1                ; [DPU_V7M3_PIPE] |459|  ; [ORIG 16-BIT INS]
    2010                    ;* --------------------------------------------------------------------------*
    2011 00000030           ||$C$L24||:    
    2012 00000030 B910              CBNZ      A1, ||$C$L25||        ; []  ; [ORIG 16-BIT INS]
    2013                            ; BRANCHCC OCCURS {||$C$L25||}   ; [] |459| 
    2014                    ;* --------------------------------------------------------------------------*
    2015 00000032 A02A              ADR       A1, $C$SL29           ; [DPU_V7M3_PIPE] |459|  ; [ORIG 16-BIT INS]
    2016                    $C$DW$187       .dwtag  DW_TAG_TI_branch
    2017                            .dwattr $C$DW$187, DW_AT_low_pc(0x00)
    2018                            .dwattr $C$DW$187, DW_AT_name("_abort_msg")
    2019                            .dwattr $C$DW$187, DW_AT_TI_call
    2020                    
    2021 00000034 FFFEF7FF!         BL        _abort_msg            ; [DPU_V7M3_PIPE] |459|  ; [KEEP 32-BIT INS]
    2022                            ; CALL OCCURS {_abort_msg }      ; [] |459| 
    2023                    ;* --------------------------------------------------------------------------*
    2024 00000038           ||$C$L25||:    
    2025                            .dwpsn  file "/vagrant/Q3_SDK_01/sdk_root/source/ti/drivers/net/wifi/slnetif/slwificonn.c",lin
    2026                    ;----------------------------------------------------------------------
    2027                    ; 461 | if(g_ctx->state == SLWIFICONN_STATE_OFF ||                             
    2028                    ; 462 |    g_ctx->state == SLWIFICONN_STATE_IDLE)                              
    2029                    ;----------------------------------------------------------------------
    2030 00000038 4848              LDR       A1, $C$CON5           ; [DPU_V7M3_PIPE] |461|  ; [ORIG 16-BIT INS]
    2031 0000003a 6800              LDR       A1, [A1, #0]          ; [DPU_V7M3_PIPE] |461|  ; [ORIG 16-BIT INS]
    2032 0000003c 7800              LDRB      A1, [A1, #0]          ; [DPU_V7M3_PIPE] |461|  ; [ORIG 16-BIT INS]
    2033 0000003e B120              CBZ       A1, ||$C$L26||        ; []  ; [ORIG 16-BIT INS]
    2034                            ; BRANCHCC OCCURS {||$C$L26||}   ; [] |461| 
    2035                    ;* --------------------------------------------------------------------------*
TI ARM Assembler Unix v20.2.1 Wed Sep 16 12:09:22 2020

Copyright (c) 1996-2018 Texas Instruments Incorporated
slwificonn.asm                                                       PAGE   38

    2036 00000040 4846              LDR       A1, $C$CON5           ; [DPU_V7M3_PIPE] |461|  ; [ORIG 16-BIT INS]
    2037 00000042 6800              LDR       A1, [A1, #0]          ; [DPU_V7M3_PIPE] |461|  ; [ORIG 16-BIT INS]
    2038 00000044 7800              LDRB      A1, [A1, #0]          ; [DPU_V7M3_PIPE] |461|  ; [ORIG 16-BIT INS]
    2039 00000046 2801              CMP       A1, #1                ; [DPU_V7M3_PIPE] |461|  ; [ORIG 16-BIT INS]
    2040 00000048 D103              BNE       ||$C$L27||            ; [DPU_V7M3_PIPE] |461|  ; [ORIG 16-BIT INS]
    2041                            ; BRANCHCC OCCURS {||$C$L27||}   ; [] |461| 
    2042                    ;* --------------------------------------------------------------------------*
    2043 0000004a           ||$C$L26||:    
    2044                            .dwpsn  file "/vagrant/Q3_SDK_01/sdk_root/source/ti/drivers/net/wifi/slnetif/slwificonn.c",lin
    2045                    ;----------------------------------------------------------------------
    2046                    ; 464 | SuspendNWP(false);                                                     
    2047                    ; 466 | else                                                                   
    2048                    ;----------------------------------------------------------------------
    2049 0000004a 2000              MOVS      A1, #0                ; [DPU_V7M3_PIPE] |464|  ; [ORIG 16-BIT INS]
    2050                    $C$DW$188       .dwtag  DW_TAG_TI_branch
    2051                            .dwattr $C$DW$188, DW_AT_low_pc(0x00)
    2052                            .dwattr $C$DW$188, DW_AT_name("SuspendNWP")
    2053                            .dwattr $C$DW$188, DW_AT_TI_call
    2054                    
    2055 0000004c FFFEF7FF!         BL        SuspendNWP            ; [DPU_V7M3_PIPE] |464|  ; [KEEP 32-BIT INS]
    2056                            ; CALL OCCURS {SuspendNWP }      ; [] |464| 
    2057 00000050 E002              B         ||$C$L28||            ; [DPU_V7M3_PIPE]  ; [ORIG 16-BIT INS]
    2058                            ; BRANCH OCCURS {||$C$L28||}     ; [] 
    2059                    ;* --------------------------------------------------------------------------*
    2060 00000052           ||$C$L27||:    
    2061                            .dwpsn  file "/vagrant/Q3_SDK_01/sdk_root/source/ti/drivers/net/wifi/slnetif/slwificonn.c",lin
    2062                    ;----------------------------------------------------------------------
    2063                    ; 468 | ResumeNWP(false);                                                      
    2064                    ;----------------------------------------------------------------------
    2065 00000052 2000              MOVS      A1, #0                ; [DPU_V7M3_PIPE] |468|  ; [ORIG 16-BIT INS]
    2066                    $C$DW$189       .dwtag  DW_TAG_TI_branch
    2067                            .dwattr $C$DW$189, DW_AT_low_pc(0x00)
    2068                            .dwattr $C$DW$189, DW_AT_name("ResumeNWP")
    2069                            .dwattr $C$DW$189, DW_AT_TI_call
    2070                    
    2071 00000054 FFFEF7FF!         BL        ResumeNWP             ; [DPU_V7M3_PIPE] |468|  ; [KEEP 32-BIT INS]
    2072                            ; CALL OCCURS {ResumeNWP }       ; [] |468| 
    2073                    ;* --------------------------------------------------------------------------*
    2074 00000058           ||$C$L28||:    
    2075                            .dwpsn  file "/vagrant/Q3_SDK_01/sdk_root/source/ti/drivers/net/wifi/slnetif/slwificonn.c",lin
    2076                    ;----------------------------------------------------------------------
    2077                    ; 471 | return retVal;                                                         
    2078                    ;----------------------------------------------------------------------
    2079 00000058 9800              LDR       A1, [SP, #0]          ; [DPU_V7M3_PIPE] |471|  ; [ORIG 16-BIT INS]
    2080                            .dwpsn  file "/vagrant/Q3_SDK_01/sdk_root/source/ti/drivers/net/wifi/slnetif/slwificonn.c",lin
    2081                    $C$DW$190       .dwtag  DW_TAG_TI_branch
    2082                            .dwattr $C$DW$190, DW_AT_low_pc(0x00)
    2083                            .dwattr $C$DW$190, DW_AT_TI_return
    2084                    
    2085 0000005a BD08              POP       {A4, PC}              ; [DPU_V7M3_PIPE]  ; [ORIG 16-BIT INS]
    2086                            .dwcfi  cfa_offset, 0
    2087                            .dwcfi  restore_reg, 3
    2088                            ; BRANCH OCCURS                  ; [] 
    2089                            .dwattr $C$DW$182, DW_AT_TI_end_file("/vagrant/Q3_SDK_01/sdk_root/source/ti/drivers/net/wifi/s
    2090                            .dwattr $C$DW$182, DW_AT_TI_end_line(0x1d8)
TI ARM Assembler Unix v20.2.1 Wed Sep 16 12:09:22 2020

Copyright (c) 1996-2018 Texas Instruments Incorporated
slwificonn.asm                                                       PAGE   39

    2091                            .dwattr $C$DW$182, DW_AT_TI_end_column(0x01)
    2092                            .dwendentry
    2093                            .dwendtag $C$DW$182
    2094                    
    2095 00000000                   .sect   ".text:SetRole"
    2096                            .clink
    2097                            .thumbfunc SetRole
    2098 00000000                   .thumb
    2099                    
    2100                    $C$DW$191       .dwtag  DW_TAG_subprogram
    2101                            .dwattr $C$DW$191, DW_AT_name("SetRole")
    2102                            .dwattr $C$DW$191, DW_AT_low_pc(SetRole)
    2103                            .dwattr $C$DW$191, DW_AT_high_pc(0x00)
    2104                            .dwattr $C$DW$191, DW_AT_TI_symbol_name("SetRole")
    2105                            .dwattr $C$DW$191, DW_AT_type(*$C$DW$T$10)
    2106                            .dwattr $C$DW$191, DW_AT_TI_begin_file("/vagrant/Q3_SDK_01/sdk_root/source/ti/drivers/net/wifi
    2107                            .dwattr $C$DW$191, DW_AT_TI_begin_line(0x1df)
    2108                            .dwattr $C$DW$191, DW_AT_TI_begin_column(0x0c)
    2109                            .dwattr $C$DW$191, DW_AT_decl_file("/vagrant/Q3_SDK_01/sdk_root/source/ti/drivers/net/wifi/sln
    2110                            .dwattr $C$DW$191, DW_AT_decl_line(0x1df)
    2111                            .dwattr $C$DW$191, DW_AT_decl_column(0x0c)
    2112                            .dwattr $C$DW$191, DW_AT_TI_max_frame_size(0x10)
    2113                            .dwpsn  file "/vagrant/Q3_SDK_01/sdk_root/source/ti/drivers/net/wifi/slnetif/slwificonn.c",lin
    2114                    
    2115                            .dwfde $C$DW$CIE, SetRole
    2116                    $C$DW$192       .dwtag  DW_TAG_formal_parameter
    2117                            .dwattr $C$DW$192, DW_AT_name("role")
    2118                            .dwattr $C$DW$192, DW_AT_TI_symbol_name("role")
    2119                            .dwattr $C$DW$192, DW_AT_type(*$C$DW$T$10)
    2120                            .dwattr $C$DW$192, DW_AT_location[DW_OP_reg0]
    2121                    
    2122                    ;----------------------------------------------------------------------
    2123                    ; 479 | static int SetRole(SlWlanMode_e role)                                  
    2124                    ;----------------------------------------------------------------------
    2125                    
    2126                    ;*****************************************************************************
    2127                    ;* FUNCTION NAME: SetRole                                                    *
    2128                    ;*                                                                           *
    2129                    ;*   Regs Modified     : A1,A2,A3,A4,V9,SP,LR,SR                             *
    2130                    ;*   Regs Used         : A1,A2,A3,A4,V9,SP,LR,SR                             *
    2131                    ;*   Local Frame Size  : 0 Args + 8 Auto + 4 Save = 12 byte                  *
    2132                    ;*****************************************************************************
    2133 00000000           SetRole:
    2134                    ;* --------------------------------------------------------------------------*
    2135                            .dwcfi  cfa_offset, 0
    2136 00000000 B50E              PUSH      {A2, A3, A4, LR}      ; [DPU_V7M3_PIPE]  ; [ORIG 16-BIT INS]
    2137                            .dwcfi  cfa_offset, 16
    2138                            .dwcfi  save_reg_to_mem, 14, -4
    2139                            .dwcfi  save_reg_to_mem, 3, -8
    2140                            .dwcfi  save_reg_to_mem, 2, -12
    2141                            .dwcfi  save_reg_to_mem, 1, -16
    2142                    $C$DW$193       .dwtag  DW_TAG_variable
    2143                            .dwattr $C$DW$193, DW_AT_name("retVal")
    2144                            .dwattr $C$DW$193, DW_AT_TI_symbol_name("retVal")
    2145                            .dwattr $C$DW$193, DW_AT_type(*$C$DW$T$10)
TI ARM Assembler Unix v20.2.1 Wed Sep 16 12:09:22 2020

Copyright (c) 1996-2018 Texas Instruments Incorporated
slwificonn.asm                                                       PAGE   40

    2146                            .dwattr $C$DW$193, DW_AT_location[DW_OP_breg13 0]
    2147                    
    2148                    $C$DW$194       .dwtag  DW_TAG_variable
    2149                            .dwattr $C$DW$194, DW_AT_name("role")
    2150                            .dwattr $C$DW$194, DW_AT_TI_symbol_name("role")
    2151                            .dwattr $C$DW$194, DW_AT_type(*$C$DW$T$586)
    2152                            .dwattr $C$DW$194, DW_AT_location[DW_OP_breg13 4]
    2153                    
    2154 00000002 0004F88D          STRB      A1, [SP, #4]          ; [DPU_V7M3_PIPE] |480|  ; [KEEP 32-BIT INS]
    2155                            .dwpsn  file "/vagrant/Q3_SDK_01/sdk_root/source/ti/drivers/net/wifi/slnetif/slwificonn.c",lin
    2156                    ;----------------------------------------------------------------------
    2157                    ; 481 | int retVal = 0;                                                        
    2158                    ;----------------------------------------------------------------------
    2159 00000006 2000              MOVS      A1, #0                ; [DPU_V7M3_PIPE] |481|  ; [ORIG 16-BIT INS]
    2160 00000008 9000              STR       A1, [SP, #0]          ; [DPU_V7M3_PIPE] |481|  ; [ORIG 16-BIT INS]
    2161                            .dwpsn  file "/vagrant/Q3_SDK_01/sdk_root/source/ti/drivers/net/wifi/slnetif/slwificonn.c",lin
    2162                    ;----------------------------------------------------------------------
    2163                    ; 482 | if(role != g_ctx->role)                                                
    2164                    ;----------------------------------------------------------------------
    2165 0000000a 4831              LDR       A1, $C$CON6           ; [DPU_V7M3_PIPE] |482|  ; [ORIG 16-BIT INS]
    2166 0000000c 6800              LDR       A1, [A1, #0]          ; [DPU_V7M3_PIPE] |482|  ; [ORIG 16-BIT INS]
    2167 0000000e 1004F89D          LDRB      A2, [SP, #4]          ; [DPU_V7M3_PIPE] |482|  ; [KEEP 32-BIT INS]
    2168 00000012 7D40              LDRB      A1, [A1, #21]         ; [DPU_V7M3_PIPE] |482|  ; [ORIG 16-BIT INS]
    2169 00000014 4288              CMP       A1, A2                ; [DPU_V7M3_PIPE] |482|  ; [ORIG 16-BIT INS]
    2170 00000016 D015              BEQ       ||$C$L30||            ; [DPU_V7M3_PIPE] |482|  ; [ORIG 16-BIT INS]
    2171                            ; BRANCHCC OCCURS {||$C$L30||}   ; [] |482| 
    2172                    ;* --------------------------------------------------------------------------*
    2173                            .dwpsn  file "/vagrant/Q3_SDK_01/sdk_root/source/ti/drivers/net/wifi/slnetif/slwificonn.c",lin
    2174                    ;----------------------------------------------------------------------
    2175                    ; 487 | sl_WlanSetMode(role);                                                  
    2176                    ;----------------------------------------------------------------------
    2177 00000018 0004F89D          LDRB      A1, [SP, #4]          ; [DPU_V7M3_PIPE] |487|  ; [KEEP 32-BIT INS]
    2178                    $C$DW$195       .dwtag  DW_TAG_TI_branch
    2179                            .dwattr $C$DW$195, DW_AT_low_pc(0x00)
    2180                            .dwattr $C$DW$195, DW_AT_name("sl_WlanSetMode")
    2181                            .dwattr $C$DW$195, DW_AT_TI_call
    2182                    
    2183 0000001c FFFEF7FF!         BL        sl_WlanSetMode        ; [DPU_V7M3_PIPE] |487|  ; [KEEP 32-BIT INS]
    2184                            ; CALL OCCURS {sl_WlanSetMode }  ; [] |487| 
    2185                            .dwpsn  file "/vagrant/Q3_SDK_01/sdk_root/source/ti/drivers/net/wifi/slnetif/slwificonn.c",lin
    2186                    ;----------------------------------------------------------------------
    2187                    ; 488 | g_ctx->role = ResetNWP();                                              
    2188                    ;----------------------------------------------------------------------
    2189                    $C$DW$196       .dwtag  DW_TAG_TI_branch
    2190                            .dwattr $C$DW$196, DW_AT_low_pc(0x00)
    2191                            .dwattr $C$DW$196, DW_AT_name("ResetNWP")
    2192                            .dwattr $C$DW$196, DW_AT_TI_call
    2193                    
    2194 00000020 FFFEF7FF!         BL        ResetNWP              ; [DPU_V7M3_PIPE] |488|  ; [KEEP 32-BIT INS]
    2195                            ; CALL OCCURS {ResetNWP }        ; [] |488| 
    2196 00000024 492A              LDR       A2, $C$CON6           ; [DPU_V7M3_PIPE] |488|  ; [ORIG 16-BIT INS]
    2197 00000026 6809              LDR       A2, [A2, #0]          ; [DPU_V7M3_PIPE] |488|  ; [ORIG 16-BIT INS]
    2198 00000028 7548              STRB      A1, [A2, #21]         ; [DPU_V7M3_PIPE] |488|  ; [ORIG 16-BIT INS]
    2199                            .dwpsn  file "/vagrant/Q3_SDK_01/sdk_root/source/ti/drivers/net/wifi/slnetif/slwificonn.c",lin
    2200                    ;----------------------------------------------------------------------
TI ARM Assembler Unix v20.2.1 Wed Sep 16 12:09:22 2020

Copyright (c) 1996-2018 Texas Instruments Incorporated
slwificonn.asm                                                       PAGE   41

    2201                    ; 489 | assert(role == g_ctx->role);                                           
    2202                    ;----------------------------------------------------------------------
    2203 0000002a 4829              LDR       A1, $C$CON6           ; [DPU_V7M3_PIPE] |489|  ; [ORIG 16-BIT INS]
    2204 0000002c 6800              LDR       A1, [A1, #0]          ; [DPU_V7M3_PIPE] |489|  ; [ORIG 16-BIT INS]
    2205 0000002e 2004F89D          LDRB      A3, [SP, #4]          ; [DPU_V7M3_PIPE] |489|  ; [KEEP 32-BIT INS]
    2206 00000032 7D41              LDRB      A2, [A1, #21]         ; [DPU_V7M3_PIPE] |489|  ; [ORIG 16-BIT INS]
    2207 00000034 2000              MOVS      A1, #0                ; [DPU_V7M3_PIPE] |489|  ; [ORIG 16-BIT INS]
    2208 00000036 4291              CMP       A2, A3                ; [DPU_V7M3_PIPE] |489|  ; [ORIG 16-BIT INS]
    2209 00000038 D100              BNE       ||$C$L29||            ; [DPU_V7M3_PIPE] |489|  ; [ORIG 16-BIT INS]
    2210                            ; BRANCHCC OCCURS {||$C$L29||}   ; [] |489| 
    2211                    ;* --------------------------------------------------------------------------*
    2212 0000003a 2001              MOVS      A1, #1                ; [DPU_V7M3_PIPE] |489|  ; [ORIG 16-BIT INS]
    2213                    ;* --------------------------------------------------------------------------*
    2214 0000003c           ||$C$L29||:    
    2215 0000003c B910              CBNZ      A1, ||$C$L30||        ; []  ; [ORIG 16-BIT INS]
    2216                            ; BRANCHCC OCCURS {||$C$L30||}   ; [] |489| 
    2217                    ;* --------------------------------------------------------------------------*
    2218 0000003e A002              ADR       A1, $C$SL30           ; [DPU_V7M3_PIPE] |489|  ; [ORIG 16-BIT INS]
    2219                    $C$DW$197       .dwtag  DW_TAG_TI_branch
    2220                            .dwattr $C$DW$197, DW_AT_low_pc(0x00)
    2221                            .dwattr $C$DW$197, DW_AT_name("_abort_msg")
    2222                            .dwattr $C$DW$197, DW_AT_TI_call
    2223                    
    2224 00000040 FFFEF7FF!         BL        _abort_msg            ; [DPU_V7M3_PIPE] |489|  ; [KEEP 32-BIT INS]
    2225                            ; CALL OCCURS {_abort_msg }      ; [] |489| 
    2226                    ;* --------------------------------------------------------------------------*
    2227 00000044           ||$C$L30||:    
    2228                            .dwpsn  file "/vagrant/Q3_SDK_01/sdk_root/source/ti/drivers/net/wifi/slnetif/slwificonn.c",lin
    2229                    ;----------------------------------------------------------------------
    2230                    ; 491 | return retVal;                                                         
    2231                    ;----------------------------------------------------------------------
    2232 00000044 9800              LDR       A1, [SP, #0]          ; [DPU_V7M3_PIPE] |491|  ; [ORIG 16-BIT INS]
    2233                            .dwpsn  file "/vagrant/Q3_SDK_01/sdk_root/source/ti/drivers/net/wifi/slnetif/slwificonn.c",lin
    2234                    $C$DW$198       .dwtag  DW_TAG_TI_branch
    2235                            .dwattr $C$DW$198, DW_AT_low_pc(0x00)
    2236                            .dwattr $C$DW$198, DW_AT_TI_return
    2237                    
    2238 00000046 BD0E              POP       {A2, A3, A4, PC}      ; [DPU_V7M3_PIPE]  ; [ORIG 16-BIT INS]
    2239                            .dwcfi  cfa_offset, 0
    2240                            .dwcfi  restore_reg, 3
    2241                            .dwcfi  restore_reg, 2
    2242                            .dwcfi  restore_reg, 1
    2243                            ; BRANCH OCCURS                  ; [] 
    2244                            .dwattr $C$DW$191, DW_AT_TI_end_file("/vagrant/Q3_SDK_01/sdk_root/source/ti/drivers/net/wifi/s
    2245                            .dwattr $C$DW$191, DW_AT_TI_end_line(0x1ec)
    2246                            .dwattr $C$DW$191, DW_AT_TI_end_column(0x01)
    2247                            .dwendentry
    2248                            .dwendtag $C$DW$191
    2249                    
    2250 00000000                   .sect   ".text:Deinit"
    2251                            .clink
    2252                            .thumbfunc Deinit
    2253 00000000                   .thumb
    2254                    
    2255                    $C$DW$199       .dwtag  DW_TAG_subprogram
TI ARM Assembler Unix v20.2.1 Wed Sep 16 12:09:22 2020

Copyright (c) 1996-2018 Texas Instruments Incorporated
slwificonn.asm                                                       PAGE   42

    2256                            .dwattr $C$DW$199, DW_AT_name("Deinit")
    2257                            .dwattr $C$DW$199, DW_AT_low_pc(Deinit)
    2258                            .dwattr $C$DW$199, DW_AT_high_pc(0x00)
    2259                            .dwattr $C$DW$199, DW_AT_TI_symbol_name("Deinit")
    2260                            .dwattr $C$DW$199, DW_AT_type(*$C$DW$T$10)
    2261                            .dwattr $C$DW$199, DW_AT_TI_begin_file("/vagrant/Q3_SDK_01/sdk_root/source/ti/drivers/net/wifi
    2262                            .dwattr $C$DW$199, DW_AT_TI_begin_line(0x1f4)
    2263                            .dwattr $C$DW$199, DW_AT_TI_begin_column(0x05)
    2264                            .dwattr $C$DW$199, DW_AT_decl_file("/vagrant/Q3_SDK_01/sdk_root/source/ti/drivers/net/wifi/sln
    2265                            .dwattr $C$DW$199, DW_AT_decl_line(0x1f4)
    2266                            .dwattr $C$DW$199, DW_AT_decl_column(0x05)
    2267                            .dwattr $C$DW$199, DW_AT_TI_max_frame_size(0x08)
    2268                            .dwpsn  file "/vagrant/Q3_SDK_01/sdk_root/source/ti/drivers/net/wifi/slnetif/slwificonn.c",lin
    2269                    
    2270                            .dwfde $C$DW$CIE, Deinit
    2271                    ;----------------------------------------------------------------------
    2272                    ; 500 | int Deinit()                                                           
    2273                    ;----------------------------------------------------------------------
    2274                    
    2275                    ;*****************************************************************************
    2276                    ;* FUNCTION NAME: Deinit                                                     *
    2277                    ;*                                                                           *
    2278                    ;*   Regs Modified     : A1,A2,A3,A4,V9,SP,LR,SR                             *
    2279                    ;*   Regs Used         : A1,A2,A3,A4,V9,SP,LR,SR                             *
    2280                    ;*   Local Frame Size  : 0 Args + 0 Auto + 4 Save = 4 byte                   *
    2281                    ;*****************************************************************************
    2282 00000000           Deinit:
    2283                    ;* --------------------------------------------------------------------------*
    2284                            .dwcfi  cfa_offset, 0
    2285 00000000 B508              PUSH      {A4, LR}              ; [DPU_V7M3_PIPE]  ; [ORIG 16-BIT INS]
    2286                            .dwcfi  cfa_offset, 8
    2287                            .dwcfi  save_reg_to_mem, 14, -4
    2288                            .dwcfi  save_reg_to_mem, 3, -8
    2289                            .dwpsn  file "/vagrant/Q3_SDK_01/sdk_root/source/ti/drivers/net/wifi/slnetif/slwificonn.c",lin
    2290                    ;----------------------------------------------------------------------
    2291                    ; 502 | sl_UnregisterLibsEventHandler(SL_EVENT_HDL_WLAN, &SlEventHandlers[0]); 
    2292                    ;----------------------------------------------------------------------
    2293 00000002 491B              LDR       A2, $C$CON7           ; [DPU_V7M3_PIPE] |502|  ; [ORIG 16-BIT INS]
    2294 00000004 2002              MOVS      A1, #2                ; [DPU_V7M3_PIPE] |502|  ; [ORIG 16-BIT INS]
    2295                    $C$DW$200       .dwtag  DW_TAG_TI_branch
    2296                            .dwattr $C$DW$200, DW_AT_low_pc(0x00)
    2297                            .dwattr $C$DW$200, DW_AT_name("sl_UnregisterLibsEventHandler")
    2298                            .dwattr $C$DW$200, DW_AT_TI_call
    2299                    
    2300 00000006 FFFEF7FF!         BL        sl_UnregisterLibsEventHandler ; [DPU_V7M3_PIPE] |502|  ; [KEEP 32-BIT INS]
    2301                            ; CALL OCCURS {sl_UnregisterLibsEventHandler }  ; [] |502| 
    2302                            .dwpsn  file "/vagrant/Q3_SDK_01/sdk_root/source/ti/drivers/net/wifi/slnetif/slwificonn.c",lin
    2303                    ;----------------------------------------------------------------------
    2304                    ; 503 | sl_UnregisterLibsEventHandler(SL_EVENT_HDL_NETAPP, &SlEventHandlers[1])
    2305                    ;     | ;                                                                      
    2306                    ;----------------------------------------------------------------------
    2307 0000000a 491A              LDR       A2, $C$CON8           ; [DPU_V7M3_PIPE] |503|  ; [ORIG 16-BIT INS]
    2308 0000000c 2003              MOVS      A1, #3                ; [DPU_V7M3_PIPE] |503|  ; [ORIG 16-BIT INS]
    2309                    $C$DW$201       .dwtag  DW_TAG_TI_branch
    2310                            .dwattr $C$DW$201, DW_AT_low_pc(0x00)
TI ARM Assembler Unix v20.2.1 Wed Sep 16 12:09:22 2020

Copyright (c) 1996-2018 Texas Instruments Incorporated
slwificonn.asm                                                       PAGE   43

    2311                            .dwattr $C$DW$201, DW_AT_name("sl_UnregisterLibsEventHandler")
    2312                            .dwattr $C$DW$201, DW_AT_TI_call
    2313                    
    2314 0000000e FFFEF7FF!         BL        sl_UnregisterLibsEventHandler ; [DPU_V7M3_PIPE] |503|  ; [KEEP 32-BIT INS]
    2315                            ; CALL OCCURS {sl_UnregisterLibsEventHandler }  ; [] |503| 
    2316                            .dwpsn  file "/vagrant/Q3_SDK_01/sdk_root/source/ti/drivers/net/wifi/slnetif/slwificonn.c",lin
    2317                    ;----------------------------------------------------------------------
    2318                    ; 504 | sl_UnregisterLibsEventHandler(SL_EVENT_HDL_DEVICE_GENERAL, &SlEventHand
    2319                    ;     | lers[2]);                                                              
    2320                    ;----------------------------------------------------------------------
    2321 00000012 4919              LDR       A2, $C$CON9           ; [DPU_V7M3_PIPE] |504|  ; [ORIG 16-BIT INS]
    2322 00000014 2001              MOVS      A1, #1                ; [DPU_V7M3_PIPE] |504|  ; [ORIG 16-BIT INS]
    2323                    $C$DW$202       .dwtag  DW_TAG_TI_branch
    2324                            .dwattr $C$DW$202, DW_AT_low_pc(0x00)
    2325                            .dwattr $C$DW$202, DW_AT_name("sl_UnregisterLibsEventHandler")
    2326                            .dwattr $C$DW$202, DW_AT_TI_call
    2327                    
    2328 00000016 FFFEF7FF!         BL        sl_UnregisterLibsEventHandler ; [DPU_V7M3_PIPE] |504|  ; [KEEP 32-BIT INS]
    2329                            ; CALL OCCURS {sl_UnregisterLibsEventHandler }  ; [] |504| 
    2330                            .dwpsn  file "/vagrant/Q3_SDK_01/sdk_root/source/ti/drivers/net/wifi/slnetif/slwificonn.c",lin
    2331                    ;----------------------------------------------------------------------
    2332                    ; 506 | mq_close(g_ctx->DeferredEventQ);                                       
    2333                    ;----------------------------------------------------------------------
    2334 0000001a 4818              LDR       A1, $C$CON10          ; [DPU_V7M3_PIPE] |506|  ; [ORIG 16-BIT INS]
    2335 0000001c 6800              LDR       A1, [A1, #0]          ; [DPU_V7M3_PIPE] |506|  ; [ORIG 16-BIT INS]
    2336 0000001e 6880              LDR       A1, [A1, #8]          ; [DPU_V7M3_PIPE] |506|  ; [ORIG 16-BIT INS]
    2337                    $C$DW$203       .dwtag  DW_TAG_TI_branch
    2338                            .dwattr $C$DW$203, DW_AT_low_pc(0x00)
    2339                            .dwattr $C$DW$203, DW_AT_name("mq_close")
    2340                            .dwattr $C$DW$203, DW_AT_TI_call
    2341                    
    2342 00000020 FFFEF7FF!         BL        mq_close              ; [DPU_V7M3_PIPE] |506|  ; [KEEP 32-BIT INS]
    2343                            ; CALL OCCURS {mq_close }        ; [] |506| 
    2344                            .dwpsn  file "/vagrant/Q3_SDK_01/sdk_root/source/ti/drivers/net/wifi/slnetif/slwificonn.c",lin
    2345                    ;----------------------------------------------------------------------
    2346                    ; 507 | mq_close(g_ctx->eventQ);                                               
    2347                    ;----------------------------------------------------------------------
    2348 00000024 4815              LDR       A1, $C$CON10          ; [DPU_V7M3_PIPE] |507|  ; [ORIG 16-BIT INS]
    2349 00000026 6800              LDR       A1, [A1, #0]          ; [DPU_V7M3_PIPE] |507|  ; [ORIG 16-BIT INS]
    2350 00000028 6840              LDR       A1, [A1, #4]          ; [DPU_V7M3_PIPE] |507|  ; [ORIG 16-BIT INS]
    2351                    $C$DW$204       .dwtag  DW_TAG_TI_branch
    2352                            .dwattr $C$DW$204, DW_AT_low_pc(0x00)
    2353                            .dwattr $C$DW$204, DW_AT_name("mq_close")
    2354                            .dwattr $C$DW$204, DW_AT_TI_call
    2355                    
    2356 0000002a FFFEF7FF!         BL        mq_close              ; [DPU_V7M3_PIPE] |507|  ; [KEEP 32-BIT INS]
    2357                            ; CALL OCCURS {mq_close }        ; [] |507| 
    2358                            .dwpsn  file "/vagrant/Q3_SDK_01/sdk_root/source/ti/drivers/net/wifi/slnetif/slwificonn.c",lin
    2359                    ;----------------------------------------------------------------------
    2360                    ; 509 | timer_delete(g_ctx->timer);                                            
    2361                    ;----------------------------------------------------------------------
    2362 0000002e 4813              LDR       A1, $C$CON10          ; [DPU_V7M3_PIPE] |509|  ; [ORIG 16-BIT INS]
    2363 00000030 6800              LDR       A1, [A1, #0]          ; [DPU_V7M3_PIPE] |509|  ; [ORIG 16-BIT INS]
    2364 00000032 68C0              LDR       A1, [A1, #12]         ; [DPU_V7M3_PIPE] |509|  ; [ORIG 16-BIT INS]
    2365                    $C$DW$205       .dwtag  DW_TAG_TI_branch
TI ARM Assembler Unix v20.2.1 Wed Sep 16 12:09:22 2020

Copyright (c) 1996-2018 Texas Instruments Incorporated
slwificonn.asm                                                       PAGE   44

    2366                            .dwattr $C$DW$205, DW_AT_low_pc(0x00)
    2367                            .dwattr $C$DW$205, DW_AT_name("timer_delete")
    2368                            .dwattr $C$DW$205, DW_AT_TI_call
    2369                    
    2370 00000034 FFFEF7FF!         BL        timer_delete          ; [DPU_V7M3_PIPE] |509|  ; [KEEP 32-BIT INS]
    2371                            ; CALL OCCURS {timer_delete }    ; [] |509| 
    2372                            .dwpsn  file "/vagrant/Q3_SDK_01/sdk_root/source/ti/drivers/net/wifi/slnetif/slwificonn.c",lin
    2373                    ;----------------------------------------------------------------------
    2374                    ; 511 | if(g_ctx->pNonPersistentProfile)                                       
    2375                    ;----------------------------------------------------------------------
    2376 00000038 4810              LDR       A1, $C$CON10          ; [DPU_V7M3_PIPE] |511|  ; [ORIG 16-BIT INS]
    2377 0000003a 6800              LDR       A1, [A1, #0]          ; [DPU_V7M3_PIPE] |511|  ; [ORIG 16-BIT INS]
    2378 0000003c 6F00              LDR       A1, [A1, #112]        ; [DPU_V7M3_PIPE] |511|  ; [ORIG 16-BIT INS]
    2379 0000003e B120              CBZ       A1, ||$C$L31||        ; []  ; [ORIG 16-BIT INS]
    2380                            ; BRANCHCC OCCURS {||$C$L31||}   ; [] |511| 
    2381                    ;* --------------------------------------------------------------------------*
    2382                            .dwpsn  file "/vagrant/Q3_SDK_01/sdk_root/source/ti/drivers/net/wifi/slnetif/slwificonn.c",lin
    2383                    ;----------------------------------------------------------------------
    2384                    ; 513 | free(g_ctx->pNonPersistentProfile);                                    
    2385                    ;----------------------------------------------------------------------
    2386 00000040 480E              LDR       A1, $C$CON10          ; [DPU_V7M3_PIPE] |513|  ; [ORIG 16-BIT INS]
    2387 00000042 6800              LDR       A1, [A1, #0]          ; [DPU_V7M3_PIPE] |513|  ; [ORIG 16-BIT INS]
    2388 00000044 6F00              LDR       A1, [A1, #112]        ; [DPU_V7M3_PIPE] |513|  ; [ORIG 16-BIT INS]
    2389                    $C$DW$206       .dwtag  DW_TAG_TI_branch
    2390                            .dwattr $C$DW$206, DW_AT_low_pc(0x00)
    2391                            .dwattr $C$DW$206, DW_AT_name("free")
    2392                            .dwattr $C$DW$206, DW_AT_TI_call
    2393                    
    2394 00000046 FFFEF7FF!         BL        free                  ; [DPU_V7M3_PIPE] |513|  ; [KEEP 32-BIT INS]
    2395                            ; CALL OCCURS {free }            ; [] |513| 
    2396                    ;* --------------------------------------------------------------------------*
    2397 0000004a           ||$C$L31||:    
    2398                            .dwpsn  file "/vagrant/Q3_SDK_01/sdk_root/source/ti/drivers/net/wifi/slnetif/slwificonn.c",lin
    2399                    ;----------------------------------------------------------------------
    2400                    ; 515 | sl_Stop(SL_STOP_TIMEOUT);                                              
    2401                    ;----------------------------------------------------------------------
    2402 0000004a 20C8              MOVS      A1, #200              ; [DPU_V7M3_PIPE] |515|  ; [ORIG 16-BIT INS]
    2403                    $C$DW$207       .dwtag  DW_TAG_TI_branch
    2404                            .dwattr $C$DW$207, DW_AT_low_pc(0x00)
    2405                            .dwattr $C$DW$207, DW_AT_name("sl_Stop")
    2406                            .dwattr $C$DW$207, DW_AT_TI_call
    2407                    
    2408 0000004c FFFEF7FF!         BL        sl_Stop               ; [DPU_V7M3_PIPE] |515|  ; [KEEP 32-BIT INS]
    2409                            ; CALL OCCURS {sl_Stop }         ; [] |515| 
    2410                            .dwpsn  file "/vagrant/Q3_SDK_01/sdk_root/source/ti/drivers/net/wifi/slnetif/slwificonn.c",lin
    2411                    ;----------------------------------------------------------------------
    2412                    ; 517 | free(g_ctx);                                                           
    2413                    ;----------------------------------------------------------------------
    2414 00000050 480A              LDR       A1, $C$CON10          ; [DPU_V7M3_PIPE] |517|  ; [ORIG 16-BIT INS]
    2415 00000052 6800              LDR       A1, [A1, #0]          ; [DPU_V7M3_PIPE] |517|  ; [ORIG 16-BIT INS]
    2416                    $C$DW$208       .dwtag  DW_TAG_TI_branch
    2417                            .dwattr $C$DW$208, DW_AT_low_pc(0x00)
    2418                            .dwattr $C$DW$208, DW_AT_name("free")
    2419                            .dwattr $C$DW$208, DW_AT_TI_call
    2420                    
TI ARM Assembler Unix v20.2.1 Wed Sep 16 12:09:22 2020

Copyright (c) 1996-2018 Texas Instruments Incorporated
slwificonn.asm                                                       PAGE   45

    2421 00000054 FFFEF7FF!         BL        free                  ; [DPU_V7M3_PIPE] |517|  ; [KEEP 32-BIT INS]
    2422                            ; CALL OCCURS {free }            ; [] |517| 
    2423                            .dwpsn  file "/vagrant/Q3_SDK_01/sdk_root/source/ti/drivers/net/wifi/slnetif/slwificonn.c",lin
    2424                    ;----------------------------------------------------------------------
    2425                    ; 518 | g_ctx = NULL;                                                          
    2426                    ;----------------------------------------------------------------------
    2427 00000058 4908              LDR       A2, $C$CON10          ; [DPU_V7M3_PIPE] |518|  ; [ORIG 16-BIT INS]
    2428 0000005a 2000              MOVS      A1, #0                ; [DPU_V7M3_PIPE] |518|  ; [ORIG 16-BIT INS]
    2429 0000005c 6008              STR       A1, [A2, #0]          ; [DPU_V7M3_PIPE] |518|  ; [ORIG 16-BIT INS]
    2430                            .dwpsn  file "/vagrant/Q3_SDK_01/sdk_root/source/ti/drivers/net/wifi/slnetif/slwificonn.c",lin
    2431                    ;----------------------------------------------------------------------
    2432                    ; 520 | CRITICAL_SECTION_EXIT();                                               
    2433                    ;----------------------------------------------------------------------
    2434 0000005e 4808              LDR       A1, $C$CON11          ; [DPU_V7M3_PIPE] |520|  ; [ORIG 16-BIT INS]
    2435                    $C$DW$209       .dwtag  DW_TAG_TI_branch
    2436                            .dwattr $C$DW$209, DW_AT_low_pc(0x00)
    2437                            .dwattr $C$DW$209, DW_AT_name("sem_post")
    2438                            .dwattr $C$DW$209, DW_AT_TI_call
    2439                    
    2440 00000060 FFFEF7FF!         BL        sem_post              ; [DPU_V7M3_PIPE] |520|  ; [KEEP 32-BIT INS]
    2441                            ; CALL OCCURS {sem_post }        ; [] |520| 
    2442                            .dwpsn  file "/vagrant/Q3_SDK_01/sdk_root/source/ti/drivers/net/wifi/slnetif/slwificonn.c",lin
    2443                    ;----------------------------------------------------------------------
    2444                    ; 521 | CRITICAL_SECTION_DESTROY();                                            
    2445                    ;----------------------------------------------------------------------
    2446 00000064 4806              LDR       A1, $C$CON11          ; [DPU_V7M3_PIPE] |521|  ; [ORIG 16-BIT INS]
    2447                    $C$DW$210       .dwtag  DW_TAG_TI_branch
    2448                            .dwattr $C$DW$210, DW_AT_low_pc(0x00)
    2449                            .dwattr $C$DW$210, DW_AT_name("sem_destroy")
    2450                            .dwattr $C$DW$210, DW_AT_TI_call
    2451                    
    2452 00000066 FFFEF7FF!         BL        sem_destroy           ; [DPU_V7M3_PIPE] |521|  ; [KEEP 32-BIT INS]
    2453                            ; CALL OCCURS {sem_destroy }     ; [] |521| 
    2454                            .dwpsn  file "/vagrant/Q3_SDK_01/sdk_root/source/ti/drivers/net/wifi/slnetif/slwificonn.c",lin
    2455                    ;----------------------------------------------------------------------
    2456                    ; 523 | return 0;                                                              
    2457                    ;----------------------------------------------------------------------
    2458 0000006a 2000              MOVS      A1, #0                ; [DPU_V7M3_PIPE] |523|  ; [ORIG 16-BIT INS]
    2459                            .dwpsn  file "/vagrant/Q3_SDK_01/sdk_root/source/ti/drivers/net/wifi/slnetif/slwificonn.c",lin
    2460                    $C$DW$211       .dwtag  DW_TAG_TI_branch
    2461                            .dwattr $C$DW$211, DW_AT_low_pc(0x00)
    2462                            .dwattr $C$DW$211, DW_AT_TI_return
    2463                    
    2464 0000006c BD08              POP       {A4, PC}              ; [DPU_V7M3_PIPE]  ; [ORIG 16-BIT INS]
    2465                            .dwcfi  cfa_offset, 0
    2466                            .dwcfi  restore_reg, 3
    2467                            ; BRANCH OCCURS                  ; [] 
    2468                            .dwattr $C$DW$199, DW_AT_TI_end_file("/vagrant/Q3_SDK_01/sdk_root/source/ti/drivers/net/wifi/s
    2469                            .dwattr $C$DW$199, DW_AT_TI_end_line(0x20c)
    2470                            .dwattr $C$DW$199, DW_AT_TI_end_column(0x01)
    2471                            .dwendentry
    2472                            .dwendtag $C$DW$199
    2473                    
    2474 00000000                   .sect   ".text:InitNWPConnPolicy"
    2475                            .clink
TI ARM Assembler Unix v20.2.1 Wed Sep 16 12:09:22 2020

Copyright (c) 1996-2018 Texas Instruments Incorporated
slwificonn.asm                                                       PAGE   46

    2476                            .thumbfunc InitNWPConnPolicy
    2477 00000000                   .thumb
    2478                    
    2479                    $C$DW$212       .dwtag  DW_TAG_subprogram
    2480                            .dwattr $C$DW$212, DW_AT_name("InitNWPConnPolicy")
    2481                            .dwattr $C$DW$212, DW_AT_low_pc(InitNWPConnPolicy)
    2482                            .dwattr $C$DW$212, DW_AT_high_pc(0x00)
    2483                            .dwattr $C$DW$212, DW_AT_TI_symbol_name("InitNWPConnPolicy")
    2484                            .dwattr $C$DW$212, DW_AT_type(*$C$DW$T$10)
    2485                            .dwattr $C$DW$212, DW_AT_TI_begin_file("/vagrant/Q3_SDK_01/sdk_root/source/ti/drivers/net/wifi
    2486                            .dwattr $C$DW$212, DW_AT_TI_begin_line(0x213)
    2487                            .dwattr $C$DW$212, DW_AT_TI_begin_column(0x0c)
    2488                            .dwattr $C$DW$212, DW_AT_decl_file("/vagrant/Q3_SDK_01/sdk_root/source/ti/drivers/net/wifi/sln
    2489                            .dwattr $C$DW$212, DW_AT_decl_line(0x213)
    2490                            .dwattr $C$DW$212, DW_AT_decl_column(0x0c)
    2491                            .dwattr $C$DW$212, DW_AT_TI_max_frame_size(0x10)
    2492                            .dwpsn  file "/vagrant/Q3_SDK_01/sdk_root/source/ti/drivers/net/wifi/slnetif/slwificonn.c",lin
    2493                    
    2494                            .dwfde $C$DW$CIE, InitNWPConnPolicy
    2495                    ;----------------------------------------------------------------------
    2496                    ; 531 | static int InitNWPConnPolicy()                                         
    2497                    ; 533 | int retVal;                                                            
    2498                    ;----------------------------------------------------------------------
    2499                    
    2500                    ;*****************************************************************************
    2501                    ;* FUNCTION NAME: InitNWPConnPolicy                                          *
    2502                    ;*                                                                           *
    2503                    ;*   Regs Modified     : A1,A2,A3,A4,V9,SP,LR,SR                             *
    2504                    ;*   Regs Used         : A1,A2,A3,A4,V9,SP,LR,SR                             *
    2505                    ;*   Local Frame Size  : 0 Args + 8 Auto + 4 Save = 12 byte                  *
    2506                    ;*****************************************************************************
    2507 00000000           InitNWPConnPolicy:
    2508                    ;* --------------------------------------------------------------------------*
    2509                            .dwcfi  cfa_offset, 0
    2510 00000000 B50E              PUSH      {A2, A3, A4, LR}      ; [DPU_V7M3_PIPE]  ; [ORIG 16-BIT INS]
    2511                            .dwcfi  cfa_offset, 16
    2512                            .dwcfi  save_reg_to_mem, 14, -4
    2513                            .dwcfi  save_reg_to_mem, 3, -8
    2514                            .dwcfi  save_reg_to_mem, 2, -12
    2515                            .dwcfi  save_reg_to_mem, 1, -16
    2516                    $C$DW$213       .dwtag  DW_TAG_variable
    2517                            .dwattr $C$DW$213, DW_AT_name("retVal")
    2518                            .dwattr $C$DW$213, DW_AT_TI_symbol_name("retVal")
    2519                            .dwattr $C$DW$213, DW_AT_type(*$C$DW$T$10)
    2520                            .dwattr $C$DW$213, DW_AT_location[DW_OP_breg13 0]
    2521                    
    2522                    $C$DW$214       .dwtag  DW_TAG_variable
    2523                            .dwattr $C$DW$214, DW_AT_name("policy")
    2524                            .dwattr $C$DW$214, DW_AT_TI_symbol_name("policy")
    2525                            .dwattr $C$DW$214, DW_AT_type(*$C$DW$T$71)
    2526                            .dwattr $C$DW$214, DW_AT_location[DW_OP_breg13 4]
    2527                    
    2528                    $C$DW$215       .dwtag  DW_TAG_variable
    2529                            .dwattr $C$DW$215, DW_AT_name("length")
    2530                            .dwattr $C$DW$215, DW_AT_TI_symbol_name("length")
TI ARM Assembler Unix v20.2.1 Wed Sep 16 12:09:22 2020

Copyright (c) 1996-2018 Texas Instruments Incorporated
slwificonn.asm                                                       PAGE   47

    2531                            .dwattr $C$DW$215, DW_AT_type(*$C$DW$T$71)
    2532                            .dwattr $C$DW$215, DW_AT_location[DW_OP_breg13 5]
    2533                    
    2534                            .dwpsn  file "/vagrant/Q3_SDK_01/sdk_root/source/ti/drivers/net/wifi/slnetif/slwificonn.c",lin
    2535                    ;----------------------------------------------------------------------
    2536                    ; 534 | uint8_t policy = 0;                                                    
    2537                    ;----------------------------------------------------------------------
    2538 00000002 2000              MOVS      A1, #0                ; [DPU_V7M3_PIPE] |534|  ; [ORIG 16-BIT INS]
    2539 00000004 0004F88D          STRB      A1, [SP, #4]          ; [DPU_V7M3_PIPE] |534|  ; [KEEP 32-BIT INS]
    2540                            .dwpsn  file "/vagrant/Q3_SDK_01/sdk_root/source/ti/drivers/net/wifi/slnetif/slwificonn.c",lin
    2541                    ;----------------------------------------------------------------------
    2542                    ; 535 | uint8_t length = 1;                                                    
    2543                    ;----------------------------------------------------------------------
    2544 00000008 2001              MOVS      A1, #1                ; [DPU_V7M3_PIPE] |535|  ; [ORIG 16-BIT INS]
    2545 0000000a 0005F88D          STRB      A1, [SP, #5]          ; [DPU_V7M3_PIPE] |535|  ; [KEEP 32-BIT INS]
    2546                            .dwpsn  file "/vagrant/Q3_SDK_01/sdk_root/source/ti/drivers/net/wifi/slnetif/slwificonn.c",lin
    2547                    ;----------------------------------------------------------------------
    2548                    ; 537 | retVal = sl_WlanPolicyGet(SL_WLAN_POLICY_CONNECTION ,&policy, NULL, &le
    2549                    ;     | ngth);                                                                 
    2550                    ;----------------------------------------------------------------------
    2551 0000000e 2200              MOVS      A3, #0                ; [DPU_V7M3_PIPE] |537|  ; [ORIG 16-BIT INS]
    2552 00000010 2010              MOVS      A1, #16               ; [DPU_V7M3_PIPE] |537|  ; [ORIG 16-BIT INS]
    2553 00000012 A901              ADD       A2, SP, #4            ; [DPU_V7M3_PIPE] |537|  ; [ORIG 16-BIT INS]
    2554 00000014 0305F10D          ADD       A4, SP, #5            ; [DPU_V7M3_PIPE] |537|  ; [KEEP 32-BIT INS]
    2555                    $C$DW$216       .dwtag  DW_TAG_TI_branch
    2556                            .dwattr $C$DW$216, DW_AT_low_pc(0x00)
    2557                            .dwattr $C$DW$216, DW_AT_name("sl_WlanPolicyGet")
    2558                            .dwattr $C$DW$216, DW_AT_TI_call
    2559                    
    2560 00000018 FFFEF7FF!         BL        sl_WlanPolicyGet      ; [DPU_V7M3_PIPE] |537|  ; [KEEP 32-BIT INS]
    2561                            ; CALL OCCURS {sl_WlanPolicyGet }  ; [] |537| 
    2562 0000001c 9000              STR       A1, [SP, #0]          ; [DPU_V7M3_PIPE] |537|  ; [ORIG 16-BIT INS]
    2563                            .dwpsn  file "/vagrant/Q3_SDK_01/sdk_root/source/ti/drivers/net/wifi/slnetif/slwificonn.c",lin
    2564                    ;----------------------------------------------------------------------
    2565                    ; 538 | if(retVal == 0)                                                        
    2566                    ;----------------------------------------------------------------------
    2567 0000001e 9800              LDR       A1, [SP, #0]          ; [DPU_V7M3_PIPE] |538|  ; [ORIG 16-BIT INS]
    2568 00000020 B988              CBNZ      A1, ||$C$L32||        ; []  ; [ORIG 16-BIT INS]
    2569                            ; BRANCHCC OCCURS {||$C$L32||}   ; [] |538| 
    2570                    ;* --------------------------------------------------------------------------*
    2571                            .dwpsn  file "/vagrant/Q3_SDK_01/sdk_root/source/ti/drivers/net/wifi/slnetif/slwificonn.c",lin
    2572                    ;----------------------------------------------------------------------
    2573                    ; 542 | g_ctx->enabledPolicy = (policy | SL_WLAN_CONNECTION_POLICY(1,0,0,0)) &
    2574                    ;     | ~(SL_WLAN_CONNECTION_POLICY(0,0,0,1));                                 
    2575                    ;----------------------------------------------------------------------
    2576 00000022 490A              LDR       A2, $C$CON12          ; [DPU_V7M3_PIPE] |542|  ; [ORIG 16-BIT INS]
    2577 00000024 0004F89D          LDRB      A1, [SP, #4]          ; [DPU_V7M3_PIPE] |542|  ; [KEEP 32-BIT INS]
    2578 00000028 6809              LDR       A2, [A2, #0]          ; [DPU_V7M3_PIPE] |542|  ; [ORIG 16-BIT INS]
    2579 0000002a 0001F040          ORR       A1, A1, #1            ; [DPU_V7M3_PIPE] |542|  ; [KEEP 32-BIT INS]
    2580 0000002e 0020F020          BIC       A1, A1, #32           ; [DPU_V7M3_PIPE] |542|  ; [KEEP 32-BIT INS]
    2581 00000032 0076F881          STRB      A1, [A2, #118]        ; [DPU_V7M3_PIPE] |542|  ; [KEEP 32-BIT INS]
    2582                            .dwpsn  file "/vagrant/Q3_SDK_01/sdk_root/source/ti/drivers/net/wifi/slnetif/slwificonn.c",lin
    2583                    ;----------------------------------------------------------------------
    2584                    ; 545 | g_ctx->disabledPolicy = policy & ~(SL_WLAN_CONNECTION_POLICY(1,1,0,1));
    2585                    ;----------------------------------------------------------------------
TI ARM Assembler Unix v20.2.1 Wed Sep 16 12:09:22 2020

Copyright (c) 1996-2018 Texas Instruments Incorporated
slwificonn.asm                                                       PAGE   48

    2586 00000036 4905              LDR       A2, $C$CON12          ; [DPU_V7M3_PIPE] |545|  ; [ORIG 16-BIT INS]
    2587 00000038 0004F89D          LDRB      A1, [SP, #4]          ; [DPU_V7M3_PIPE] |545|  ; [KEEP 32-BIT INS]
    2588 0000003c 6809              LDR       A2, [A2, #0]          ; [DPU_V7M3_PIPE] |545|  ; [ORIG 16-BIT INS]
    2589 0000003e 0023F020          BIC       A1, A1, #35           ; [DPU_V7M3_PIPE] |545|  ; [KEEP 32-BIT INS]
    2590 00000042 0075F881          STRB      A1, [A2, #117]        ; [DPU_V7M3_PIPE] |545|  ; [KEEP 32-BIT INS]
    2591                    ;* --------------------------------------------------------------------------*
    2592 00000046           ||$C$L32||:    
    2593                            .dwpsn  file "/vagrant/Q3_SDK_01/sdk_root/source/ti/drivers/net/wifi/slnetif/slwificonn.c",lin
    2594                    ;----------------------------------------------------------------------
    2595                    ; 547 | return retVal;                                                         
    2596                    ;----------------------------------------------------------------------
    2597 00000046 9800              LDR       A1, [SP, #0]          ; [DPU_V7M3_PIPE] |547|  ; [ORIG 16-BIT INS]
    2598                            .dwpsn  file "/vagrant/Q3_SDK_01/sdk_root/source/ti/drivers/net/wifi/slnetif/slwificonn.c",lin
    2599                    $C$DW$217       .dwtag  DW_TAG_TI_branch
    2600                            .dwattr $C$DW$217, DW_AT_low_pc(0x00)
    2601                            .dwattr $C$DW$217, DW_AT_TI_return
    2602                    
    2603 00000048 BD0E              POP       {A2, A3, A4, PC}      ; [DPU_V7M3_PIPE]  ; [ORIG 16-BIT INS]
    2604                            .dwcfi  cfa_offset, 0
    2605                            .dwcfi  restore_reg, 3
    2606                            .dwcfi  restore_reg, 2
    2607                            .dwcfi  restore_reg, 1
    2608                            ; BRANCH OCCURS                  ; [] 
    2609                            .dwattr $C$DW$212, DW_AT_TI_end_file("/vagrant/Q3_SDK_01/sdk_root/source/ti/drivers/net/wifi/s
    2610                            .dwattr $C$DW$212, DW_AT_TI_end_line(0x224)
    2611                            .dwattr $C$DW$212, DW_AT_TI_end_column(0x01)
    2612                            .dwendentry
    2613                            .dwendtag $C$DW$212
    2614                    
    2615 00000000                   .sect   ".text:SuspendNWP"
    2616                            .clink
    2617                            .thumbfunc SuspendNWP
    2618 00000000                   .thumb
    2619                    
    2620                    $C$DW$218       .dwtag  DW_TAG_subprogram
    2621                            .dwattr $C$DW$218, DW_AT_name("SuspendNWP")
    2622                            .dwattr $C$DW$218, DW_AT_low_pc(SuspendNWP)
    2623                            .dwattr $C$DW$218, DW_AT_high_pc(0x00)
    2624                            .dwattr $C$DW$218, DW_AT_TI_symbol_name("SuspendNWP")
    2625                            .dwattr $C$DW$218, DW_AT_type(*$C$DW$T$10)
    2626                            .dwattr $C$DW$218, DW_AT_TI_begin_file("/vagrant/Q3_SDK_01/sdk_root/source/ti/drivers/net/wifi
    2627                            .dwattr $C$DW$218, DW_AT_TI_begin_line(0x22c)
    2628                            .dwattr $C$DW$218, DW_AT_TI_begin_column(0x0c)
    2629                            .dwattr $C$DW$218, DW_AT_decl_file("/vagrant/Q3_SDK_01/sdk_root/source/ti/drivers/net/wifi/sln
    2630                            .dwattr $C$DW$218, DW_AT_decl_line(0x22c)
    2631                            .dwattr $C$DW$218, DW_AT_decl_column(0x0c)
    2632                            .dwattr $C$DW$218, DW_AT_TI_max_frame_size(0x10)
    2633                            .dwpsn  file "/vagrant/Q3_SDK_01/sdk_root/source/ti/drivers/net/wifi/slnetif/slwificonn.c",lin
    2634                    
    2635                            .dwfde $C$DW$CIE, SuspendNWP
    2636                    $C$DW$219       .dwtag  DW_TAG_formal_parameter
    2637                            .dwattr $C$DW$219, DW_AT_name("bNotify")
    2638                            .dwattr $C$DW$219, DW_AT_TI_symbol_name("bNotify")
    2639                            .dwattr $C$DW$219, DW_AT_type(*$C$DW$T$10)
    2640                            .dwattr $C$DW$219, DW_AT_location[DW_OP_reg0]
TI ARM Assembler Unix v20.2.1 Wed Sep 16 12:09:22 2020

Copyright (c) 1996-2018 Texas Instruments Incorporated
slwificonn.asm                                                       PAGE   49

    2641                    
    2642                    ;----------------------------------------------------------------------
    2643                    ; 556 | static int SuspendNWP(bool bNotify)                                    
    2644                    ;----------------------------------------------------------------------
    2645                    
    2646                    ;*****************************************************************************
    2647                    ;* FUNCTION NAME: SuspendNWP                                                 *
    2648                    ;*                                                                           *
    2649                    ;*   Regs Modified     : A1,A2,A3,A4,V9,SP,LR,SR                             *
    2650                    ;*   Regs Used         : A1,A2,A3,A4,V9,SP,LR,SR                             *
    2651                    ;*   Local Frame Size  : 0 Args + 12 Auto + 4 Save = 16 byte                 *
    2652                    ;*****************************************************************************
    2653 00000000           SuspendNWP:
    2654                    ;* --------------------------------------------------------------------------*
    2655                            .dwcfi  cfa_offset, 0
    2656 00000000 B50E              PUSH      {A2, A3, A4, LR}      ; [DPU_V7M3_PIPE]  ; [ORIG 16-BIT INS]
    2657                            .dwcfi  cfa_offset, 16
    2658                            .dwcfi  save_reg_to_mem, 14, -4
    2659                            .dwcfi  save_reg_to_mem, 3, -8
    2660                            .dwcfi  save_reg_to_mem, 2, -12
    2661                            .dwcfi  save_reg_to_mem, 1, -16
    2662                    $C$DW$220       .dwtag  DW_TAG_variable
    2663                            .dwattr $C$DW$220, DW_AT_name("retVal")
    2664                            .dwattr $C$DW$220, DW_AT_TI_symbol_name("retVal")
    2665                            .dwattr $C$DW$220, DW_AT_type(*$C$DW$T$10)
    2666                            .dwattr $C$DW$220, DW_AT_location[DW_OP_breg13 0]
    2667                    
    2668                    $C$DW$221       .dwtag  DW_TAG_variable
    2669                            .dwattr $C$DW$221, DW_AT_name("flags")
    2670                            .dwattr $C$DW$221, DW_AT_TI_symbol_name("flags")
    2671                            .dwattr $C$DW$221, DW_AT_type(*$C$DW$T$112)
    2672                            .dwattr $C$DW$221, DW_AT_location[DW_OP_breg13 4]
    2673                    
    2674                    $C$DW$222       .dwtag  DW_TAG_variable
    2675                            .dwattr $C$DW$222, DW_AT_name("bNotify")
    2676                            .dwattr $C$DW$222, DW_AT_TI_symbol_name("bNotify")
    2677                            .dwattr $C$DW$222, DW_AT_type(*$C$DW$T$94)
    2678                            .dwattr $C$DW$222, DW_AT_location[DW_OP_breg13 8]
    2679                    
    2680                    ;----------------------------------------------------------------------
    2681                    ; 558 | int retVal;                                                            
    2682                    ;----------------------------------------------------------------------
    2683 00000002 0008F88D          STRB      A1, [SP, #8]          ; [DPU_V7M3_PIPE] |557|  ; [KEEP 32-BIT INS]
    2684                            .dwpsn  file "/vagrant/Q3_SDK_01/sdk_root/source/ti/drivers/net/wifi/slnetif/slwificonn.c",lin
    2685                    ;----------------------------------------------------------------------
    2686                    ; 559 | uint32_t flags = NON_PERSISTANT_FLAG;                                  
    2687                    ;----------------------------------------------------------------------
    2688 00000006 2001              MOVS      A1, #1                ; [DPU_V7M3_PIPE] |559|  ; [ORIG 16-BIT INS]
    2689 00000008 9001              STR       A1, [SP, #4]          ; [DPU_V7M3_PIPE] |559|  ; [ORIG 16-BIT INS]
    2690                            .dwpsn  file "/vagrant/Q3_SDK_01/sdk_root/source/ti/drivers/net/wifi/slnetif/slwificonn.c",lin
    2691                    ;----------------------------------------------------------------------
    2692                    ; 560 | retVal = sl_WlanPolicySet(SL_WLAN_POLICY_CONNECTION, g_ctx->disabledPol
    2693                    ;     | icy, (uint8_t*)&flags, sizeof(uint32_t));                              
    2694                    ;----------------------------------------------------------------------
    2695 0000000a 480A              LDR       A1, $C$CON13          ; [DPU_V7M3_PIPE] |560|  ; [ORIG 16-BIT INS]
TI ARM Assembler Unix v20.2.1 Wed Sep 16 12:09:22 2020

Copyright (c) 1996-2018 Texas Instruments Incorporated
slwificonn.asm                                                       PAGE   50

    2696 0000000c 6800              LDR       A1, [A1, #0]          ; [DPU_V7M3_PIPE] |560|  ; [ORIG 16-BIT INS]
    2697 0000000e 1075F890          LDRB      A2, [A1, #117]        ; [DPU_V7M3_PIPE] |560|  ; [KEEP 32-BIT INS]
    2698 00000012 2304              MOVS      A4, #4                ; [DPU_V7M3_PIPE] |560|  ; [ORIG 16-BIT INS]
    2699 00000014 AA01              ADD       A3, SP, #4            ; [DPU_V7M3_PIPE] |560|  ; [ORIG 16-BIT INS]
    2700 00000016 2010              MOVS      A1, #16               ; [DPU_V7M3_PIPE] |560|  ; [ORIG 16-BIT INS]
    2701                    $C$DW$223       .dwtag  DW_TAG_TI_branch
    2702                            .dwattr $C$DW$223, DW_AT_low_pc(0x00)
    2703                            .dwattr $C$DW$223, DW_AT_name("sl_WlanPolicySet")
    2704                            .dwattr $C$DW$223, DW_AT_TI_call
    2705                    
    2706 00000018 FFFEF7FF!         BL        sl_WlanPolicySet      ; [DPU_V7M3_PIPE] |560|  ; [KEEP 32-BIT INS]
    2707                            ; CALL OCCURS {sl_WlanPolicySet }  ; [] |560| 
    2708 0000001c 9000              STR       A1, [SP, #0]          ; [DPU_V7M3_PIPE] |560|  ; [ORIG 16-BIT INS]
    2709                            .dwpsn  file "/vagrant/Q3_SDK_01/sdk_root/source/ti/drivers/net/wifi/slnetif/slwificonn.c",lin
    2710                    ;----------------------------------------------------------------------
    2711                    ; 561 | if(retVal == 0 && bNotify)                                             
    2712                    ;----------------------------------------------------------------------
    2713 0000001e 9800              LDR       A1, [SP, #0]          ; [DPU_V7M3_PIPE] |561|  ; [ORIG 16-BIT INS]
    2714 00000020 B930              CBNZ      A1, ||$C$L33||        ; []  ; [ORIG 16-BIT INS]
    2715                            ; BRANCHCC OCCURS {||$C$L33||}   ; [] |561| 
    2716                    ;* --------------------------------------------------------------------------*
    2717 00000022 0008F89D          LDRB      A1, [SP, #8]          ; [DPU_V7M3_PIPE] |561|  ; [KEEP 32-BIT INS]
    2718 00000026 B118              CBZ       A1, ||$C$L33||        ; []  ; [ORIG 16-BIT INS]
    2719                            ; BRANCHCC OCCURS {||$C$L33||}   ; [] |561| 
    2720                    ;* --------------------------------------------------------------------------*
    2721                            .dwpsn  file "/vagrant/Q3_SDK_01/sdk_root/source/ti/drivers/net/wifi/slnetif/slwificonn.c",lin
    2722                    ;----------------------------------------------------------------------
    2723                    ; 563 | NotifyWifiApp(WifiConnEvent_POWERED_DOWN, 0);                          
    2724                    ;----------------------------------------------------------------------
    2725 00000028 2001              MOVS      A1, #1                ; [DPU_V7M3_PIPE] |563|  ; [ORIG 16-BIT INS]
    2726 0000002a 2100              MOVS      A2, #0                ; [DPU_V7M3_PIPE] |563|  ; [ORIG 16-BIT INS]
    2727                    $C$DW$224       .dwtag  DW_TAG_TI_branch
    2728                            .dwattr $C$DW$224, DW_AT_low_pc(0x00)
    2729                            .dwattr $C$DW$224, DW_AT_name("NotifyWifiApp")
    2730                            .dwattr $C$DW$224, DW_AT_TI_call
    2731                    
    2732 0000002c FFFEF7FF!         BL        NotifyWifiApp         ; [DPU_V7M3_PIPE] |563|  ; [KEEP 32-BIT INS]
    2733                            ; CALL OCCURS {NotifyWifiApp }   ; [] |563| 
    2734                    ;* --------------------------------------------------------------------------*
    2735 00000030           ||$C$L33||:    
    2736                            .dwpsn  file "/vagrant/Q3_SDK_01/sdk_root/source/ti/drivers/net/wifi/slnetif/slwificonn.c",lin
    2737                    ;----------------------------------------------------------------------
    2738                    ; 565 | return retVal;                                                         
    2739                    ;----------------------------------------------------------------------
    2740 00000030 9800              LDR       A1, [SP, #0]          ; [DPU_V7M3_PIPE] |565|  ; [ORIG 16-BIT INS]
    2741                            .dwpsn  file "/vagrant/Q3_SDK_01/sdk_root/source/ti/drivers/net/wifi/slnetif/slwificonn.c",lin
    2742                    $C$DW$225       .dwtag  DW_TAG_TI_branch
    2743                            .dwattr $C$DW$225, DW_AT_low_pc(0x00)
    2744                            .dwattr $C$DW$225, DW_AT_TI_return
    2745                    
    2746 00000032 BD0E              POP       {A2, A3, A4, PC}      ; [DPU_V7M3_PIPE]  ; [ORIG 16-BIT INS]
    2747                            .dwcfi  cfa_offset, 0
    2748                            .dwcfi  restore_reg, 3
    2749                            .dwcfi  restore_reg, 2
    2750                            .dwcfi  restore_reg, 1
TI ARM Assembler Unix v20.2.1 Wed Sep 16 12:09:22 2020

Copyright (c) 1996-2018 Texas Instruments Incorporated
slwificonn.asm                                                       PAGE   51

    2751                            ; BRANCH OCCURS                  ; [] 
    2752                            .dwattr $C$DW$218, DW_AT_TI_end_file("/vagrant/Q3_SDK_01/sdk_root/source/ti/drivers/net/wifi/s
    2753                            .dwattr $C$DW$218, DW_AT_TI_end_line(0x236)
    2754                            .dwattr $C$DW$218, DW_AT_TI_end_column(0x01)
    2755                            .dwendentry
    2756                            .dwendtag $C$DW$218
    2757                    
    2758 00000000                   .sect   ".text:ResumeNWP"
    2759                            .clink
    2760                            .thumbfunc ResumeNWP
    2761 00000000                   .thumb
    2762                    
    2763                    $C$DW$226       .dwtag  DW_TAG_subprogram
    2764                            .dwattr $C$DW$226, DW_AT_name("ResumeNWP")
    2765                            .dwattr $C$DW$226, DW_AT_low_pc(ResumeNWP)
    2766                            .dwattr $C$DW$226, DW_AT_high_pc(0x00)
    2767                            .dwattr $C$DW$226, DW_AT_TI_symbol_name("ResumeNWP")
    2768                            .dwattr $C$DW$226, DW_AT_type(*$C$DW$T$10)
    2769                            .dwattr $C$DW$226, DW_AT_TI_begin_file("/vagrant/Q3_SDK_01/sdk_root/source/ti/drivers/net/wifi
    2770                            .dwattr $C$DW$226, DW_AT_TI_begin_line(0x23e)
    2771                            .dwattr $C$DW$226, DW_AT_TI_begin_column(0x0c)
    2772                            .dwattr $C$DW$226, DW_AT_decl_file("/vagrant/Q3_SDK_01/sdk_root/source/ti/drivers/net/wifi/sln
    2773                            .dwattr $C$DW$226, DW_AT_decl_line(0x23e)
    2774                            .dwattr $C$DW$226, DW_AT_decl_column(0x0c)
    2775                            .dwattr $C$DW$226, DW_AT_TI_max_frame_size(0x10)
    2776                            .dwpsn  file "/vagrant/Q3_SDK_01/sdk_root/source/ti/drivers/net/wifi/slnetif/slwificonn.c",lin
    2777                    
    2778                            .dwfde $C$DW$CIE, ResumeNWP
    2779                    $C$DW$227       .dwtag  DW_TAG_formal_parameter
    2780                            .dwattr $C$DW$227, DW_AT_name("bNotify")
    2781                            .dwattr $C$DW$227, DW_AT_TI_symbol_name("bNotify")
    2782                            .dwattr $C$DW$227, DW_AT_type(*$C$DW$T$10)
    2783                            .dwattr $C$DW$227, DW_AT_location[DW_OP_reg0]
    2784                    
    2785                    ;----------------------------------------------------------------------
    2786                    ; 574 | static int ResumeNWP(bool bNotify)                                     
    2787                    ;----------------------------------------------------------------------
    2788                    
    2789                    ;*****************************************************************************
    2790                    ;* FUNCTION NAME: ResumeNWP                                                  *
    2791                    ;*                                                                           *
    2792                    ;*   Regs Modified     : A1,A2,A3,A4,V9,SP,LR,SR                             *
    2793                    ;*   Regs Used         : A1,A2,A3,A4,V9,SP,LR,SR                             *
    2794                    ;*   Local Frame Size  : 0 Args + 12 Auto + 4 Save = 16 byte                 *
    2795                    ;*****************************************************************************
    2796 00000000           ResumeNWP:
    2797                    ;* --------------------------------------------------------------------------*
    2798                            .dwcfi  cfa_offset, 0
    2799 00000000 B50E              PUSH      {A2, A3, A4, LR}      ; [DPU_V7M3_PIPE]  ; [ORIG 16-BIT INS]
    2800                            .dwcfi  cfa_offset, 16
    2801                            .dwcfi  save_reg_to_mem, 14, -4
    2802                            .dwcfi  save_reg_to_mem, 3, -8
    2803                            .dwcfi  save_reg_to_mem, 2, -12
    2804                            .dwcfi  save_reg_to_mem, 1, -16
    2805                    $C$DW$228       .dwtag  DW_TAG_variable
TI ARM Assembler Unix v20.2.1 Wed Sep 16 12:09:22 2020

Copyright (c) 1996-2018 Texas Instruments Incorporated
slwificonn.asm                                                       PAGE   52

    2806                            .dwattr $C$DW$228, DW_AT_name("retVal")
    2807                            .dwattr $C$DW$228, DW_AT_TI_symbol_name("retVal")
    2808                            .dwattr $C$DW$228, DW_AT_type(*$C$DW$T$10)
    2809                            .dwattr $C$DW$228, DW_AT_location[DW_OP_breg13 0]
    2810                    
    2811                    $C$DW$229       .dwtag  DW_TAG_variable
    2812                            .dwattr $C$DW$229, DW_AT_name("flags")
    2813                            .dwattr $C$DW$229, DW_AT_TI_symbol_name("flags")
    2814                            .dwattr $C$DW$229, DW_AT_type(*$C$DW$T$112)
    2815                            .dwattr $C$DW$229, DW_AT_location[DW_OP_breg13 4]
    2816                    
    2817                    $C$DW$230       .dwtag  DW_TAG_variable
    2818                            .dwattr $C$DW$230, DW_AT_name("bNotify")
    2819                            .dwattr $C$DW$230, DW_AT_TI_symbol_name("bNotify")
    2820                            .dwattr $C$DW$230, DW_AT_type(*$C$DW$T$94)
    2821                            .dwattr $C$DW$230, DW_AT_location[DW_OP_breg13 8]
    2822                    
    2823                    ;----------------------------------------------------------------------
    2824                    ; 576 | int retVal;                                                            
    2825                    ;----------------------------------------------------------------------
    2826 00000002 0008F88D          STRB      A1, [SP, #8]          ; [DPU_V7M3_PIPE] |575|  ; [KEEP 32-BIT INS]
    2827                            .dwpsn  file "/vagrant/Q3_SDK_01/sdk_root/source/ti/drivers/net/wifi/slnetif/slwificonn.c",lin
    2828                    ;----------------------------------------------------------------------
    2829                    ; 577 | uint32_t flags = NON_PERSISTANT_FLAG;                                  
    2830                    ;----------------------------------------------------------------------
    2831 00000006 2001              MOVS      A1, #1                ; [DPU_V7M3_PIPE] |577|  ; [ORIG 16-BIT INS]
    2832 00000008 9001              STR       A1, [SP, #4]          ; [DPU_V7M3_PIPE] |577|  ; [ORIG 16-BIT INS]
    2833                            .dwpsn  file "/vagrant/Q3_SDK_01/sdk_root/source/ti/drivers/net/wifi/slnetif/slwificonn.c",lin
    2834                    ;----------------------------------------------------------------------
    2835                    ; 579 | retVal = sl_WlanPolicySet(SL_WLAN_POLICY_CONNECTION, g_ctx->enabledPoli
    2836                    ;     | cy, (uint8_t*)&flags, sizeof(uint32_t));                               
    2837                    ;----------------------------------------------------------------------
    2838 0000000a 480B              LDR       A1, $C$CON14          ; [DPU_V7M3_PIPE] |579|  ; [ORIG 16-BIT INS]
    2839 0000000c 6800              LDR       A1, [A1, #0]          ; [DPU_V7M3_PIPE] |579|  ; [ORIG 16-BIT INS]
    2840 0000000e 1076F890          LDRB      A2, [A1, #118]        ; [DPU_V7M3_PIPE] |579|  ; [KEEP 32-BIT INS]
    2841 00000012 2304              MOVS      A4, #4                ; [DPU_V7M3_PIPE] |579|  ; [ORIG 16-BIT INS]
    2842 00000014 AA01              ADD       A3, SP, #4            ; [DPU_V7M3_PIPE] |579|  ; [ORIG 16-BIT INS]
    2843 00000016 2010              MOVS      A1, #16               ; [DPU_V7M3_PIPE] |579|  ; [ORIG 16-BIT INS]
    2844                    $C$DW$231       .dwtag  DW_TAG_TI_branch
    2845                            .dwattr $C$DW$231, DW_AT_low_pc(0x00)
    2846                            .dwattr $C$DW$231, DW_AT_name("sl_WlanPolicySet")
    2847                            .dwattr $C$DW$231, DW_AT_TI_call
    2848                    
    2849 00000018 FFFEF7FF!         BL        sl_WlanPolicySet      ; [DPU_V7M3_PIPE] |579|  ; [KEEP 32-BIT INS]
    2850                            ; CALL OCCURS {sl_WlanPolicySet }  ; [] |579| 
    2851 0000001c 9000              STR       A1, [SP, #0]          ; [DPU_V7M3_PIPE] |579|  ; [ORIG 16-BIT INS]
    2852                            .dwpsn  file "/vagrant/Q3_SDK_01/sdk_root/source/ti/drivers/net/wifi/slnetif/slwificonn.c",lin
    2853                    ;----------------------------------------------------------------------
    2854                    ; 580 | if(retVal >= 0 && bNotify)                                             
    2855                    ;----------------------------------------------------------------------
    2856 0000001e 9800              LDR       A1, [SP, #0]          ; [DPU_V7M3_PIPE] |580|  ; [ORIG 16-BIT INS]
    2857 00000020 2800              CMP       A1, #0                ; [DPU_V7M3_PIPE] |580|  ; [ORIG 16-BIT INS]
    2858 00000022 D406              BMI       ||$C$L34||            ; [DPU_V7M3_PIPE] |580|  ; [ORIG 16-BIT INS]
    2859                            ; BRANCHCC OCCURS {||$C$L34||}   ; [] |580| 
    2860                    ;* --------------------------------------------------------------------------*
TI ARM Assembler Unix v20.2.1 Wed Sep 16 12:09:22 2020

Copyright (c) 1996-2018 Texas Instruments Incorporated
slwificonn.asm                                                       PAGE   53

    2861 00000024 0008F89D          LDRB      A1, [SP, #8]          ; [DPU_V7M3_PIPE] |580|  ; [KEEP 32-BIT INS]
    2862 00000028 B118              CBZ       A1, ||$C$L34||        ; []  ; [ORIG 16-BIT INS]
    2863                            ; BRANCHCC OCCURS {||$C$L34||}   ; [] |580| 
    2864                    ;* --------------------------------------------------------------------------*
    2865                            .dwpsn  file "/vagrant/Q3_SDK_01/sdk_root/source/ti/drivers/net/wifi/slnetif/slwificonn.c",lin
    2866                    ;----------------------------------------------------------------------
    2867                    ; 582 | NotifyWifiApp(WifiConnEvent_POWERED_UP, 0);                            
    2868                    ;----------------------------------------------------------------------
    2869 0000002a 2000              MOVS      A1, #0                ; [DPU_V7M3_PIPE] |582|  ; [ORIG 16-BIT INS]
    2870 0000002c 2100              MOVS      A2, #0                ; [DPU_V7M3_PIPE] |582|  ; [ORIG 16-BIT INS]
    2871                    $C$DW$232       .dwtag  DW_TAG_TI_branch
    2872                            .dwattr $C$DW$232, DW_AT_low_pc(0x00)
    2873                            .dwattr $C$DW$232, DW_AT_name("NotifyWifiApp")
    2874                            .dwattr $C$DW$232, DW_AT_TI_call
    2875                    
    2876 0000002e FFFEF7FF!         BL        NotifyWifiApp         ; [DPU_V7M3_PIPE] |582|  ; [KEEP 32-BIT INS]
    2877                            ; CALL OCCURS {NotifyWifiApp }   ; [] |582| 
    2878                    ;* --------------------------------------------------------------------------*
    2879 00000032           ||$C$L34||:    
    2880                            .dwpsn  file "/vagrant/Q3_SDK_01/sdk_root/source/ti/drivers/net/wifi/slnetif/slwificonn.c",lin
    2881                    ;----------------------------------------------------------------------
    2882                    ; 584 | return retVal;                                                         
    2883                    ;----------------------------------------------------------------------
    2884 00000032 9800              LDR       A1, [SP, #0]          ; [DPU_V7M3_PIPE] |584|  ; [ORIG 16-BIT INS]
    2885                            .dwpsn  file "/vagrant/Q3_SDK_01/sdk_root/source/ti/drivers/net/wifi/slnetif/slwificonn.c",lin
    2886                    $C$DW$233       .dwtag  DW_TAG_TI_branch
    2887                            .dwattr $C$DW$233, DW_AT_low_pc(0x00)
    2888                            .dwattr $C$DW$233, DW_AT_TI_return
    2889                    
    2890 00000034 BD0E              POP       {A2, A3, A4, PC}      ; [DPU_V7M3_PIPE]  ; [ORIG 16-BIT INS]
