;******************************************************************************
;* TI ARM G3 C/C++ Codegen                                          Unix v20.2.1.LTS *
;* Date/Time created: Wed Sep 16 12:09:22 2020                                *
;******************************************************************************
	.compiler_opts --abi=eabi --arm_vmrs_si_workaround=off --code_state=16 --embedded_constants=on --endian=little --float_support=none --hll_source=on --object_format=elf --quiet --section_sizes=on --silicon_version=7M4 --symdebug:dwarf --symdebug:dwarf_version=3 --unaligned_access=on 
	.thumb

$C$DW$CU	.dwtag  DW_TAG_compile_unit
	.dwattr $C$DW$CU, DW_AT_name("/vagrant/Q3_SDK_01/sdk_root/source/ti/drivers/net/wifi/slnetif/slwificonn.c")
	.dwattr $C$DW$CU, DW_AT_producer("TI TI ARM G3 C/C++ Codegen Unix v20.2.1.LTS Copyright (c) 1996-2018 Texas Instruments Incorporated")
	.dwattr $C$DW$CU, DW_AT_TI_version(0x01)
	.dwattr $C$DW$CU, DW_AT_comp_dir("/vagrant/Q3_SDK_01/sdk_root/source/ti/drivers/net/wifi/slnetif/ccs/Release")
	.global	g_fNetIfCB
	.data
	.align	4
	.elfsym	g_fNetIfCB,SYM_SIZE(4)
g_fNetIfCB:
	.bits		0,32
			; g_fNetIfCB @ 0

$C$DW$1	.dwtag  DW_TAG_variable
	.dwattr $C$DW$1, DW_AT_name("g_fNetIfCB")
	.dwattr $C$DW$1, DW_AT_TI_symbol_name("g_fNetIfCB")
	.dwattr $C$DW$1, DW_AT_location[DW_OP_addr g_fNetIfCB]
	.dwattr $C$DW$1, DW_AT_type(*$C$DW$T$486)
	.dwattr $C$DW$1, DW_AT_external
	.dwattr $C$DW$1, DW_AT_decl_file("/vagrant/Q3_SDK_01/sdk_root/source/ti/drivers/net/wifi/slnetif/slwificonn.c")
	.dwattr $C$DW$1, DW_AT_decl_line(0xca)
	.dwattr $C$DW$1, DW_AT_decl_column(0x19)

	.global	g_ifId
	.data
	.align	2
	.elfsym	g_ifId,SYM_SIZE(2)
g_ifId:
	.bits		0,16
			; g_ifId @ 0

$C$DW$2	.dwtag  DW_TAG_variable
	.dwattr $C$DW$2, DW_AT_name("g_ifId")
	.dwattr $C$DW$2, DW_AT_TI_symbol_name("g_ifId")
	.dwattr $C$DW$2, DW_AT_location[DW_OP_addr g_ifId]
	.dwattr $C$DW$2, DW_AT_type(*$C$DW$T$67)
	.dwattr $C$DW$2, DW_AT_external
	.dwattr $C$DW$2, DW_AT_decl_file("/vagrant/Q3_SDK_01/sdk_root/source/ti/drivers/net/wifi/slnetif/slwificonn.c")
	.dwattr $C$DW$2, DW_AT_decl_line(0xcb)
	.dwattr $C$DW$2, DW_AT_decl_column(0x19)

	.global	g_csLock
	.common	g_csLock,28,4
$C$DW$3	.dwtag  DW_TAG_variable
	.dwattr $C$DW$3, DW_AT_name("g_csLock")
	.dwattr $C$DW$3, DW_AT_TI_symbol_name("g_csLock")
	.dwattr $C$DW$3, DW_AT_location[DW_OP_addr g_csLock]
	.dwattr $C$DW$3, DW_AT_type(*$C$DW$T$782)
	.dwattr $C$DW$3, DW_AT_external
	.dwattr $C$DW$3, DW_AT_decl_file("/vagrant/Q3_SDK_01/sdk_root/source/ti/drivers/net/wifi/slnetif/slwificonn.c")
	.dwattr $C$DW$3, DW_AT_decl_line(0xce)
	.dwattr $C$DW$3, DW_AT_decl_column(0x19)

	.data
	.align	4
	.elfsym	g_ctx,SYM_SIZE(4)
g_ctx:
	.bits		0,32
			; g_ctx @ 0

$C$DW$4	.dwtag  DW_TAG_variable
	.dwattr $C$DW$4, DW_AT_name("g_ctx")
	.dwattr $C$DW$4, DW_AT_TI_symbol_name("g_ctx")
	.dwattr $C$DW$4, DW_AT_type(*$C$DW$T$681)
	.dwattr $C$DW$4, DW_AT_location[DW_OP_addr g_ctx]
	.dwattr $C$DW$4, DW_AT_decl_file("/vagrant/Q3_SDK_01/sdk_root/source/ti/drivers/net/wifi/slnetif/slwificonn.c")
	.dwattr $C$DW$4, DW_AT_decl_line(0x103)
	.dwattr $C$DW$4, DW_AT_decl_column(0x16)

	.sect	".data:g_settings", RW
	.align	4
	.elfsym	g_settings,SYM_SIZE(28)
g_settings:
	.bits		0x3,16
			; g_settings.connectTimeout @ 0
	.bits		0x6,16
			; g_settings.ipTimeout @ 16
	.bits		0x3c,16
			; g_settings.reconnectTimeout @ 32
	.bits		0x12c,16
			; g_settings.provisioningTimeout @ 48
	.bits		0x14,16
			; g_settings.idleMinInterval @ 64
	.bits		0x78,16
			; g_settings.idleMaxInterval @ 80
	.bits		0,32
			; g_settings.provisioningAP_ssid @ 96
	.bits		0,8
			; g_settings.provisioningAP_secType @ 128
	.bits		0,24

	.bits		0,32
			; g_settings.provisioningAP_password @ 160
	.bits		0,32
			; g_settings.provisioningSC_key @ 192

$C$DW$5	.dwtag  DW_TAG_variable
	.dwattr $C$DW$5, DW_AT_name("g_settings")
	.dwattr $C$DW$5, DW_AT_TI_symbol_name("g_settings")
	.dwattr $C$DW$5, DW_AT_type(*$C$DW$T$678)
	.dwattr $C$DW$5, DW_AT_location[DW_OP_addr g_settings]
	.dwattr $C$DW$5, DW_AT_decl_file("/vagrant/Q3_SDK_01/sdk_root/source/ti/drivers/net/wifi/slnetif/slwificonn.c")
	.dwattr $C$DW$5, DW_AT_decl_line(0x106)
	.dwattr $C$DW$5, DW_AT_decl_column(0x1b)

	.sect	".data:g_fWifiSM", RW
	.align	4
	.elfsym	g_fWifiSM,SYM_SIZE(32)
g_fWifiSM:
	.bits		0,32
			; g_fWifiSM[0] @ 0
	.space	28

$C$DW$6	.dwtag  DW_TAG_variable
	.dwattr $C$DW$6, DW_AT_name("g_fWifiSM")
	.dwattr $C$DW$6, DW_AT_TI_symbol_name("g_fWifiSM")
	.dwattr $C$DW$6, DW_AT_type(*$C$DW$T$971)
	.dwattr $C$DW$6, DW_AT_location[DW_OP_addr g_fWifiSM]
	.dwattr $C$DW$6, DW_AT_decl_file("/vagrant/Q3_SDK_01/sdk_root/source/ti/drivers/net/wifi/slnetif/slwificonn.c")
	.dwattr $C$DW$6, DW_AT_decl_line(0x10e)
	.dwattr $C$DW$6, DW_AT_decl_column(0x14)

	.data
	.align	4
	.elfsym	g_fEnterPROVISIONING,SYM_SIZE(4)
g_fEnterPROVISIONING:
	.bits		0,32
			; g_fEnterPROVISIONING @ 0

$C$DW$7	.dwtag  DW_TAG_variable
	.dwattr $C$DW$7, DW_AT_name("g_fEnterPROVISIONING")
	.dwattr $C$DW$7, DW_AT_TI_symbol_name("g_fEnterPROVISIONING")
	.dwattr $C$DW$7, DW_AT_type(*$C$DW$T$965)
	.dwattr $C$DW$7, DW_AT_location[DW_OP_addr g_fEnterPROVISIONING]
	.dwattr $C$DW$7, DW_AT_decl_file("/vagrant/Q3_SDK_01/sdk_root/source/ti/drivers/net/wifi/slnetif/slwificonn.c")
	.dwattr $C$DW$7, DW_AT_decl_line(0x111)
	.dwattr $C$DW$7, DW_AT_decl_column(0x0e)

	.data
	.align	4
	.elfsym	g_fProvStatusHandler,SYM_SIZE(4)
g_fProvStatusHandler:
	.bits		0,32
			; g_fProvStatusHandler @ 0

$C$DW$8	.dwtag  DW_TAG_variable
	.dwattr $C$DW$8, DW_AT_name("g_fProvStatusHandler")
	.dwattr $C$DW$8, DW_AT_TI_symbol_name("g_fProvStatusHandler")
	.dwattr $C$DW$8, DW_AT_type(*$C$DW$T$846)
	.dwattr $C$DW$8, DW_AT_location[DW_OP_addr g_fProvStatusHandler]
	.dwattr $C$DW$8, DW_AT_decl_file("/vagrant/Q3_SDK_01/sdk_root/source/ti/drivers/net/wifi/slnetif/slwificonn.c")
	.dwattr $C$DW$8, DW_AT_decl_line(0x112)
	.dwattr $C$DW$8, DW_AT_decl_column(0x0f)

	.data
	.align	4
	.elfsym	g_fDebugPrint,SYM_SIZE(4)
g_fDebugPrint:
	.bits	DummyPrintf,32		; g_fDebugPrint @ 0

$C$DW$9	.dwtag  DW_TAG_variable
	.dwattr $C$DW$9, DW_AT_name("g_fDebugPrint")
	.dwattr $C$DW$9, DW_AT_TI_symbol_name("g_fDebugPrint")
	.dwattr $C$DW$9, DW_AT_type(*$C$DW$T$838)
	.dwattr $C$DW$9, DW_AT_location[DW_OP_addr g_fDebugPrint]
	.dwattr $C$DW$9, DW_AT_decl_file("/vagrant/Q3_SDK_01/sdk_root/source/ti/drivers/net/wifi/slnetif/slwificonn.c")
	.dwattr $C$DW$9, DW_AT_decl_line(0x116)
	.dwattr $C$DW$9, DW_AT_decl_column(0x1b)

SlEventHandlers:	.usect	".bss:SlEventHandlers",24,4
$C$DW$10	.dwtag  DW_TAG_variable
	.dwattr $C$DW$10, DW_AT_name("SlEventHandlers")
	.dwattr $C$DW$10, DW_AT_TI_symbol_name("SlEventHandlers")
	.dwattr $C$DW$10, DW_AT_type(*$C$DW$T$795)
	.dwattr $C$DW$10, DW_AT_location[DW_OP_addr SlEventHandlers]
	.dwattr $C$DW$10, DW_AT_decl_file("/vagrant/Q3_SDK_01/sdk_root/source/ti/drivers/net/wifi/slnetif/slwificonn.c")
	.dwattr $C$DW$10, DW_AT_decl_line(0x117)
	.dwattr $C$DW$10, DW_AT_decl_column(0x1b)

	.sect	".data:strState", RW
	.align	4
	.elfsym	strState,SYM_SIZE(32)
strState:
	.bits	$C$SL1,32		; strState[0] @ 0
	.bits	$C$SL2,32		; strState[1] @ 32
	.bits	$C$SL3,32		; strState[2] @ 64
	.bits	$C$SL4,32		; strState[3] @ 96
	.bits	$C$SL5,32		; strState[4] @ 128
	.bits	$C$SL6,32		; strState[5] @ 160
	.bits	$C$SL7,32		; strState[6] @ 192
	.bits	$C$SL8,32		; strState[7] @ 224

$C$DW$11	.dwtag  DW_TAG_variable
	.dwattr $C$DW$11, DW_AT_name("strState")
	.dwattr $C$DW$11, DW_AT_TI_symbol_name("strState")
	.dwattr $C$DW$11, DW_AT_type(*$C$DW$T$1134)
	.dwattr $C$DW$11, DW_AT_location[DW_OP_addr strState]
	.dwattr $C$DW$11, DW_AT_decl_file("/vagrant/Q3_SDK_01/sdk_root/source/ti/drivers/net/wifi/slnetif/slwificonn.c")
	.dwattr $C$DW$11, DW_AT_decl_line(0x11a)
	.dwattr $C$DW$11, DW_AT_decl_column(0x14)

	.sect	".data:strEvent", RW
	.align	4
	.elfsym	strEvent,SYM_SIZE(64)
strEvent:
	.bits	$C$SL9,32		; strEvent[0] @ 0
	.bits	$C$SL10,32		; strEvent[1] @ 32
	.bits	$C$SL5,32		; strEvent[2] @ 64
	.bits	$C$SL11,32		; strEvent[3] @ 96
	.bits	$C$SL12,32		; strEvent[4] @ 128
	.bits	$C$SL13,32		; strEvent[5] @ 160
	.bits	$C$SL14,32		; strEvent[6] @ 192
	.bits	$C$SL15,32		; strEvent[7] @ 224
	.bits	$C$SL16,32		; strEvent[8] @ 256
	.bits	$C$SL17,32		; strEvent[9] @ 288
	.bits	$C$SL18,32		; strEvent[10] @ 320
	.bits	$C$SL19,32		; strEvent[11] @ 352
	.bits	$C$SL20,32		; strEvent[12] @ 384
	.bits	$C$SL21,32		; strEvent[13] @ 416
	.bits	$C$SL22,32		; strEvent[14] @ 448
	.bits	$C$SL23,32		; strEvent[15] @ 480

$C$DW$12	.dwtag  DW_TAG_variable
	.dwattr $C$DW$12, DW_AT_name("strEvent")
	.dwattr $C$DW$12, DW_AT_TI_symbol_name("strEvent")
	.dwattr $C$DW$12, DW_AT_type(*$C$DW$T$1135)
	.dwattr $C$DW$12, DW_AT_location[DW_OP_addr strEvent]
	.dwattr $C$DW$12, DW_AT_decl_file("/vagrant/Q3_SDK_01/sdk_root/source/ti/drivers/net/wifi/slnetif/slwificonn.c")
	.dwattr $C$DW$12, DW_AT_decl_line(0x126)
	.dwattr $C$DW$12, DW_AT_decl_column(0x14)


$C$DW$13	.dwtag  DW_TAG_subprogram
	.dwattr $C$DW$13, DW_AT_name("mq_send")
	.dwattr $C$DW$13, DW_AT_TI_symbol_name("mq_send")
	.dwattr $C$DW$13, DW_AT_type(*$C$DW$T$10)
	.dwattr $C$DW$13, DW_AT_declaration
	.dwattr $C$DW$13, DW_AT_external
	.dwattr $C$DW$13, DW_AT_decl_file("/vagrant/Q3_SDK_01/sdk_root/source/ti/posix/ccs/mqueue.h")
	.dwattr $C$DW$13, DW_AT_decl_line(0x66)
	.dwattr $C$DW$13, DW_AT_decl_column(0x0c)
$C$DW$14	.dwtag  DW_TAG_formal_parameter
	.dwattr $C$DW$14, DW_AT_type(*$C$DW$T$81)

$C$DW$15	.dwtag  DW_TAG_formal_parameter
	.dwattr $C$DW$15, DW_AT_type(*$C$DW$T$481)

$C$DW$16	.dwtag  DW_TAG_formal_parameter
	.dwattr $C$DW$16, DW_AT_type(*$C$DW$T$281)

$C$DW$17	.dwtag  DW_TAG_formal_parameter
	.dwattr $C$DW$17, DW_AT_type(*$C$DW$T$11)

	.dwendtag $C$DW$13


$C$DW$18	.dwtag  DW_TAG_subprogram
	.dwattr $C$DW$18, DW_AT_name("mq_getattr")
	.dwattr $C$DW$18, DW_AT_TI_symbol_name("mq_getattr")
	.dwattr $C$DW$18, DW_AT_type(*$C$DW$T$10)
	.dwattr $C$DW$18, DW_AT_declaration
	.dwattr $C$DW$18, DW_AT_external
	.dwattr $C$DW$18, DW_AT_decl_file("/vagrant/Q3_SDK_01/sdk_root/source/ti/posix/ccs/mqueue.h")
	.dwattr $C$DW$18, DW_AT_decl_line(0x62)
	.dwattr $C$DW$18, DW_AT_decl_column(0x0c)
$C$DW$19	.dwtag  DW_TAG_formal_parameter
	.dwattr $C$DW$19, DW_AT_type(*$C$DW$T$81)

$C$DW$20	.dwtag  DW_TAG_formal_parameter
	.dwattr $C$DW$20, DW_AT_type(*$C$DW$T$953)

	.dwendtag $C$DW$18


$C$DW$21	.dwtag  DW_TAG_subprogram
	.dwattr $C$DW$21, DW_AT_name("mq_receive")
	.dwattr $C$DW$21, DW_AT_TI_symbol_name("mq_receive")
	.dwattr $C$DW$21, DW_AT_type(*$C$DW$T$1024)
	.dwattr $C$DW$21, DW_AT_declaration
	.dwattr $C$DW$21, DW_AT_external
	.dwattr $C$DW$21, DW_AT_decl_file("/vagrant/Q3_SDK_01/sdk_root/source/ti/posix/ccs/mqueue.h")
	.dwattr $C$DW$21, DW_AT_decl_line(0x64)
	.dwattr $C$DW$21, DW_AT_decl_column(0x10)
$C$DW$22	.dwtag  DW_TAG_formal_parameter
	.dwattr $C$DW$22, DW_AT_type(*$C$DW$T$81)

$C$DW$23	.dwtag  DW_TAG_formal_parameter
	.dwattr $C$DW$23, DW_AT_type(*$C$DW$T$69)

$C$DW$24	.dwtag  DW_TAG_formal_parameter
	.dwattr $C$DW$24, DW_AT_type(*$C$DW$T$281)

$C$DW$25	.dwtag  DW_TAG_formal_parameter
	.dwattr $C$DW$25, DW_AT_type(*$C$DW$T$1025)

	.dwendtag $C$DW$21


$C$DW$26	.dwtag  DW_TAG_subprogram
	.dwattr $C$DW$26, DW_AT_name("sl_WlanDisconnect")
	.dwattr $C$DW$26, DW_AT_TI_symbol_name("sl_WlanDisconnect")
	.dwattr $C$DW$26, DW_AT_type(*$C$DW$T$8)
	.dwattr $C$DW$26, DW_AT_declaration
	.dwattr $C$DW$26, DW_AT_external
	.dwattr $C$DW$26, DW_AT_decl_file("/vagrant/Q3_SDK_01/sdk_root/source/ti/drivers/net/wifi/wlan.h")
	.dwattr $C$DW$26, DW_AT_decl_line(0x51f)
	.dwattr $C$DW$26, DW_AT_decl_column(0x06)
	.dwendtag $C$DW$26


$C$DW$27	.dwtag  DW_TAG_subprogram
	.dwattr $C$DW$27, DW_AT_name("sl_WlanConnect")
	.dwattr $C$DW$27, DW_AT_TI_symbol_name("sl_WlanConnect")
	.dwattr $C$DW$27, DW_AT_type(*$C$DW$T$8)
	.dwattr $C$DW$27, DW_AT_declaration
	.dwattr $C$DW$27, DW_AT_external
	.dwattr $C$DW$27, DW_AT_decl_file("/vagrant/Q3_SDK_01/sdk_root/source/ti/drivers/net/wifi/wlan.h")
	.dwattr $C$DW$27, DW_AT_decl_line(0x510)
	.dwattr $C$DW$27, DW_AT_decl_column(0x06)
$C$DW$28	.dwtag  DW_TAG_formal_parameter
	.dwattr $C$DW$28, DW_AT_type(*$C$DW$T$871)

$C$DW$29	.dwtag  DW_TAG_formal_parameter
	.dwattr $C$DW$29, DW_AT_type(*$C$DW$T$888)

$C$DW$30	.dwtag  DW_TAG_formal_parameter
	.dwattr $C$DW$30, DW_AT_type(*$C$DW$T$879)

$C$DW$31	.dwtag  DW_TAG_formal_parameter
	.dwattr $C$DW$31, DW_AT_type(*$C$DW$T$668)

$C$DW$32	.dwtag  DW_TAG_formal_parameter
	.dwattr $C$DW$32, DW_AT_type(*$C$DW$T$671)

	.dwendtag $C$DW$27


$C$DW$33	.dwtag  DW_TAG_subprogram
	.dwattr $C$DW$33, DW_AT_name("sl_WlanProfileAdd")
	.dwattr $C$DW$33, DW_AT_TI_symbol_name("sl_WlanProfileAdd")
	.dwattr $C$DW$33, DW_AT_type(*$C$DW$T$8)
	.dwattr $C$DW$33, DW_AT_declaration
	.dwattr $C$DW$33, DW_AT_external
	.dwattr $C$DW$33, DW_AT_decl_file("/vagrant/Q3_SDK_01/sdk_root/source/ti/drivers/net/wifi/wlan.h")
	.dwattr $C$DW$33, DW_AT_decl_line(0x553)
	.dwattr $C$DW$33, DW_AT_decl_column(0x06)
$C$DW$34	.dwtag  DW_TAG_formal_parameter
	.dwattr $C$DW$34, DW_AT_type(*$C$DW$T$871)

$C$DW$35	.dwtag  DW_TAG_formal_parameter
	.dwattr $C$DW$35, DW_AT_type(*$C$DW$T$888)

$C$DW$36	.dwtag  DW_TAG_formal_parameter
	.dwattr $C$DW$36, DW_AT_type(*$C$DW$T$879)

$C$DW$37	.dwtag  DW_TAG_formal_parameter
	.dwattr $C$DW$37, DW_AT_type(*$C$DW$T$668)

$C$DW$38	.dwtag  DW_TAG_formal_parameter
	.dwattr $C$DW$38, DW_AT_type(*$C$DW$T$671)

$C$DW$39	.dwtag  DW_TAG_formal_parameter
	.dwattr $C$DW$39, DW_AT_type(*$C$DW$T$279)

$C$DW$40	.dwtag  DW_TAG_formal_parameter
	.dwattr $C$DW$40, DW_AT_type(*$C$DW$T$279)

	.dwendtag $C$DW$33


$C$DW$41	.dwtag  DW_TAG_subprogram
	.dwattr $C$DW$41, DW_AT_name("free")
	.dwattr $C$DW$41, DW_AT_TI_symbol_name("free")
	.dwattr $C$DW$41, DW_AT_declaration
	.dwattr $C$DW$41, DW_AT_external
	.dwattr $C$DW$41, DW_AT_decl_file("/opt/ti/ccs-latest/ccs/tools/compiler/ti-cgt-arm_20.2.1.LTS/include/stdlib.h")
	.dwattr $C$DW$41, DW_AT_decl_line(0xb8)
	.dwattr $C$DW$41, DW_AT_decl_column(0x19)
$C$DW$42	.dwtag  DW_TAG_formal_parameter
	.dwattr $C$DW$42, DW_AT_type(*$C$DW$T$3)

	.dwendtag $C$DW$41


$C$DW$43	.dwtag  DW_TAG_subprogram
	.dwattr $C$DW$43, DW_AT_name("sl_Stop")
	.dwattr $C$DW$43, DW_AT_TI_symbol_name("sl_Stop")
	.dwattr $C$DW$43, DW_AT_type(*$C$DW$T$8)
	.dwattr $C$DW$43, DW_AT_declaration
	.dwattr $C$DW$43, DW_AT_external
	.dwattr $C$DW$43, DW_AT_decl_file("/vagrant/Q3_SDK_01/sdk_root/source/ti/drivers/net/wifi/device.h")
	.dwattr $C$DW$43, DW_AT_decl_line(0x1cd)
	.dwattr $C$DW$43, DW_AT_decl_column(0x06)
$C$DW$44	.dwtag  DW_TAG_formal_parameter
	.dwattr $C$DW$44, DW_AT_type(*$C$DW$T$278)

	.dwendtag $C$DW$43


$C$DW$45	.dwtag  DW_TAG_subprogram
	.dwattr $C$DW$45, DW_AT_name("sl_Start")
	.dwattr $C$DW$45, DW_AT_TI_symbol_name("sl_Start")
	.dwattr $C$DW$45, DW_AT_type(*$C$DW$T$8)
	.dwattr $C$DW$45, DW_AT_declaration
	.dwattr $C$DW$45, DW_AT_external
	.dwattr $C$DW$45, DW_AT_decl_file("/vagrant/Q3_SDK_01/sdk_root/source/ti/drivers/net/wifi/device.h")
	.dwattr $C$DW$45, DW_AT_decl_line(0x1ad)
	.dwattr $C$DW$45, DW_AT_decl_column(0x06)
$C$DW$46	.dwtag  DW_TAG_formal_parameter
	.dwattr $C$DW$46, DW_AT_type(*$C$DW$T$402)

$C$DW$47	.dwtag  DW_TAG_formal_parameter
	.dwattr $C$DW$47, DW_AT_type(*$C$DW$T$24)

$C$DW$48	.dwtag  DW_TAG_formal_parameter
	.dwattr $C$DW$48, DW_AT_type(*$C$DW$T$835)

	.dwendtag $C$DW$45


$C$DW$49	.dwtag  DW_TAG_subprogram
	.dwattr $C$DW$49, DW_AT_name("sl_WlanSetMode")
	.dwattr $C$DW$49, DW_AT_TI_symbol_name("sl_WlanSetMode")
	.dwattr $C$DW$49, DW_AT_type(*$C$DW$T$8)
	.dwattr $C$DW$49, DW_AT_declaration
	.dwattr $C$DW$49, DW_AT_external
	.dwattr $C$DW$49, DW_AT_decl_file("/vagrant/Q3_SDK_01/sdk_root/source/ti/drivers/net/wifi/wlan.h")
	.dwattr $C$DW$49, DW_AT_decl_line(0x7bd)
	.dwattr $C$DW$49, DW_AT_decl_column(0x06)
$C$DW$50	.dwtag  DW_TAG_formal_parameter
	.dwattr $C$DW$50, DW_AT_type(*$C$DW$T$277)

	.dwendtag $C$DW$49


$C$DW$51	.dwtag  DW_TAG_subprogram
	.dwattr $C$DW$51, DW_AT_name("sl_UnregisterLibsEventHandler")
	.dwattr $C$DW$51, DW_AT_TI_symbol_name("sl_UnregisterLibsEventHandler")
	.dwattr $C$DW$51, DW_AT_type(*$C$DW$T$12)
	.dwattr $C$DW$51, DW_AT_declaration
	.dwattr $C$DW$51, DW_AT_external
	.dwattr $C$DW$51, DW_AT_decl_file("/vagrant/Q3_SDK_01/sdk_root/source/ti/drivers/net/wifi/eventreg.h")
	.dwattr $C$DW$51, DW_AT_decl_line(0x7d)
	.dwattr $C$DW$51, DW_AT_decl_column(0x06)
$C$DW$52	.dwtag  DW_TAG_formal_parameter
	.dwattr $C$DW$52, DW_AT_type(*$C$DW$T$583)

$C$DW$53	.dwtag  DW_TAG_formal_parameter
	.dwattr $C$DW$53, DW_AT_type(*$C$DW$T$794)

	.dwendtag $C$DW$51


$C$DW$54	.dwtag  DW_TAG_subprogram
	.dwattr $C$DW$54, DW_AT_name("mq_close")
	.dwattr $C$DW$54, DW_AT_TI_symbol_name("mq_close")
	.dwattr $C$DW$54, DW_AT_type(*$C$DW$T$10)
	.dwattr $C$DW$54, DW_AT_declaration
	.dwattr $C$DW$54, DW_AT_external
	.dwattr $C$DW$54, DW_AT_decl_file("/vagrant/Q3_SDK_01/sdk_root/source/ti/posix/ccs/mqueue.h")
	.dwattr $C$DW$54, DW_AT_decl_line(0x61)
	.dwattr $C$DW$54, DW_AT_decl_column(0x0c)
$C$DW$55	.dwtag  DW_TAG_formal_parameter
	.dwattr $C$DW$55, DW_AT_type(*$C$DW$T$81)

	.dwendtag $C$DW$54


$C$DW$56	.dwtag  DW_TAG_subprogram
	.dwattr $C$DW$56, DW_AT_name("timer_delete")
	.dwattr $C$DW$56, DW_AT_TI_symbol_name("timer_delete")
	.dwattr $C$DW$56, DW_AT_type(*$C$DW$T$10)
	.dwattr $C$DW$56, DW_AT_declaration
	.dwattr $C$DW$56, DW_AT_external
	.dwattr $C$DW$56, DW_AT_decl_file("/vagrant/Q3_SDK_01/sdk_root/source/ti/posix/ccs/time.h")
	.dwattr $C$DW$56, DW_AT_decl_line(0x8d)
	.dwattr $C$DW$56, DW_AT_decl_column(0x0c)
$C$DW$57	.dwtag  DW_TAG_formal_parameter
	.dwattr $C$DW$57, DW_AT_type(*$C$DW$T$84)

	.dwendtag $C$DW$56


$C$DW$58	.dwtag  DW_TAG_subprogram
	.dwattr $C$DW$58, DW_AT_name("sem_post")
	.dwattr $C$DW$58, DW_AT_TI_symbol_name("sem_post")
	.dwattr $C$DW$58, DW_AT_type(*$C$DW$T$10)
	.dwattr $C$DW$58, DW_AT_declaration
	.dwattr $C$DW$58, DW_AT_external
	.dwattr $C$DW$58, DW_AT_decl_file("/vagrant/Q3_SDK_01/sdk_root/source/ti/posix/ccs/semaphore.h")
	.dwattr $C$DW$58, DW_AT_decl_line(0x4f)
	.dwattr $C$DW$58, DW_AT_decl_column(0x08)
$C$DW$59	.dwtag  DW_TAG_formal_parameter
	.dwattr $C$DW$59, DW_AT_type(*$C$DW$T$783)

	.dwendtag $C$DW$58


$C$DW$60	.dwtag  DW_TAG_subprogram
	.dwattr $C$DW$60, DW_AT_name("sem_destroy")
	.dwattr $C$DW$60, DW_AT_TI_symbol_name("sem_destroy")
	.dwattr $C$DW$60, DW_AT_type(*$C$DW$T$10)
	.dwattr $C$DW$60, DW_AT_declaration
	.dwattr $C$DW$60, DW_AT_external
	.dwattr $C$DW$60, DW_AT_decl_file("/vagrant/Q3_SDK_01/sdk_root/source/ti/posix/ccs/semaphore.h")
	.dwattr $C$DW$60, DW_AT_decl_line(0x4c)
	.dwattr $C$DW$60, DW_AT_decl_column(0x08)
$C$DW$61	.dwtag  DW_TAG_formal_parameter
	.dwattr $C$DW$61, DW_AT_type(*$C$DW$T$783)

	.dwendtag $C$DW$60


$C$DW$62	.dwtag  DW_TAG_subprogram
	.dwattr $C$DW$62, DW_AT_name("sl_WlanPolicyGet")
	.dwattr $C$DW$62, DW_AT_TI_symbol_name("sl_WlanPolicyGet")
	.dwattr $C$DW$62, DW_AT_type(*$C$DW$T$8)
	.dwattr $C$DW$62, DW_AT_declaration
	.dwattr $C$DW$62, DW_AT_external
	.dwattr $C$DW$62, DW_AT_decl_file("/vagrant/Q3_SDK_01/sdk_root/source/ti/drivers/net/wifi/wlan.h")
	.dwattr $C$DW$62, DW_AT_decl_line(0x6b9)
	.dwattr $C$DW$62, DW_AT_decl_column(0x06)
$C$DW$63	.dwtag  DW_TAG_formal_parameter
	.dwattr $C$DW$63, DW_AT_type(*$C$DW$T$277)

$C$DW$64	.dwtag  DW_TAG_formal_parameter
	.dwattr $C$DW$64, DW_AT_type(*$C$DW$T$165)

$C$DW$65	.dwtag  DW_TAG_formal_parameter
	.dwattr $C$DW$65, DW_AT_type(*$C$DW$T$165)

$C$DW$66	.dwtag  DW_TAG_formal_parameter
	.dwattr $C$DW$66, DW_AT_type(*$C$DW$T$165)

	.dwendtag $C$DW$62


$C$DW$67	.dwtag  DW_TAG_subprogram
	.dwattr $C$DW$67, DW_AT_name("sl_WlanPolicySet")
	.dwattr $C$DW$67, DW_AT_TI_symbol_name("sl_WlanPolicySet")
	.dwattr $C$DW$67, DW_AT_type(*$C$DW$T$8)
	.dwattr $C$DW$67, DW_AT_declaration
	.dwattr $C$DW$67, DW_AT_external
	.dwattr $C$DW$67, DW_AT_decl_file("/vagrant/Q3_SDK_01/sdk_root/source/ti/drivers/net/wifi/wlan.h")
	.dwattr $C$DW$67, DW_AT_decl_line(0x65e)
	.dwattr $C$DW$67, DW_AT_decl_column(0x06)
$C$DW$68	.dwtag  DW_TAG_formal_parameter
	.dwattr $C$DW$68, DW_AT_type(*$C$DW$T$277)

$C$DW$69	.dwtag  DW_TAG_formal_parameter
	.dwattr $C$DW$69, DW_AT_type(*$C$DW$T$277)

$C$DW$70	.dwtag  DW_TAG_formal_parameter
	.dwattr $C$DW$70, DW_AT_type(*$C$DW$T$165)

$C$DW$71	.dwtag  DW_TAG_formal_parameter
	.dwattr $C$DW$71, DW_AT_type(*$C$DW$T$277)

	.dwendtag $C$DW$67


$C$DW$72	.dwtag  DW_TAG_subprogram
	.dwattr $C$DW$72, DW_AT_name("sem_wait")
	.dwattr $C$DW$72, DW_AT_TI_symbol_name("sem_wait")
	.dwattr $C$DW$72, DW_AT_type(*$C$DW$T$10)
	.dwattr $C$DW$72, DW_AT_declaration
	.dwattr $C$DW$72, DW_AT_external
	.dwattr $C$DW$72, DW_AT_decl_file("/vagrant/Q3_SDK_01/sdk_root/source/ti/posix/ccs/semaphore.h")
	.dwattr $C$DW$72, DW_AT_decl_line(0x52)
	.dwattr $C$DW$72, DW_AT_decl_column(0x08)
$C$DW$73	.dwtag  DW_TAG_formal_parameter
	.dwattr $C$DW$73, DW_AT_type(*$C$DW$T$783)

	.dwendtag $C$DW$72


$C$DW$74	.dwtag  DW_TAG_subprogram
	.dwattr $C$DW$74, DW_AT_name("strlen")
	.dwattr $C$DW$74, DW_AT_TI_symbol_name("strlen")
	.dwattr $C$DW$74, DW_AT_type(*$C$DW$T$281)
	.dwattr $C$DW$74, DW_AT_declaration
	.dwattr $C$DW$74, DW_AT_external
	.dwattr $C$DW$74, DW_AT_decl_file("/opt/ti/ccs-latest/ccs/tools/compiler/ti-cgt-arm_20.2.1.LTS/include/string.h")
	.dwattr $C$DW$74, DW_AT_decl_line(0x56)
	.dwattr $C$DW$74, DW_AT_decl_column(0x14)
$C$DW$75	.dwtag  DW_TAG_formal_parameter
	.dwattr $C$DW$75, DW_AT_type(*$C$DW$T$481)

	.dwendtag $C$DW$74


$C$DW$76	.dwtag  DW_TAG_subprogram
	.dwattr $C$DW$76, DW_AT_name("sl_WlanSet")
	.dwattr $C$DW$76, DW_AT_TI_symbol_name("sl_WlanSet")
	.dwattr $C$DW$76, DW_AT_type(*$C$DW$T$8)
	.dwattr $C$DW$76, DW_AT_declaration
	.dwattr $C$DW$76, DW_AT_external
	.dwattr $C$DW$76, DW_AT_decl_file("/vagrant/Q3_SDK_01/sdk_root/source/ti/drivers/net/wifi/wlan.h")
	.dwattr $C$DW$76, DW_AT_decl_line(0x974)
	.dwattr $C$DW$76, DW_AT_decl_column(0x06)
$C$DW$77	.dwtag  DW_TAG_formal_parameter
	.dwattr $C$DW$77, DW_AT_type(*$C$DW$T$278)

$C$DW$78	.dwtag  DW_TAG_formal_parameter
	.dwattr $C$DW$78, DW_AT_type(*$C$DW$T$278)

$C$DW$79	.dwtag  DW_TAG_formal_parameter
	.dwattr $C$DW$79, DW_AT_type(*$C$DW$T$278)

$C$DW$80	.dwtag  DW_TAG_formal_parameter
	.dwattr $C$DW$80, DW_AT_type(*$C$DW$T$879)

	.dwendtag $C$DW$76


$C$DW$81	.dwtag  DW_TAG_subprogram
	.dwattr $C$DW$81, DW_AT_name("sl_NetCfgGet")
	.dwattr $C$DW$81, DW_AT_TI_symbol_name("sl_NetCfgGet")
	.dwattr $C$DW$81, DW_AT_type(*$C$DW$T$8)
	.dwattr $C$DW$81, DW_AT_declaration
	.dwattr $C$DW$81, DW_AT_external
	.dwattr $C$DW$81, DW_AT_decl_file("/vagrant/Q3_SDK_01/sdk_root/source/ti/drivers/net/wifi/netcfg.h")
	.dwattr $C$DW$81, DW_AT_decl_line(0x2b2)
	.dwattr $C$DW$81, DW_AT_decl_column(0x06)
$C$DW$82	.dwtag  DW_TAG_formal_parameter
	.dwattr $C$DW$82, DW_AT_type(*$C$DW$T$278)

$C$DW$83	.dwtag  DW_TAG_formal_parameter
	.dwattr $C$DW$83, DW_AT_type(*$C$DW$T$265)

$C$DW$84	.dwtag  DW_TAG_formal_parameter
	.dwattr $C$DW$84, DW_AT_type(*$C$DW$T$265)

$C$DW$85	.dwtag  DW_TAG_formal_parameter
	.dwattr $C$DW$85, DW_AT_type(*$C$DW$T$165)

	.dwendtag $C$DW$81


$C$DW$86	.dwtag  DW_TAG_subprogram
	.dwattr $C$DW$86, DW_AT_name("sl_WlanProvisioning")
	.dwattr $C$DW$86, DW_AT_TI_symbol_name("sl_WlanProvisioning")
	.dwattr $C$DW$86, DW_AT_type(*$C$DW$T$8)
	.dwattr $C$DW$86, DW_AT_declaration
	.dwattr $C$DW$86, DW_AT_external
	.dwattr $C$DW$86, DW_AT_decl_file("/vagrant/Q3_SDK_01/sdk_root/source/ti/drivers/net/wifi/wlan.h")
	.dwattr $C$DW$86, DW_AT_decl_line(0x79d)
	.dwattr $C$DW$86, DW_AT_decl_column(0x06)
$C$DW$87	.dwtag  DW_TAG_formal_parameter
	.dwattr $C$DW$87, DW_AT_type(*$C$DW$T$6)

$C$DW$88	.dwtag  DW_TAG_formal_parameter
	.dwattr $C$DW$88, DW_AT_type(*$C$DW$T$6)

$C$DW$89	.dwtag  DW_TAG_formal_parameter
	.dwattr $C$DW$89, DW_AT_type(*$C$DW$T$9)

$C$DW$90	.dwtag  DW_TAG_formal_parameter
	.dwattr $C$DW$90, DW_AT_type(*$C$DW$T$69)

$C$DW$91	.dwtag  DW_TAG_formal_parameter
	.dwattr $C$DW$91, DW_AT_type(*$C$DW$T$13)

	.dwendtag $C$DW$86


$C$DW$92	.dwtag  DW_TAG_subprogram
	.dwattr $C$DW$92, DW_AT_name("sl_WlanProfileDel")
	.dwattr $C$DW$92, DW_AT_TI_symbol_name("sl_WlanProfileDel")
	.dwattr $C$DW$92, DW_AT_type(*$C$DW$T$8)
	.dwattr $C$DW$92, DW_AT_declaration
	.dwattr $C$DW$92, DW_AT_external
	.dwattr $C$DW$92, DW_AT_decl_file("/vagrant/Q3_SDK_01/sdk_root/source/ti/drivers/net/wifi/wlan.h")
	.dwattr $C$DW$92, DW_AT_decl_line(0x5c8)
	.dwattr $C$DW$92, DW_AT_decl_column(0x06)
$C$DW$93	.dwtag  DW_TAG_formal_parameter
	.dwattr $C$DW$93, DW_AT_type(*$C$DW$T$888)

	.dwendtag $C$DW$92


$C$DW$94	.dwtag  DW_TAG_subprogram
	.dwattr $C$DW$94, DW_AT_name("memset")
	.dwattr $C$DW$94, DW_AT_TI_symbol_name("memset")
	.dwattr $C$DW$94, DW_AT_type(*$C$DW$T$3)
	.dwattr $C$DW$94, DW_AT_declaration
	.dwattr $C$DW$94, DW_AT_external
	.dwattr $C$DW$94, DW_AT_decl_file("/opt/ti/ccs-latest/ccs/tools/compiler/ti-cgt-arm_20.2.1.LTS/include/string.h")
	.dwattr $C$DW$94, DW_AT_decl_line(0x82)
	.dwattr $C$DW$94, DW_AT_decl_column(0x16)
$C$DW$95	.dwtag  DW_TAG_formal_parameter
	.dwattr $C$DW$95, DW_AT_type(*$C$DW$T$3)

$C$DW$96	.dwtag  DW_TAG_formal_parameter
	.dwattr $C$DW$96, DW_AT_type(*$C$DW$T$10)

$C$DW$97	.dwtag  DW_TAG_formal_parameter
	.dwattr $C$DW$97, DW_AT_type(*$C$DW$T$281)

	.dwendtag $C$DW$94


$C$DW$98	.dwtag  DW_TAG_subprogram
	.dwattr $C$DW$98, DW_AT_name("timer_settime")
	.dwattr $C$DW$98, DW_AT_TI_symbol_name("timer_settime")
	.dwattr $C$DW$98, DW_AT_type(*$C$DW$T$10)
	.dwattr $C$DW$98, DW_AT_declaration
	.dwattr $C$DW$98, DW_AT_external
	.dwattr $C$DW$98, DW_AT_decl_file("/vagrant/Q3_SDK_01/sdk_root/source/ti/posix/ccs/time.h")
	.dwattr $C$DW$98, DW_AT_decl_line(0x8f)
	.dwattr $C$DW$98, DW_AT_decl_column(0x0c)
$C$DW$99	.dwtag  DW_TAG_formal_parameter
	.dwattr $C$DW$99, DW_AT_type(*$C$DW$T$84)

$C$DW$100	.dwtag  DW_TAG_formal_parameter
	.dwattr $C$DW$100, DW_AT_type(*$C$DW$T$10)

$C$DW$101	.dwtag  DW_TAG_formal_parameter
	.dwattr $C$DW$101, DW_AT_type(*$C$DW$T$941)

$C$DW$102	.dwtag  DW_TAG_formal_parameter
	.dwattr $C$DW$102, DW_AT_type(*$C$DW$T$942)

	.dwendtag $C$DW$98


$C$DW$103	.dwtag  DW_TAG_subprogram
	.dwattr $C$DW$103, DW_AT_name("sleep")
	.dwattr $C$DW$103, DW_AT_TI_symbol_name("sleep")
	.dwattr $C$DW$103, DW_AT_type(*$C$DW$T$11)
	.dwattr $C$DW$103, DW_AT_declaration
	.dwattr $C$DW$103, DW_AT_external
	.dwattr $C$DW$103, DW_AT_decl_file("/vagrant/Q3_SDK_01/sdk_root/source/ti/posix/ccs/unistd.h")
	.dwattr $C$DW$103, DW_AT_decl_line(0x3e)
	.dwattr $C$DW$103, DW_AT_decl_column(0x11)
$C$DW$104	.dwtag  DW_TAG_formal_parameter
	.dwattr $C$DW$104, DW_AT_type(*$C$DW$T$11)

	.dwendtag $C$DW$103


$C$DW$105	.dwtag  DW_TAG_subprogram
	.dwattr $C$DW$105, DW_AT_name("sem_init")
	.dwattr $C$DW$105, DW_AT_TI_symbol_name("sem_init")
	.dwattr $C$DW$105, DW_AT_type(*$C$DW$T$10)
	.dwattr $C$DW$105, DW_AT_declaration
	.dwattr $C$DW$105, DW_AT_external
	.dwattr $C$DW$105, DW_AT_decl_file("/vagrant/Q3_SDK_01/sdk_root/source/ti/posix/ccs/semaphore.h")
	.dwattr $C$DW$105, DW_AT_decl_line(0x4e)
	.dwattr $C$DW$105, DW_AT_decl_column(0x08)
$C$DW$106	.dwtag  DW_TAG_formal_parameter
	.dwattr $C$DW$106, DW_AT_type(*$C$DW$T$783)

$C$DW$107	.dwtag  DW_TAG_formal_parameter
	.dwattr $C$DW$107, DW_AT_type(*$C$DW$T$10)

$C$DW$108	.dwtag  DW_TAG_formal_parameter
	.dwattr $C$DW$108, DW_AT_type(*$C$DW$T$11)

	.dwendtag $C$DW$105


$C$DW$109	.dwtag  DW_TAG_subprogram
	.dwattr $C$DW$109, DW_AT_name("calloc")
	.dwattr $C$DW$109, DW_AT_TI_symbol_name("calloc")
	.dwattr $C$DW$109, DW_AT_type(*$C$DW$T$3)
	.dwattr $C$DW$109, DW_AT_declaration
	.dwattr $C$DW$109, DW_AT_external
	.dwattr $C$DW$109, DW_AT_decl_file("/opt/ti/ccs-latest/ccs/tools/compiler/ti-cgt-arm_20.2.1.LTS/include/stdlib.h")
	.dwattr $C$DW$109, DW_AT_decl_line(0xb3)
	.dwattr $C$DW$109, DW_AT_decl_column(0x19)
$C$DW$110	.dwtag  DW_TAG_formal_parameter
	.dwattr $C$DW$110, DW_AT_type(*$C$DW$T$281)

$C$DW$111	.dwtag  DW_TAG_formal_parameter
	.dwattr $C$DW$111, DW_AT_type(*$C$DW$T$281)

	.dwendtag $C$DW$109


$C$DW$112	.dwtag  DW_TAG_subprogram
	.dwattr $C$DW$112, DW_AT_name("mq_open")
	.dwattr $C$DW$112, DW_AT_TI_symbol_name("mq_open")
	.dwattr $C$DW$112, DW_AT_type(*$C$DW$T$81)
	.dwattr $C$DW$112, DW_AT_declaration
	.dwattr $C$DW$112, DW_AT_external
	.dwattr $C$DW$112, DW_AT_decl_file("/vagrant/Q3_SDK_01/sdk_root/source/ti/posix/ccs/mqueue.h")
	.dwattr $C$DW$112, DW_AT_decl_line(0x63)
	.dwattr $C$DW$112, DW_AT_decl_column(0x0e)
$C$DW$113	.dwtag  DW_TAG_formal_parameter
	.dwattr $C$DW$113, DW_AT_type(*$C$DW$T$481)

$C$DW$114	.dwtag  DW_TAG_formal_parameter
	.dwattr $C$DW$114, DW_AT_type(*$C$DW$T$10)

$C$DW$115	.dwtag  DW_TAG_unspecified_parameters

	.dwendtag $C$DW$112


$C$DW$116	.dwtag  DW_TAG_subprogram
	.dwattr $C$DW$116, DW_AT_name("pthread_attr_init")
	.dwattr $C$DW$116, DW_AT_TI_symbol_name("pthread_attr_init")
	.dwattr $C$DW$116, DW_AT_type(*$C$DW$T$10)
	.dwattr $C$DW$116, DW_AT_declaration
	.dwattr $C$DW$116, DW_AT_external
	.dwattr $C$DW$116, DW_AT_decl_file("/vagrant/Q3_SDK_01/sdk_root/source/ti/posix/ccs/pthread.h")
	.dwattr $C$DW$116, DW_AT_decl_line(0x83)
	.dwattr $C$DW$116, DW_AT_decl_column(0x0c)
$C$DW$117	.dwtag  DW_TAG_formal_parameter
	.dwattr $C$DW$117, DW_AT_type(*$C$DW$T$563)

	.dwendtag $C$DW$116


$C$DW$118	.dwtag  DW_TAG_subprogram
	.dwattr $C$DW$118, DW_AT_name("timer_create")
	.dwattr $C$DW$118, DW_AT_TI_symbol_name("timer_create")
	.dwattr $C$DW$118, DW_AT_type(*$C$DW$T$10)
	.dwattr $C$DW$118, DW_AT_declaration
	.dwattr $C$DW$118, DW_AT_external
	.dwattr $C$DW$118, DW_AT_decl_file("/vagrant/Q3_SDK_01/sdk_root/source/ti/posix/ccs/time.h")
	.dwattr $C$DW$118, DW_AT_decl_line(0x8b)
	.dwattr $C$DW$118, DW_AT_decl_column(0x0c)
$C$DW$119	.dwtag  DW_TAG_formal_parameter
	.dwattr $C$DW$119, DW_AT_type(*$C$DW$T$933)

$C$DW$120	.dwtag  DW_TAG_formal_parameter
	.dwattr $C$DW$120, DW_AT_type(*$C$DW$T$934)

$C$DW$121	.dwtag  DW_TAG_formal_parameter
	.dwattr $C$DW$121, DW_AT_type(*$C$DW$T$935)

	.dwendtag $C$DW$118


$C$DW$122	.dwtag  DW_TAG_subprogram
	.dwattr $C$DW$122, DW_AT_name("sl_RegisterLibsEventHandler")
	.dwattr $C$DW$122, DW_AT_TI_symbol_name("sl_RegisterLibsEventHandler")
	.dwattr $C$DW$122, DW_AT_type(*$C$DW$T$12)
	.dwattr $C$DW$122, DW_AT_declaration
	.dwattr $C$DW$122, DW_AT_external
	.dwattr $C$DW$122, DW_AT_decl_file("/vagrant/Q3_SDK_01/sdk_root/source/ti/drivers/net/wifi/eventreg.h")
	.dwattr $C$DW$122, DW_AT_decl_line(0x6f)
	.dwattr $C$DW$122, DW_AT_decl_column(0x06)
$C$DW$123	.dwtag  DW_TAG_formal_parameter
	.dwattr $C$DW$123, DW_AT_type(*$C$DW$T$583)

$C$DW$124	.dwtag  DW_TAG_formal_parameter
	.dwattr $C$DW$124, DW_AT_type(*$C$DW$T$794)

	.dwendtag $C$DW$122


$C$DW$125	.dwtag  DW_TAG_subprogram
	.dwattr $C$DW$125, DW_AT_name("malloc")
	.dwattr $C$DW$125, DW_AT_TI_symbol_name("malloc")
	.dwattr $C$DW$125, DW_AT_type(*$C$DW$T$3)
	.dwattr $C$DW$125, DW_AT_declaration
	.dwattr $C$DW$125, DW_AT_external
	.dwattr $C$DW$125, DW_AT_decl_file("/opt/ti/ccs-latest/ccs/tools/compiler/ti-cgt-arm_20.2.1.LTS/include/stdlib.h")
	.dwattr $C$DW$125, DW_AT_decl_line(0xb5)
	.dwattr $C$DW$125, DW_AT_decl_column(0x19)
$C$DW$126	.dwtag  DW_TAG_formal_parameter
	.dwattr $C$DW$126, DW_AT_type(*$C$DW$T$281)

	.dwendtag $C$DW$125

;	/opt/ti/ccs-latest/ccs/tools/compiler/ti-cgt-arm_20.2.1.LTS/bin/armacpia -@/tmp/TI7Oubrbjlz 
	.sect	".text:DummyPrintf"
	.clink
	.thumbfunc DummyPrintf
	.thumb

$C$DW$127	.dwtag  DW_TAG_subprogram
	.dwattr $C$DW$127, DW_AT_name("DummyPrintf")
	.dwattr $C$DW$127, DW_AT_low_pc(DummyPrintf)
	.dwattr $C$DW$127, DW_AT_high_pc(0x00)
	.dwattr $C$DW$127, DW_AT_TI_symbol_name("DummyPrintf")
	.dwattr $C$DW$127, DW_AT_TI_begin_file("/vagrant/Q3_SDK_01/sdk_root/source/ti/drivers/net/wifi/slnetif/slwificonn.c")
	.dwattr $C$DW$127, DW_AT_TI_begin_line(0x115)
	.dwattr $C$DW$127, DW_AT_TI_begin_column(0x0d)
	.dwattr $C$DW$127, DW_AT_decl_file("/vagrant/Q3_SDK_01/sdk_root/source/ti/drivers/net/wifi/slnetif/slwificonn.c")
	.dwattr $C$DW$127, DW_AT_decl_line(0x115)
	.dwattr $C$DW$127, DW_AT_decl_column(0x0d)
	.dwattr $C$DW$127, DW_AT_TI_max_frame_size(0x10)
	.dwpsn	file "/vagrant/Q3_SDK_01/sdk_root/source/ti/drivers/net/wifi/slnetif/slwificonn.c",line 277,column 51,is_stmt,address DummyPrintf,isa 1

	.dwfde $C$DW$CIE, DummyPrintf
$C$DW$128	.dwtag  DW_TAG_formal_parameter
	.dwattr $C$DW$128, DW_AT_name("pFormat")
	.dwattr $C$DW$128, DW_AT_TI_symbol_name("pFormat")
	.dwattr $C$DW$128, DW_AT_type(*$C$DW$T$481)
	.dwattr $C$DW$128, DW_AT_location[DW_OP_breg13 0]
$C$DW$129	.dwtag  DW_TAG_unspecified_parameters



;*****************************************************************************
;* FUNCTION NAME: DummyPrintf                                                *
;*                                                                           *
;*   Regs Modified     : SP                                                  *
;*   Regs Used         : A1,A2,A3,A4,SP,LR                                   *
;*   Local Frame Size  : 0 Args + 0 Auto + 0 Save = 0 byte                   *
;*****************************************************************************
DummyPrintf:
;* --------------------------------------------------------------------------*
	.dwcfi	cfa_offset, 0
        PUSH      {A1, A2, A3, A4}      ; [DPU_V7M3_PIPE] 
	.dwcfi	cfa_offset, 16
	.dwcfi	save_reg_to_mem, 3, -4
	.dwcfi	save_reg_to_mem, 2, -8
	.dwcfi	save_reg_to_mem, 1, -12
	.dwcfi	save_reg_to_mem, 0, -16
	.dwpsn	file "/vagrant/Q3_SDK_01/sdk_root/source/ti/drivers/net/wifi/slnetif/slwificonn.c",line 277,column 52,is_stmt,isa 1
;----------------------------------------------------------------------
; 277 | static void DummyPrintf(const char *pFormat, ...) {};                  
;----------------------------------------------------------------------
        ADD       SP, SP, #16           ; [DPU_V7M3_PIPE] 
	.dwcfi	cfa_offset, 0
$C$DW$130	.dwtag  DW_TAG_TI_branch
	.dwattr $C$DW$130, DW_AT_low_pc(0x00)
	.dwattr $C$DW$130, DW_AT_TI_return

        BX        LR                    ; [DPU_V7M3_PIPE] 
        ; BRANCH OCCURS                  ; [] 
	.dwattr $C$DW$127, DW_AT_TI_end_file("/vagrant/Q3_SDK_01/sdk_root/source/ti/drivers/net/wifi/slnetif/slwificonn.c")
	.dwattr $C$DW$127, DW_AT_TI_end_line(0x115)
	.dwattr $C$DW$127, DW_AT_TI_end_column(0x34)
	.dwendentry
	.dwendtag $C$DW$127

	.sect	".text:DeferredEvent_enqueue"
	.clink
	.thumbfunc DeferredEvent_enqueue
	.thumb

$C$DW$131	.dwtag  DW_TAG_subprogram
	.dwattr $C$DW$131, DW_AT_name("DeferredEvent_enqueue")
	.dwattr $C$DW$131, DW_AT_low_pc(DeferredEvent_enqueue)
	.dwattr $C$DW$131, DW_AT_high_pc(0x00)
	.dwattr $C$DW$131, DW_AT_TI_symbol_name("DeferredEvent_enqueue")
	.dwattr $C$DW$131, DW_AT_type(*$C$DW$T$10)
	.dwattr $C$DW$131, DW_AT_TI_begin_file("/vagrant/Q3_SDK_01/sdk_root/source/ti/drivers/net/wifi/slnetif/slwificonn.c")
	.dwattr $C$DW$131, DW_AT_TI_begin_line(0x147)
	.dwattr $C$DW$131, DW_AT_TI_begin_column(0x0c)
	.dwattr $C$DW$131, DW_AT_decl_file("/vagrant/Q3_SDK_01/sdk_root/source/ti/drivers/net/wifi/slnetif/slwificonn.c")
	.dwattr $C$DW$131, DW_AT_decl_line(0x147)
	.dwattr $C$DW$131, DW_AT_decl_column(0x0c)
	.dwattr $C$DW$131, DW_AT_TI_max_frame_size(0x18)
	.dwpsn	file "/vagrant/Q3_SDK_01/sdk_root/source/ti/drivers/net/wifi/slnetif/slwificonn.c",line 328,column 1,is_stmt,address DeferredEvent_enqueue,isa 1

	.dwfde $C$DW$CIE, DeferredEvent_enqueue
$C$DW$132	.dwtag  DW_TAG_formal_parameter
	.dwattr $C$DW$132, DW_AT_name("event")
	.dwattr $C$DW$132, DW_AT_TI_symbol_name("event")
	.dwattr $C$DW$132, DW_AT_type(*$C$DW$T$10)
	.dwattr $C$DW$132, DW_AT_location[DW_OP_reg0]

$C$DW$133	.dwtag  DW_TAG_formal_parameter
	.dwattr $C$DW$133, DW_AT_name("pParams")
	.dwattr $C$DW$133, DW_AT_TI_symbol_name("pParams")
	.dwattr $C$DW$133, DW_AT_type(*$C$DW$T$3)
	.dwattr $C$DW$133, DW_AT_location[DW_OP_reg1]

;----------------------------------------------------------------------
; 327 | static int DeferredEvent_enqueue(SLWIFICONN_EVENT_e event, void *pParam
;     | s)                                                                     
;----------------------------------------------------------------------

;*****************************************************************************
;* FUNCTION NAME: DeferredEvent_enqueue                                      *
;*                                                                           *
;*   Regs Modified     : A1,A2,A3,A4,V9,SP,LR,SR                             *
;*   Regs Used         : A1,A2,A3,A4,V9,SP,LR,SR                             *
;*   Local Frame Size  : 0 Args + 20 Auto + 4 Save = 24 byte                 *
;*****************************************************************************
DeferredEvent_enqueue:
;* --------------------------------------------------------------------------*
	.dwcfi	cfa_offset, 0
        PUSH      {LR}                  ; [DPU_V7M3_PIPE] 
	.dwcfi	cfa_offset, 4
	.dwcfi	save_reg_to_mem, 14, -4
        SUB       SP, SP, #20           ; [DPU_V7M3_PIPE] 
	.dwcfi	cfa_offset, 24
$C$DW$134	.dwtag  DW_TAG_variable
	.dwattr $C$DW$134, DW_AT_name("msg")
	.dwattr $C$DW$134, DW_AT_TI_symbol_name("msg")
	.dwattr $C$DW$134, DW_AT_type(*$C$DW$T$682)
	.dwattr $C$DW$134, DW_AT_location[DW_OP_breg13 0]

$C$DW$135	.dwtag  DW_TAG_variable
	.dwattr $C$DW$135, DW_AT_name("pParams")
	.dwattr $C$DW$135, DW_AT_TI_symbol_name("pParams")
	.dwattr $C$DW$135, DW_AT_type(*$C$DW$T$3)
	.dwattr $C$DW$135, DW_AT_location[DW_OP_breg13 8]

$C$DW$136	.dwtag  DW_TAG_variable
	.dwattr $C$DW$136, DW_AT_name("retVal")
	.dwattr $C$DW$136, DW_AT_TI_symbol_name("retVal")
	.dwattr $C$DW$136, DW_AT_type(*$C$DW$T$10)
	.dwattr $C$DW$136, DW_AT_location[DW_OP_breg13 12]

$C$DW$137	.dwtag  DW_TAG_variable
	.dwattr $C$DW$137, DW_AT_name("event")
	.dwattr $C$DW$137, DW_AT_TI_symbol_name("event")
	.dwattr $C$DW$137, DW_AT_type(*$C$DW$T$102)
	.dwattr $C$DW$137, DW_AT_location[DW_OP_breg13 16]

;----------------------------------------------------------------------
; 329 | int retVal;                                                            
; 330 | DeferredEvent_t msg;                                                   
;----------------------------------------------------------------------
        STR       A2, [SP, #8]          ; [DPU_V7M3_PIPE] |328| 
        STRB      A1, [SP, #16]         ; [DPU_V7M3_PIPE] |328| 
	.dwpsn	file "/vagrant/Q3_SDK_01/sdk_root/source/ti/drivers/net/wifi/slnetif/slwificonn.c",line 331,column 5,is_stmt,isa 1
;----------------------------------------------------------------------
; 331 | msg.event = event;                                                     
;----------------------------------------------------------------------
        LDRB      A1, [SP, #16]         ; [DPU_V7M3_PIPE] |331| 
        STRB      A1, [SP, #0]          ; [DPU_V7M3_PIPE] |331| 
	.dwpsn	file "/vagrant/Q3_SDK_01/sdk_root/source/ti/drivers/net/wifi/slnetif/slwificonn.c",line 332,column 5,is_stmt,isa 1
;----------------------------------------------------------------------
; 332 | msg.pParams = pParams;                                                 
;----------------------------------------------------------------------
        LDR       A1, [SP, #8]          ; [DPU_V7M3_PIPE] |332| 
        STR       A1, [SP, #4]          ; [DPU_V7M3_PIPE] |332| 
	.dwpsn	file "/vagrant/Q3_SDK_01/sdk_root/source/ti/drivers/net/wifi/slnetif/slwificonn.c",line 334,column 5,is_stmt,isa 1
;----------------------------------------------------------------------
; 334 | retVal = mq_send(g_ctx->DeferredEventQ, (char *)&msg, sizeof(DeferredEv
;     | ent_t), 0);                                                            
;----------------------------------------------------------------------
        LDR       A1, $C$CON1           ; [DPU_V7M3_PIPE] |334| 
        LDR       A1, [A1, #0]          ; [DPU_V7M3_PIPE] |334| 
        LDR       A1, [A1, #8]          ; [DPU_V7M3_PIPE] |334| 
        MOVS      A3, #8                ; [DPU_V7M3_PIPE] |334| 
        MOVS      A4, #0                ; [DPU_V7M3_PIPE] |334| 
        MOV       A2, SP                ; [DPU_V7M3_PIPE] |334| 
$C$DW$138	.dwtag  DW_TAG_TI_branch
	.dwattr $C$DW$138, DW_AT_low_pc(0x00)
	.dwattr $C$DW$138, DW_AT_name("mq_send")
	.dwattr $C$DW$138, DW_AT_TI_call

        BL        mq_send               ; [DPU_V7M3_PIPE] |334| 
        ; CALL OCCURS {mq_send }         ; [] |334| 
        STR       A1, [SP, #12]         ; [DPU_V7M3_PIPE] |334| 
	.dwpsn	file "/vagrant/Q3_SDK_01/sdk_root/source/ti/drivers/net/wifi/slnetif/slwificonn.c",line 335,column 5,is_stmt,isa 1
;----------------------------------------------------------------------
; 335 | assert(retVal >= 0);                                                   
;----------------------------------------------------------------------
        LDR       A2, [SP, #12]         ; [DPU_V7M3_PIPE] |335| 
        MOVS      A1, #0                ; [DPU_V7M3_PIPE] |335| 
        CMP       A2, #0                ; [DPU_V7M3_PIPE] |335| 
        BMI       ||$C$L1||             ; [DPU_V7M3_PIPE] |335| 
        ; BRANCHCC OCCURS {||$C$L1||}    ; [] |335| 
;* --------------------------------------------------------------------------*
        MOVS      A1, #1                ; [DPU_V7M3_PIPE] |335| 
;* --------------------------------------------------------------------------*
||$C$L1||:    
        CBNZ      A1, ||$C$L2||         ; [] 
        ; BRANCHCC OCCURS {||$C$L2||}    ; [] |335| 
;* --------------------------------------------------------------------------*
        ADR       A1, $C$SL24           ; [DPU_V7M3_PIPE] |335| 
$C$DW$139	.dwtag  DW_TAG_TI_branch
	.dwattr $C$DW$139, DW_AT_low_pc(0x00)
	.dwattr $C$DW$139, DW_AT_name("_abort_msg")
	.dwattr $C$DW$139, DW_AT_TI_call

        BL        _abort_msg            ; [DPU_V7M3_PIPE] |335| 
        ; CALL OCCURS {_abort_msg }      ; [] |335| 
;* --------------------------------------------------------------------------*
||$C$L2||:    
	.dwpsn	file "/vagrant/Q3_SDK_01/sdk_root/source/ti/drivers/net/wifi/slnetif/slwificonn.c",line 336,column 5,is_stmt,isa 1
;----------------------------------------------------------------------
; 336 | return retVal;                                                         
;----------------------------------------------------------------------
        LDR       A1, [SP, #12]         ; [DPU_V7M3_PIPE] |336| 
	.dwpsn	file "/vagrant/Q3_SDK_01/sdk_root/source/ti/drivers/net/wifi/slnetif/slwificonn.c",line 337,column 1,is_stmt,isa 1
        ADD       SP, SP, #20           ; [DPU_V7M3_PIPE] 
	.dwcfi	cfa_offset, 4
$C$DW$140	.dwtag  DW_TAG_TI_branch
	.dwattr $C$DW$140, DW_AT_low_pc(0x00)
	.dwattr $C$DW$140, DW_AT_TI_return

        POP       {PC}                  ; [DPU_V7M3_PIPE] 
	.dwcfi	cfa_offset, 0
        ; BRANCH OCCURS                  ; [] 
	.dwattr $C$DW$131, DW_AT_TI_end_file("/vagrant/Q3_SDK_01/sdk_root/source/ti/drivers/net/wifi/slnetif/slwificonn.c")
	.dwattr $C$DW$131, DW_AT_TI_end_line(0x151)
	.dwattr $C$DW$131, DW_AT_TI_end_column(0x01)
	.dwendentry
	.dwendtag $C$DW$131

	.sect	".text:DeferredEvent_dequeue"
	.clink
	.thumbfunc DeferredEvent_dequeue
	.thumb

$C$DW$141	.dwtag  DW_TAG_subprogram
	.dwattr $C$DW$141, DW_AT_name("DeferredEvent_dequeue")
	.dwattr $C$DW$141, DW_AT_low_pc(DeferredEvent_dequeue)
	.dwattr $C$DW$141, DW_AT_high_pc(0x00)
	.dwattr $C$DW$141, DW_AT_TI_symbol_name("DeferredEvent_dequeue")
	.dwattr $C$DW$141, DW_AT_type(*$C$DW$T$10)
	.dwattr $C$DW$141, DW_AT_TI_begin_file("/vagrant/Q3_SDK_01/sdk_root/source/ti/drivers/net/wifi/slnetif/slwificonn.c")
	.dwattr $C$DW$141, DW_AT_TI_begin_line(0x158)
	.dwattr $C$DW$141, DW_AT_TI_begin_column(0x0c)
	.dwattr $C$DW$141, DW_AT_decl_file("/vagrant/Q3_SDK_01/sdk_root/source/ti/drivers/net/wifi/slnetif/slwificonn.c")
	.dwattr $C$DW$141, DW_AT_decl_line(0x158)
	.dwattr $C$DW$141, DW_AT_decl_column(0x0c)
	.dwattr $C$DW$141, DW_AT_TI_max_frame_size(0x28)
	.dwpsn	file "/vagrant/Q3_SDK_01/sdk_root/source/ti/drivers/net/wifi/slnetif/slwificonn.c",line 345,column 1,is_stmt,address DeferredEvent_dequeue,isa 1

	.dwfde $C$DW$CIE, DeferredEvent_dequeue
$C$DW$142	.dwtag  DW_TAG_formal_parameter
	.dwattr $C$DW$142, DW_AT_name("pEvent")
	.dwattr $C$DW$142, DW_AT_TI_symbol_name("pEvent")
	.dwattr $C$DW$142, DW_AT_type(*$C$DW$T$584)
	.dwattr $C$DW$142, DW_AT_location[DW_OP_reg0]

$C$DW$143	.dwtag  DW_TAG_formal_parameter
	.dwattr $C$DW$143, DW_AT_name("ppParams")
	.dwattr $C$DW$143, DW_AT_TI_symbol_name("ppParams")
	.dwattr $C$DW$143, DW_AT_type(*$C$DW$T$420)
	.dwattr $C$DW$143, DW_AT_location[DW_OP_reg1]

;----------------------------------------------------------------------
; 344 | static int DeferredEvent_dequeue(SLWIFICONN_EVENT_e *pEvent, void **ppP
;     | arams)                                                                 
;----------------------------------------------------------------------

;*****************************************************************************
;* FUNCTION NAME: DeferredEvent_dequeue                                      *
;*                                                                           *
;*   Regs Modified     : A1,A2,A3,A4,V9,SP,LR,SR                             *
;*   Regs Used         : A1,A2,A3,A4,V9,SP,LR,SR                             *
;*   Local Frame Size  : 0 Args + 36 Auto + 4 Save = 40 byte                 *
;*****************************************************************************
DeferredEvent_dequeue:
;* --------------------------------------------------------------------------*
	.dwcfi	cfa_offset, 0
        PUSH      {LR}                  ; [DPU_V7M3_PIPE] 
	.dwcfi	cfa_offset, 4
	.dwcfi	save_reg_to_mem, 14, -4
        SUB       SP, SP, #36           ; [DPU_V7M3_PIPE] 
	.dwcfi	cfa_offset, 40
$C$DW$144	.dwtag  DW_TAG_variable
	.dwattr $C$DW$144, DW_AT_name("msg")
	.dwattr $C$DW$144, DW_AT_TI_symbol_name("msg")
	.dwattr $C$DW$144, DW_AT_type(*$C$DW$T$682)
	.dwattr $C$DW$144, DW_AT_location[DW_OP_breg13 0]

$C$DW$145	.dwtag  DW_TAG_variable
	.dwattr $C$DW$145, DW_AT_name("mqstat")
	.dwattr $C$DW$145, DW_AT_TI_symbol_name("mqstat")
	.dwattr $C$DW$145, DW_AT_type(*$C$DW$T$556)
	.dwattr $C$DW$145, DW_AT_location[DW_OP_breg13 8]

$C$DW$146	.dwtag  DW_TAG_variable
	.dwattr $C$DW$146, DW_AT_name("pEvent")
	.dwattr $C$DW$146, DW_AT_TI_symbol_name("pEvent")
	.dwattr $C$DW$146, DW_AT_type(*$C$DW$T$584)
	.dwattr $C$DW$146, DW_AT_location[DW_OP_breg13 24]

$C$DW$147	.dwtag  DW_TAG_variable
	.dwattr $C$DW$147, DW_AT_name("ppParams")
	.dwattr $C$DW$147, DW_AT_TI_symbol_name("ppParams")
	.dwattr $C$DW$147, DW_AT_type(*$C$DW$T$420)
	.dwattr $C$DW$147, DW_AT_location[DW_OP_breg13 28]

$C$DW$148	.dwtag  DW_TAG_variable
	.dwattr $C$DW$148, DW_AT_name("retVal")
	.dwattr $C$DW$148, DW_AT_TI_symbol_name("retVal")
	.dwattr $C$DW$148, DW_AT_type(*$C$DW$T$10)
	.dwattr $C$DW$148, DW_AT_location[DW_OP_breg13 32]

;----------------------------------------------------------------------
; 346 | int retVal;                                                            
; 347 | DeferredEvent_t msg;                                                   
; 348 | struct mq_attr mqstat;                                                 
;----------------------------------------------------------------------
        STR       A2, [SP, #28]         ; [DPU_V7M3_PIPE] |345| 
        STR       A1, [SP, #24]         ; [DPU_V7M3_PIPE] |345| 
	.dwpsn	file "/vagrant/Q3_SDK_01/sdk_root/source/ti/drivers/net/wifi/slnetif/slwificonn.c",line 350,column 5,is_stmt,isa 1
;----------------------------------------------------------------------
; 350 | retVal = mq_getattr(g_ctx->DeferredEventQ, &mqstat);                   
;----------------------------------------------------------------------
        LDR       A1, $C$CON2           ; [DPU_V7M3_PIPE] |350| 
        LDR       A1, [A1, #0]          ; [DPU_V7M3_PIPE] |350| 
        LDR       A1, [A1, #8]          ; [DPU_V7M3_PIPE] |350| 
        ADD       A2, SP, #8            ; [DPU_V7M3_PIPE] |350| 
$C$DW$149	.dwtag  DW_TAG_TI_branch
	.dwattr $C$DW$149, DW_AT_low_pc(0x00)
	.dwattr $C$DW$149, DW_AT_name("mq_getattr")
	.dwattr $C$DW$149, DW_AT_TI_call

        BL        mq_getattr            ; [DPU_V7M3_PIPE] |350| 
        ; CALL OCCURS {mq_getattr }      ; [] |350| 
        STR       A1, [SP, #32]         ; [DPU_V7M3_PIPE] |350| 
	.dwpsn	file "/vagrant/Q3_SDK_01/sdk_root/source/ti/drivers/net/wifi/slnetif/slwificonn.c",line 352,column 5,is_stmt,isa 1
;----------------------------------------------------------------------
; 352 | if(retVal == 0 && mqstat.mq_curmsgs)                                   
;----------------------------------------------------------------------
        LDR       A1, [SP, #32]         ; [DPU_V7M3_PIPE] |352| 
        CBNZ      A1, ||$C$L6||         ; [] 
        ; BRANCHCC OCCURS {||$C$L6||}    ; [] |352| 
;* --------------------------------------------------------------------------*
        LDR       A1, [SP, #20]         ; [DPU_V7M3_PIPE] |352| 
        CBZ       A1, ||$C$L6||         ; [] 
        ; BRANCHCC OCCURS {||$C$L6||}    ; [] |352| 
;* --------------------------------------------------------------------------*
	.dwpsn	file "/vagrant/Q3_SDK_01/sdk_root/source/ti/drivers/net/wifi/slnetif/slwificonn.c",line 354,column 9,is_stmt,isa 1
;----------------------------------------------------------------------
; 354 | retVal = mq_receive(g_ctx->DeferredEventQ, (char *)&msg, sizeof(Deferre
;     | dEvent_t), 0);                                                         
;----------------------------------------------------------------------
        LDR       A1, $C$CON2           ; [DPU_V7M3_PIPE] |354| 
        LDR       A1, [A1, #0]          ; [DPU_V7M3_PIPE] |354| 
        LDR       A1, [A1, #8]          ; [DPU_V7M3_PIPE] |354| 
        MOV       A2, SP                ; [DPU_V7M3_PIPE] |354| 
        MOVS      A3, #8                ; [DPU_V7M3_PIPE] |354| 
        MOVS      A4, #0                ; [DPU_V7M3_PIPE] |354| 
$C$DW$150	.dwtag  DW_TAG_TI_branch
	.dwattr $C$DW$150, DW_AT_low_pc(0x00)
	.dwattr $C$DW$150, DW_AT_name("mq_receive")
	.dwattr $C$DW$150, DW_AT_TI_call

        BL        mq_receive            ; [DPU_V7M3_PIPE] |354| 
        ; CALL OCCURS {mq_receive }      ; [] |354| 
        STR       A1, [SP, #32]         ; [DPU_V7M3_PIPE] |354| 
	.dwpsn	file "/vagrant/Q3_SDK_01/sdk_root/source/ti/drivers/net/wifi/slnetif/slwificonn.c",line 355,column 9,is_stmt,isa 1
;----------------------------------------------------------------------
; 355 | assert(retVal > 0);                                                    
;----------------------------------------------------------------------
        LDR       A2, [SP, #32]         ; [DPU_V7M3_PIPE] |355| 
        MOVS      A1, #0                ; [DPU_V7M3_PIPE] |355| 
        CMP       A2, #0                ; [DPU_V7M3_PIPE] |355| 
        BLE       ||$C$L3||             ; [DPU_V7M3_PIPE] |355| 
        ; BRANCHCC OCCURS {||$C$L3||}    ; [] |355| 
;* --------------------------------------------------------------------------*
        MOVS      A1, #1                ; [DPU_V7M3_PIPE] |355| 
;* --------------------------------------------------------------------------*
||$C$L3||:    
        CBNZ      A1, ||$C$L4||         ; [] 
        ; BRANCHCC OCCURS {||$C$L4||}    ; [] |355| 
;* --------------------------------------------------------------------------*
        ADR       A1, $C$SL25           ; [DPU_V7M3_PIPE] |355| 
$C$DW$151	.dwtag  DW_TAG_TI_branch
	.dwattr $C$DW$151, DW_AT_low_pc(0x00)
	.dwattr $C$DW$151, DW_AT_name("_abort_msg")
	.dwattr $C$DW$151, DW_AT_TI_call

        BL        _abort_msg            ; [DPU_V7M3_PIPE] |355| 
        ; CALL OCCURS {_abort_msg }      ; [] |355| 
;* --------------------------------------------------------------------------*
||$C$L4||:    
	.dwpsn	file "/vagrant/Q3_SDK_01/sdk_root/source/ti/drivers/net/wifi/slnetif/slwificonn.c",line 356,column 9,is_stmt,isa 1
;----------------------------------------------------------------------
; 356 | if(retVal > 0)                                                         
;----------------------------------------------------------------------
        LDR       A1, [SP, #32]         ; [DPU_V7M3_PIPE] |356| 
        CMP       A1, #0                ; [DPU_V7M3_PIPE] |356| 
        BLE       ||$C$L5||             ; [DPU_V7M3_PIPE] |356| 
        ; BRANCHCC OCCURS {||$C$L5||}    ; [] |356| 
;* --------------------------------------------------------------------------*
	.dwpsn	file "/vagrant/Q3_SDK_01/sdk_root/source/ti/drivers/net/wifi/slnetif/slwificonn.c",line 358,column 13,is_stmt,isa 1
;----------------------------------------------------------------------
; 358 | *pEvent = msg.event;                                                   
;----------------------------------------------------------------------
        LDRB      A1, [SP, #0]          ; [DPU_V7M3_PIPE] |358| 
        LDR       A2, [SP, #24]         ; [DPU_V7M3_PIPE] |358| 
        STRB      A1, [A2, #0]          ; [DPU_V7M3_PIPE] |358| 
	.dwpsn	file "/vagrant/Q3_SDK_01/sdk_root/source/ti/drivers/net/wifi/slnetif/slwificonn.c",line 359,column 13,is_stmt,isa 1
;----------------------------------------------------------------------
; 359 | *ppParams = msg.pParams;                                               
; 361 | // return number of pending messages (after this one was read)         
;----------------------------------------------------------------------
        LDR       A1, [SP, #4]          ; [DPU_V7M3_PIPE] |359| 
        LDR       A2, [SP, #28]         ; [DPU_V7M3_PIPE] |359| 
        STR       A1, [A2, #0]          ; [DPU_V7M3_PIPE] |359| 
;* --------------------------------------------------------------------------*
||$C$L5||:    
	.dwpsn	file "/vagrant/Q3_SDK_01/sdk_root/source/ti/drivers/net/wifi/slnetif/slwificonn.c",line 362,column 9,is_stmt,isa 1
;----------------------------------------------------------------------
; 362 | retVal = mqstat.mq_curmsgs - 1;                                        
; 364 | else                                                                   
;----------------------------------------------------------------------
        LDR       A1, [SP, #20]         ; [DPU_V7M3_PIPE] |362| 
        SUBS      A1, A1, #1            ; [DPU_V7M3_PIPE] |362| 
        STR       A1, [SP, #32]         ; [DPU_V7M3_PIPE] |362| 
        B         ||$C$L7||             ; [DPU_V7M3_PIPE] 
        ; BRANCH OCCURS {||$C$L7||}      ; [] 
;* --------------------------------------------------------------------------*
||$C$L6||:    
	.dwpsn	file "/vagrant/Q3_SDK_01/sdk_root/source/ti/drivers/net/wifi/slnetif/slwificonn.c",line 366,column 9,is_stmt,isa 1
;----------------------------------------------------------------------
; 366 | retVal = -1;                                                           
;----------------------------------------------------------------------
        MOV       A1, #-1               ; [DPU_V7M3_PIPE] |366| 
        STR       A1, [SP, #32]         ; [DPU_V7M3_PIPE] |366| 
;* --------------------------------------------------------------------------*
||$C$L7||:    
	.dwpsn	file "/vagrant/Q3_SDK_01/sdk_root/source/ti/drivers/net/wifi/slnetif/slwificonn.c",line 368,column 5,is_stmt,isa 1
;----------------------------------------------------------------------
; 368 | return retVal;                                                         
;----------------------------------------------------------------------
        LDR       A1, [SP, #32]         ; [DPU_V7M3_PIPE] |368| 
	.dwpsn	file "/vagrant/Q3_SDK_01/sdk_root/source/ti/drivers/net/wifi/slnetif/slwificonn.c",line 369,column 1,is_stmt,isa 1
        ADD       SP, SP, #36           ; [DPU_V7M3_PIPE] 
	.dwcfi	cfa_offset, 4
$C$DW$152	.dwtag  DW_TAG_TI_branch
	.dwattr $C$DW$152, DW_AT_low_pc(0x00)
	.dwattr $C$DW$152, DW_AT_TI_return

        POP       {PC}                  ; [DPU_V7M3_PIPE] 
	.dwcfi	cfa_offset, 0
        ; BRANCH OCCURS                  ; [] 
	.dwattr $C$DW$141, DW_AT_TI_end_file("/vagrant/Q3_SDK_01/sdk_root/source/ti/drivers/net/wifi/slnetif/slwificonn.c")
	.dwattr $C$DW$141, DW_AT_TI_end_line(0x171)
	.dwattr $C$DW$141, DW_AT_TI_end_column(0x01)
	.dwendentry
	.dwendtag $C$DW$141

	.sect	".text:NonPersistentProfile_process"
	.clink
	.thumbfunc NonPersistentProfile_process
	.thumb

$C$DW$153	.dwtag  DW_TAG_subprogram
	.dwattr $C$DW$153, DW_AT_name("NonPersistentProfile_process")
	.dwattr $C$DW$153, DW_AT_low_pc(NonPersistentProfile_process)
	.dwattr $C$DW$153, DW_AT_high_pc(0x00)
	.dwattr $C$DW$153, DW_AT_TI_symbol_name("NonPersistentProfile_process")
	.dwattr $C$DW$153, DW_AT_type(*$C$DW$T$10)
	.dwattr $C$DW$153, DW_AT_TI_begin_file("/vagrant/Q3_SDK_01/sdk_root/source/ti/drivers/net/wifi/slnetif/slwificonn.c")
	.dwattr $C$DW$153, DW_AT_TI_begin_line(0x179)
	.dwattr $C$DW$153, DW_AT_TI_begin_column(0x0c)
	.dwattr $C$DW$153, DW_AT_decl_file("/vagrant/Q3_SDK_01/sdk_root/source/ti/drivers/net/wifi/slnetif/slwificonn.c")
	.dwattr $C$DW$153, DW_AT_decl_line(0x179)
	.dwattr $C$DW$153, DW_AT_decl_column(0x0c)
	.dwattr $C$DW$153, DW_AT_TI_max_frame_size(0x20)
	.dwpsn	file "/vagrant/Q3_SDK_01/sdk_root/source/ti/drivers/net/wifi/slnetif/slwificonn.c",line 378,column 1,is_stmt,address NonPersistentProfile_process,isa 1

	.dwfde $C$DW$CIE, NonPersistentProfile_process
$C$DW$154	.dwtag  DW_TAG_formal_parameter
	.dwattr $C$DW$154, DW_AT_name("bWlanDisconnect")
	.dwattr $C$DW$154, DW_AT_TI_symbol_name("bWlanDisconnect")
	.dwattr $C$DW$154, DW_AT_type(*$C$DW$T$10)
	.dwattr $C$DW$154, DW_AT_location[DW_OP_reg0]

;----------------------------------------------------------------------
; 377 | static int NonPersistentProfile_process(bool bWlanDisconnect)          
;----------------------------------------------------------------------

;*****************************************************************************
;* FUNCTION NAME: NonPersistentProfile_process                               *
;*                                                                           *
;*   Regs Modified     : A1,A2,A3,A4,V9,SP,LR,SR                             *
;*   Regs Used         : A1,A2,A3,A4,V9,SP,LR,SR                             *
;*   Local Frame Size  : 4 Args + 20 Auto + 4 Save = 28 byte                 *
;*****************************************************************************
NonPersistentProfile_process:
;* --------------------------------------------------------------------------*
	.dwcfi	cfa_offset, 0
        PUSH      {LR}                  ; [DPU_V7M3_PIPE] 
	.dwcfi	cfa_offset, 4
	.dwcfi	save_reg_to_mem, 14, -4
        SUB       SP, SP, #28           ; [DPU_V7M3_PIPE] 
	.dwcfi	cfa_offset, 32
$C$DW$155	.dwtag  DW_TAG_variable
	.dwattr $C$DW$155, DW_AT_name("retVal")
	.dwattr $C$DW$155, DW_AT_TI_symbol_name("retVal")
	.dwattr $C$DW$155, DW_AT_type(*$C$DW$T$10)
	.dwattr $C$DW$155, DW_AT_location[DW_OP_breg13 4]

$C$DW$156	.dwtag  DW_TAG_variable
	.dwattr $C$DW$156, DW_AT_name("bWlanDisconnect")
	.dwattr $C$DW$156, DW_AT_TI_symbol_name("bWlanDisconnect")
	.dwattr $C$DW$156, DW_AT_type(*$C$DW$T$94)
	.dwattr $C$DW$156, DW_AT_location[DW_OP_breg13 8]

        STRB      A1, [SP, #8]          ; [DPU_V7M3_PIPE] |378| 
	.dwpsn	file "/vagrant/Q3_SDK_01/sdk_root/source/ti/drivers/net/wifi/slnetif/slwificonn.c",line 379,column 16,is_stmt,isa 1
;----------------------------------------------------------------------
; 379 | int retVal = 0;                                                        
;----------------------------------------------------------------------
        MOVS      A1, #0                ; [DPU_V7M3_PIPE] |379| 
        STR       A1, [SP, #4]          ; [DPU_V7M3_PIPE] |379| 
	.dwpsn	file "/vagrant/Q3_SDK_01/sdk_root/source/ti/drivers/net/wifi/slnetif/slwificonn.c",line 381,column 5,is_stmt,isa 1
;----------------------------------------------------------------------
; 381 | if(bWlanDisconnect)                                                    
;----------------------------------------------------------------------
        LDRB      A1, [SP, #8]          ; [DPU_V7M3_PIPE] |381| 
        CBZ       A1, ||$C$L8||         ; [] 
        ; BRANCHCC OCCURS {||$C$L8||}    ; [] |381| 
;* --------------------------------------------------------------------------*
	.dwpsn	file "/vagrant/Q3_SDK_01/sdk_root/source/ti/drivers/net/wifi/slnetif/slwificonn.c",line 383,column 9,is_stmt,isa 1
;----------------------------------------------------------------------
; 383 | retVal = sl_WlanDisconnect();                                          
;----------------------------------------------------------------------
$C$DW$157	.dwtag  DW_TAG_TI_branch
	.dwattr $C$DW$157, DW_AT_low_pc(0x00)
	.dwattr $C$DW$157, DW_AT_name("sl_WlanDisconnect")
	.dwattr $C$DW$157, DW_AT_TI_call

        BL        sl_WlanDisconnect     ; [DPU_V7M3_PIPE] |383| 
        ; CALL OCCURS {sl_WlanDisconnect }  ; [] |383| 
        STR       A1, [SP, #4]          ; [DPU_V7M3_PIPE] |383| 
	.dwpsn	file "/vagrant/Q3_SDK_01/sdk_root/source/ti/drivers/net/wifi/slnetif/slwificonn.c",line 384,column 9,is_stmt,isa 1
;----------------------------------------------------------------------
; 384 | g_ctx->bWlanConnectUsed = false;                                       
; 387 | else                                                                   
;----------------------------------------------------------------------
        LDR       A1, $C$CON3           ; [DPU_V7M3_PIPE] |384| 
        LDR       A1, [A1, #0]          ; [DPU_V7M3_PIPE] |384| 
        MOVS      A2, #0                ; [DPU_V7M3_PIPE] |384| 
        STRB      A2, [A1, #116]        ; [DPU_V7M3_PIPE] |384| 
        B         ||$C$L13||            ; [DPU_V7M3_PIPE] 
        ; BRANCH OCCURS {||$C$L13||}     ; [] 
;* --------------------------------------------------------------------------*
||$C$L8||:    

$C$DW$158	.dwtag  DW_TAG_lexical_block
	.dwattr $C$DW$158, DW_AT_low_pc(0x00)
	.dwattr $C$DW$158, DW_AT_high_pc(0x00)
$C$DW$159	.dwtag  DW_TAG_variable
	.dwattr $C$DW$159, DW_AT_name("pProf")
	.dwattr $C$DW$159, DW_AT_TI_symbol_name("pProf")
	.dwattr $C$DW$159, DW_AT_type(*$C$DW$T$99)
	.dwattr $C$DW$159, DW_AT_location[DW_OP_breg13 12]

	.dwpsn	file "/vagrant/Q3_SDK_01/sdk_root/source/ti/drivers/net/wifi/slnetif/slwificonn.c",line 389,column 26,is_stmt,isa 1
;----------------------------------------------------------------------
; 389 | profile_t *pProf = (profile_t *)g_ctx->pNonPersistentProfile;          
;----------------------------------------------------------------------
        LDR       A1, $C$CON3           ; [DPU_V7M3_PIPE] |389| 
        LDR       A1, [A1, #0]          ; [DPU_V7M3_PIPE] |389| 
        LDR       A1, [A1, #112]        ; [DPU_V7M3_PIPE] |389| 
        STR       A1, [SP, #12]         ; [DPU_V7M3_PIPE] |389| 
	.dwpsn	file "/vagrant/Q3_SDK_01/sdk_root/source/ti/drivers/net/wifi/slnetif/slwificonn.c",line 391,column 9,is_stmt,isa 1
;----------------------------------------------------------------------
; 391 | if(pProf)                                                              
;----------------------------------------------------------------------
        LDR       A1, [SP, #12]         ; [DPU_V7M3_PIPE] |391| 
        CMP       A1, #0                ; [DPU_V7M3_PIPE] |391| 
        BEQ       ||$C$L12||            ; [DPU_V7M3_PIPE] |391| 
        ; BRANCHCC OCCURS {||$C$L12||}   ; [] |391| 
;* --------------------------------------------------------------------------*

$C$DW$160	.dwtag  DW_TAG_lexical_block
	.dwattr $C$DW$160, DW_AT_low_pc(0x00)
	.dwattr $C$DW$160, DW_AT_high_pc(0x00)
$C$DW$161	.dwtag  DW_TAG_variable
	.dwattr $C$DW$161, DW_AT_name("pBssid")
	.dwattr $C$DW$161, DW_AT_TI_symbol_name("pBssid")
	.dwattr $C$DW$161, DW_AT_type(*$C$DW$T$477)
	.dwattr $C$DW$161, DW_AT_location[DW_OP_breg13 16]

$C$DW$162	.dwtag  DW_TAG_variable
	.dwattr $C$DW$162, DW_AT_name("pSecParamsExt")
	.dwattr $C$DW$162, DW_AT_TI_symbol_name("pSecParamsExt")
	.dwattr $C$DW$162, DW_AT_type(*$C$DW$T$672)
	.dwattr $C$DW$162, DW_AT_location[DW_OP_breg13 20]

	.dwpsn	file "/vagrant/Q3_SDK_01/sdk_root/source/ti/drivers/net/wifi/slnetif/slwificonn.c",line 393,column 29,is_stmt,isa 1
;----------------------------------------------------------------------
; 393 | uint8_t *pBssid = NULL;                                                
;----------------------------------------------------------------------
        MOVS      A1, #0                ; [DPU_V7M3_PIPE] |393| 
        STR       A1, [SP, #16]         ; [DPU_V7M3_PIPE] |393| 
	.dwpsn	file "/vagrant/Q3_SDK_01/sdk_root/source/ti/drivers/net/wifi/slnetif/slwificonn.c",line 394,column 49,is_stmt,isa 1
;----------------------------------------------------------------------
; 394 | SlWlanSecParamsExt_t *pSecParamsExt = NULL;                            
;----------------------------------------------------------------------
        MOVS      A1, #0                ; [DPU_V7M3_PIPE] |394| 
        STR       A1, [SP, #20]         ; [DPU_V7M3_PIPE] |394| 
	.dwpsn	file "/vagrant/Q3_SDK_01/sdk_root/source/ti/drivers/net/wifi/slnetif/slwificonn.c",line 395,column 13,is_stmt,isa 1
;----------------------------------------------------------------------
; 395 | assert(pProf);                                                         
;----------------------------------------------------------------------
        LDR       A1, [SP, #12]         ; [DPU_V7M3_PIPE] |395| 
        CBNZ      A1, ||$C$L9||         ; [] 
        ; BRANCHCC OCCURS {||$C$L9||}    ; [] |395| 
;* --------------------------------------------------------------------------*
        ADR       A1, $C$SL26           ; [DPU_V7M3_PIPE] |395| 
$C$DW$163	.dwtag  DW_TAG_TI_branch
	.dwattr $C$DW$163, DW_AT_low_pc(0x00)
	.dwattr $C$DW$163, DW_AT_name("_abort_msg")
	.dwattr $C$DW$163, DW_AT_TI_call

        BL        _abort_msg            ; [DPU_V7M3_PIPE] |395| 
        ; CALL OCCURS {_abort_msg }      ; [] |395| 
;* --------------------------------------------------------------------------*
||$C$L9||:    
	.dwpsn	file "/vagrant/Q3_SDK_01/sdk_root/source/ti/drivers/net/wifi/slnetif/slwificonn.c",line 396,column 13,is_stmt,isa 1
;----------------------------------------------------------------------
; 396 | if(pProf->bSetBssid)                                                   
;----------------------------------------------------------------------
        LDR       A1, [SP, #12]         ; [DPU_V7M3_PIPE] |396| 
        LDRB      A1, [A1, #1]          ; [DPU_V7M3_PIPE] |396| 
        CBZ       A1, ||$C$L10||        ; [] 
        ; BRANCHCC OCCURS {||$C$L10||}   ; [] |396| 
;* --------------------------------------------------------------------------*
	.dwpsn	file "/vagrant/Q3_SDK_01/sdk_root/source/ti/drivers/net/wifi/slnetif/slwificonn.c",line 398,column 17,is_stmt,isa 1
;----------------------------------------------------------------------
; 398 | pBssid = pProf->bssid;                                                 
;----------------------------------------------------------------------
        LDR       A1, [SP, #12]         ; [DPU_V7M3_PIPE] |398| 
        ADDS      A1, A1, #2            ; [DPU_V7M3_PIPE] |398| 
        STR       A1, [SP, #16]         ; [DPU_V7M3_PIPE] |398| 
;* --------------------------------------------------------------------------*
||$C$L10||:    
	.dwpsn	file "/vagrant/Q3_SDK_01/sdk_root/source/ti/drivers/net/wifi/slnetif/slwificonn.c",line 400,column 13,is_stmt,isa 1
;----------------------------------------------------------------------
; 400 | if(pProf->secParams.Type == SL_WLAN_SEC_TYPE_WPA_ENT)                  
;----------------------------------------------------------------------
        LDR       A1, [SP, #12]         ; [DPU_V7M3_PIPE] |400| 
        LDRB      A1, [A1, #8]          ; [DPU_V7M3_PIPE] |400| 
        CMP       A1, #5                ; [DPU_V7M3_PIPE] |400| 
        BNE       ||$C$L11||            ; [DPU_V7M3_PIPE] |400| 
        ; BRANCHCC OCCURS {||$C$L11||}   ; [] |400| 
;* --------------------------------------------------------------------------*
	.dwpsn	file "/vagrant/Q3_SDK_01/sdk_root/source/ti/drivers/net/wifi/slnetif/slwificonn.c",line 402,column 17,is_stmt,isa 1
;----------------------------------------------------------------------
; 402 | pSecParamsExt = &pProf->extSecParams;                                  
;----------------------------------------------------------------------
        LDR       A1, [SP, #12]         ; [DPU_V7M3_PIPE] |402| 
        ADDS      A1, A1, #20           ; [DPU_V7M3_PIPE] |402| 
        STR       A1, [SP, #20]         ; [DPU_V7M3_PIPE] |402| 
;* --------------------------------------------------------------------------*
||$C$L11||:    
	.dwpsn	file "/vagrant/Q3_SDK_01/sdk_root/source/ti/drivers/net/wifi/slnetif/slwificonn.c",line 404,column 13,is_stmt,isa 1
;----------------------------------------------------------------------
; 404 | retVal = sl_WlanConnect(PROFILE_SSID(pProf), pProf->ssidLen, pBssid, &p
;     | Prof->secParams, pSecParamsExt);                                       
;----------------------------------------------------------------------
        LDR       A1, [SP, #20]         ; [DPU_V7M3_PIPE] |404| 
        STR       A1, [SP, #0]          ; [DPU_V7M3_PIPE] |404| 
        LDR       A2, [SP, #12]         ; [DPU_V7M3_PIPE] |404| 
        LDR       A4, [SP, #12]         ; [DPU_V7M3_PIPE] |404| 
        LDR       A3, [SP, #16]         ; [DPU_V7M3_PIPE] |404| 
        LDR       A1, [SP, #12]         ; [DPU_V7M3_PIPE] |404| 
        LDRB      A2, [A2, #0]          ; [DPU_V7M3_PIPE] |404| 
        ADDS      A4, A4, #8            ; [DPU_V7M3_PIPE] |404| 
        ADDS      A1, A1, #44           ; [DPU_V7M3_PIPE] |404| 
$C$DW$164	.dwtag  DW_TAG_TI_branch
	.dwattr $C$DW$164, DW_AT_low_pc(0x00)
	.dwattr $C$DW$164, DW_AT_name("sl_WlanConnect")
	.dwattr $C$DW$164, DW_AT_TI_call

        BL        sl_WlanConnect        ; [DPU_V7M3_PIPE] |404| 
        ; CALL OCCURS {sl_WlanConnect }  ; [] |404| 
        STR       A1, [SP, #4]          ; [DPU_V7M3_PIPE] |404| 
	.dwpsn	file "/vagrant/Q3_SDK_01/sdk_root/source/ti/drivers/net/wifi/slnetif/slwificonn.c",line 405,column 13,is_stmt,isa 1
;----------------------------------------------------------------------
; 405 | g_ctx->bWlanConnectUsed = true;                                        
;----------------------------------------------------------------------
        LDR       A1, $C$CON3           ; [DPU_V7M3_PIPE] |405| 
        LDR       A1, [A1, #0]          ; [DPU_V7M3_PIPE] |405| 
        MOVS      A2, #1                ; [DPU_V7M3_PIPE] |405| 
        STRB      A2, [A1, #116]        ; [DPU_V7M3_PIPE] |405| 
	.dwendtag $C$DW$160

;* --------------------------------------------------------------------------*
||$C$L12||:    
	.dwendtag $C$DW$158

;* --------------------------------------------------------------------------*
||$C$L13||:    
	.dwpsn	file "/vagrant/Q3_SDK_01/sdk_root/source/ti/drivers/net/wifi/slnetif/slwificonn.c",line 408,column 5,is_stmt,isa 1
;----------------------------------------------------------------------
; 408 | return retVal;                                                         
;----------------------------------------------------------------------
        LDR       A1, [SP, #4]          ; [DPU_V7M3_PIPE] |408| 
	.dwpsn	file "/vagrant/Q3_SDK_01/sdk_root/source/ti/drivers/net/wifi/slnetif/slwificonn.c",line 409,column 1,is_stmt,isa 1
        ADD       SP, SP, #28           ; [DPU_V7M3_PIPE] 
	.dwcfi	cfa_offset, 4
$C$DW$165	.dwtag  DW_TAG_TI_branch
	.dwattr $C$DW$165, DW_AT_low_pc(0x00)
	.dwattr $C$DW$165, DW_AT_TI_return

        POP       {PC}                  ; [DPU_V7M3_PIPE] 
	.dwcfi	cfa_offset, 0
        ; BRANCH OCCURS                  ; [] 
	.dwattr $C$DW$153, DW_AT_TI_end_file("/vagrant/Q3_SDK_01/sdk_root/source/ti/drivers/net/wifi/slnetif/slwificonn.c")
	.dwattr $C$DW$153, DW_AT_TI_end_line(0x199)
	.dwattr $C$DW$153, DW_AT_TI_end_column(0x01)
	.dwendentry
	.dwendtag $C$DW$153

	.sect	".text:DeferredEvent_process"
	.clink
	.thumbfunc DeferredEvent_process
	.thumb

$C$DW$166	.dwtag  DW_TAG_subprogram
	.dwattr $C$DW$166, DW_AT_name("DeferredEvent_process")
	.dwattr $C$DW$166, DW_AT_low_pc(DeferredEvent_process)
	.dwattr $C$DW$166, DW_AT_high_pc(0x00)
	.dwattr $C$DW$166, DW_AT_TI_symbol_name("DeferredEvent_process")
	.dwattr $C$DW$166, DW_AT_type(*$C$DW$T$10)
	.dwattr $C$DW$166, DW_AT_TI_begin_file("/vagrant/Q3_SDK_01/sdk_root/source/ti/drivers/net/wifi/slnetif/slwificonn.c")
	.dwattr $C$DW$166, DW_AT_TI_begin_line(0x1a0)
	.dwattr $C$DW$166, DW_AT_TI_begin_column(0x0c)
	.dwattr $C$DW$166, DW_AT_decl_file("/vagrant/Q3_SDK_01/sdk_root/source/ti/drivers/net/wifi/slnetif/slwificonn.c")
	.dwattr $C$DW$166, DW_AT_decl_line(0x1a0)
	.dwattr $C$DW$166, DW_AT_decl_column(0x0c)
	.dwattr $C$DW$166, DW_AT_TI_max_frame_size(0x28)
	.dwpsn	file "/vagrant/Q3_SDK_01/sdk_root/source/ti/drivers/net/wifi/slnetif/slwificonn.c",line 417,column 1,is_stmt,address DeferredEvent_process,isa 1

	.dwfde $C$DW$CIE, DeferredEvent_process
;----------------------------------------------------------------------
; 416 | static int DeferredEvent_process()                                     
;----------------------------------------------------------------------

;*****************************************************************************
;* FUNCTION NAME: DeferredEvent_process                                      *
;*                                                                           *
;*   Regs Modified     : A1,A2,A3,A4,V9,SP,LR,SR                             *
;*   Regs Used         : A1,A2,A3,A4,V9,SP,LR,SR                             *
;*   Local Frame Size  : 12 Args + 24 Auto + 4 Save = 40 byte                *
;*****************************************************************************
DeferredEvent_process:
;* --------------------------------------------------------------------------*
	.dwcfi	cfa_offset, 0
        PUSH      {LR}                  ; [DPU_V7M3_PIPE] 
	.dwcfi	cfa_offset, 4
	.dwcfi	save_reg_to_mem, 14, -4
        SUB       SP, SP, #36           ; [DPU_V7M3_PIPE] 
	.dwcfi	cfa_offset, 40
$C$DW$167	.dwtag  DW_TAG_variable
	.dwattr $C$DW$167, DW_AT_name("retVal")
	.dwattr $C$DW$167, DW_AT_TI_symbol_name("retVal")
	.dwattr $C$DW$167, DW_AT_type(*$C$DW$T$10)
	.dwattr $C$DW$167, DW_AT_location[DW_OP_breg13 12]

$C$DW$168	.dwtag  DW_TAG_variable
	.dwattr $C$DW$168, DW_AT_name("pParams")
	.dwattr $C$DW$168, DW_AT_TI_symbol_name("pParams")
	.dwattr $C$DW$168, DW_AT_type(*$C$DW$T$3)
	.dwattr $C$DW$168, DW_AT_location[DW_OP_breg13 16]

$C$DW$169	.dwtag  DW_TAG_variable
	.dwattr $C$DW$169, DW_AT_name("deferredEvent")
	.dwattr $C$DW$169, DW_AT_TI_symbol_name("deferredEvent")
	.dwattr $C$DW$169, DW_AT_type(*$C$DW$T$102)
	.dwattr $C$DW$169, DW_AT_location[DW_OP_breg13 20]

	.dwpsn	file "/vagrant/Q3_SDK_01/sdk_root/source/ti/drivers/net/wifi/slnetif/slwificonn.c",line 418,column 16,is_stmt,isa 1
;----------------------------------------------------------------------
; 418 | int retVal = SL_RET_OBJ_NOT_SET;                                       
; 419 | SLWIFICONN_EVENT_e deferredEvent;                                      
; 420 | void *pParams;                                                         
;----------------------------------------------------------------------
        LDR       A1, $C$CON4           ; [DPU_V7M3_PIPE] |418| 
        STR       A1, [SP, #12]         ; [DPU_V7M3_PIPE] |418| 
	.dwpsn	file "/vagrant/Q3_SDK_01/sdk_root/source/ti/drivers/net/wifi/slnetif/slwificonn.c",line 421,column 5,is_stmt,isa 1
;----------------------------------------------------------------------
; 421 | while (DeferredEvent_dequeue(&deferredEvent, &pParams) >= 0)           
;----------------------------------------------------------------------
        B         ||$C$L21||            ; [DPU_V7M3_PIPE] |421| 
        ; BRANCH OCCURS {||$C$L21||}     ; [] |421| 
;* --------------------------------------------------------------------------*
||$C$L14||:    

$C$DW$170	.dwtag  DW_TAG_lexical_block
	.dwattr $C$DW$170, DW_AT_low_pc(0x00)
	.dwattr $C$DW$170, DW_AT_high_pc(0x00)
	.dwpsn	file "/vagrant/Q3_SDK_01/sdk_root/source/ti/drivers/net/wifi/slnetif/slwificonn.c",line 423,column 9,is_stmt,isa 1
;----------------------------------------------------------------------
; 423 | if(deferredEvent == SLWIFICONN_EVENT_ADD_PROFILE)                      
;----------------------------------------------------------------------
        LDRB      A1, [SP, #20]         ; [DPU_V7M3_PIPE] |423| 
        CMP       A1, #11               ; [DPU_V7M3_PIPE] |423| 
        BNE       ||$C$L18||            ; [DPU_V7M3_PIPE] |423| 
        ; BRANCHCC OCCURS {||$C$L18||}   ; [] |423| 
;* --------------------------------------------------------------------------*

$C$DW$171	.dwtag  DW_TAG_lexical_block
	.dwattr $C$DW$171, DW_AT_low_pc(0x00)
	.dwattr $C$DW$171, DW_AT_high_pc(0x00)
	.dwpsn	file "/vagrant/Q3_SDK_01/sdk_root/source/ti/drivers/net/wifi/slnetif/slwificonn.c",line 425,column 13,is_stmt,isa 1
;----------------------------------------------------------------------
; 425 | if(pParams)                                                            
;----------------------------------------------------------------------
        LDR       A1, [SP, #16]         ; [DPU_V7M3_PIPE] |425| 
        CMP       A1, #0                ; [DPU_V7M3_PIPE] |425| 
        BEQ       ||$C$L17||            ; [DPU_V7M3_PIPE] |425| 
        ; BRANCHCC OCCURS {||$C$L17||}   ; [] |425| 
;* --------------------------------------------------------------------------*

$C$DW$172	.dwtag  DW_TAG_lexical_block
	.dwattr $C$DW$172, DW_AT_low_pc(0x00)
	.dwattr $C$DW$172, DW_AT_high_pc(0x00)
$C$DW$173	.dwtag  DW_TAG_variable
	.dwattr $C$DW$173, DW_AT_name("pBssid")
	.dwattr $C$DW$173, DW_AT_TI_symbol_name("pBssid")
	.dwattr $C$DW$173, DW_AT_type(*$C$DW$T$477)
	.dwattr $C$DW$173, DW_AT_location[DW_OP_breg13 24]

$C$DW$174	.dwtag  DW_TAG_variable
	.dwattr $C$DW$174, DW_AT_name("pSecParamsExt")
	.dwattr $C$DW$174, DW_AT_TI_symbol_name("pSecParamsExt")
	.dwattr $C$DW$174, DW_AT_type(*$C$DW$T$672)
	.dwattr $C$DW$174, DW_AT_location[DW_OP_breg13 28]

$C$DW$175	.dwtag  DW_TAG_variable
	.dwattr $C$DW$175, DW_AT_name("pProf")
	.dwattr $C$DW$175, DW_AT_TI_symbol_name("pProf")
	.dwattr $C$DW$175, DW_AT_type(*$C$DW$T$99)
	.dwattr $C$DW$175, DW_AT_location[DW_OP_breg13 32]

	.dwpsn	file "/vagrant/Q3_SDK_01/sdk_root/source/ti/drivers/net/wifi/slnetif/slwificonn.c",line 427,column 33,is_stmt,isa 1
;----------------------------------------------------------------------
; 427 | uint8_t *pBssid = NULL;                                                
;----------------------------------------------------------------------
        MOVS      A1, #0                ; [DPU_V7M3_PIPE] |427| 
        STR       A1, [SP, #24]         ; [DPU_V7M3_PIPE] |427| 
	.dwpsn	file "/vagrant/Q3_SDK_01/sdk_root/source/ti/drivers/net/wifi/slnetif/slwificonn.c",line 428,column 53,is_stmt,isa 1
;----------------------------------------------------------------------
; 428 | SlWlanSecParamsExt_t *pSecParamsExt = NULL;                            
;----------------------------------------------------------------------
        MOVS      A1, #0                ; [DPU_V7M3_PIPE] |428| 
        STR       A1, [SP, #28]         ; [DPU_V7M3_PIPE] |428| 
	.dwpsn	file "/vagrant/Q3_SDK_01/sdk_root/source/ti/drivers/net/wifi/slnetif/slwificonn.c",line 429,column 34,is_stmt,isa 1
;----------------------------------------------------------------------
; 429 | profile_t *pProf = (profile_t *)pParams;                               
;----------------------------------------------------------------------
        LDR       A1, [SP, #16]         ; [DPU_V7M3_PIPE] |429| 
        STR       A1, [SP, #32]         ; [DPU_V7M3_PIPE] |429| 
	.dwpsn	file "/vagrant/Q3_SDK_01/sdk_root/source/ti/drivers/net/wifi/slnetif/slwificonn.c",line 430,column 17,is_stmt,isa 1
;----------------------------------------------------------------------
; 430 | if(pProf->bSetBssid)                                                   
;----------------------------------------------------------------------
        LDR       A1, [SP, #32]         ; [DPU_V7M3_PIPE] |430| 
        LDRB      A1, [A1, #1]          ; [DPU_V7M3_PIPE] |430| 
        CBZ       A1, ||$C$L15||        ; [] 
        ; BRANCHCC OCCURS {||$C$L15||}   ; [] |430| 
;* --------------------------------------------------------------------------*
	.dwpsn	file "/vagrant/Q3_SDK_01/sdk_root/source/ti/drivers/net/wifi/slnetif/slwificonn.c",line 432,column 21,is_stmt,isa 1
;----------------------------------------------------------------------
; 432 | pBssid = pProf->bssid;                                                 
;----------------------------------------------------------------------
        LDR       A1, [SP, #32]         ; [DPU_V7M3_PIPE] |432| 
        ADDS      A1, A1, #2            ; [DPU_V7M3_PIPE] |432| 
        STR       A1, [SP, #24]         ; [DPU_V7M3_PIPE] |432| 
;* --------------------------------------------------------------------------*
||$C$L15||:    
	.dwpsn	file "/vagrant/Q3_SDK_01/sdk_root/source/ti/drivers/net/wifi/slnetif/slwificonn.c",line 434,column 17,is_stmt,isa 1
;----------------------------------------------------------------------
; 434 | if(pProf->secParams.Type == SL_WLAN_SEC_TYPE_WPA_ENT)                  
;----------------------------------------------------------------------
        LDR       A1, [SP, #32]         ; [DPU_V7M3_PIPE] |434| 
        LDRB      A1, [A1, #8]          ; [DPU_V7M3_PIPE] |434| 
        CMP       A1, #5                ; [DPU_V7M3_PIPE] |434| 
        BNE       ||$C$L16||            ; [DPU_V7M3_PIPE] |434| 
        ; BRANCHCC OCCURS {||$C$L16||}   ; [] |434| 
;* --------------------------------------------------------------------------*
	.dwpsn	file "/vagrant/Q3_SDK_01/sdk_root/source/ti/drivers/net/wifi/slnetif/slwificonn.c",line 436,column 21,is_stmt,isa 1
;----------------------------------------------------------------------
; 436 | pSecParamsExt = &pProf->extSecParams;                                  
;----------------------------------------------------------------------
        LDR       A1, [SP, #32]         ; [DPU_V7M3_PIPE] |436| 
        ADDS      A1, A1, #20           ; [DPU_V7M3_PIPE] |436| 
        STR       A1, [SP, #28]         ; [DPU_V7M3_PIPE] |436| 
;* --------------------------------------------------------------------------*
||$C$L16||:    
	.dwpsn	file "/vagrant/Q3_SDK_01/sdk_root/source/ti/drivers/net/wifi/slnetif/slwificonn.c",line 438,column 17,is_stmt,isa 1
;----------------------------------------------------------------------
; 438 | retVal = sl_WlanProfileAdd(PROFILE_SSID(pProf), pProf->ssidLen, pBssid,
;     |  &pProf->secParams, pSecParamsExt, pProf->priority, 0);                
;----------------------------------------------------------------------
        LDR       A2, [SP, #28]         ; [DPU_V7M3_PIPE] |438| 
        LDR       A1, [SP, #32]         ; [DPU_V7M3_PIPE] |438| 
        STR       A2, [SP, #0]          ; [DPU_V7M3_PIPE] |438| 
        LDRB      A1, [A1, #40]         ; [DPU_V7M3_PIPE] |438| 
        STR       A1, [SP, #4]          ; [DPU_V7M3_PIPE] |438| 
        MOVS      A1, #0                ; [DPU_V7M3_PIPE] |438| 
        STR       A1, [SP, #8]          ; [DPU_V7M3_PIPE] |438| 
        LDR       A4, [SP, #32]         ; [DPU_V7M3_PIPE] |438| 
        LDR       A2, [SP, #32]         ; [DPU_V7M3_PIPE] |438| 
        LDR       A1, [SP, #32]         ; [DPU_V7M3_PIPE] |438| 
        LDR       A3, [SP, #24]         ; [DPU_V7M3_PIPE] |438| 
        LDRB      A2, [A2, #0]          ; [DPU_V7M3_PIPE] |438| 
        ADDS      A4, A4, #8            ; [DPU_V7M3_PIPE] |438| 
        ADDS      A1, A1, #44           ; [DPU_V7M3_PIPE] |438| 
$C$DW$176	.dwtag  DW_TAG_TI_branch
	.dwattr $C$DW$176, DW_AT_low_pc(0x00)
	.dwattr $C$DW$176, DW_AT_name("sl_WlanProfileAdd")
	.dwattr $C$DW$176, DW_AT_TI_call

        BL        sl_WlanProfileAdd     ; [DPU_V7M3_PIPE] |438| 
        ; CALL OCCURS {sl_WlanProfileAdd }  ; [] |438| 
        STR       A1, [SP, #12]         ; [DPU_V7M3_PIPE] |438| 
	.dwpsn	file "/vagrant/Q3_SDK_01/sdk_root/source/ti/drivers/net/wifi/slnetif/slwificonn.c",line 439,column 17,is_stmt,isa 1
;----------------------------------------------------------------------
; 439 | free(pProf);                                                           
;----------------------------------------------------------------------
        LDR       A1, [SP, #32]         ; [DPU_V7M3_PIPE] |439| 
$C$DW$177	.dwtag  DW_TAG_TI_branch
	.dwattr $C$DW$177, DW_AT_low_pc(0x00)
	.dwattr $C$DW$177, DW_AT_name("free")
	.dwattr $C$DW$177, DW_AT_TI_call

        BL        free                  ; [DPU_V7M3_PIPE] |439| 
        ; CALL OCCURS {free }            ; [] |439| 
	.dwendtag $C$DW$172

;* --------------------------------------------------------------------------*
||$C$L17||:    
	.dwendtag $C$DW$171

;* --------------------------------------------------------------------------*
||$C$L18||:    
	.dwpsn	file "/vagrant/Q3_SDK_01/sdk_root/source/ti/drivers/net/wifi/slnetif/slwificonn.c",line 442,column 9,is_stmt,isa 1
;----------------------------------------------------------------------
; 442 | retVal = SignalEvent(deferredEvent);                                   
;----------------------------------------------------------------------
        LDRB      A1, [SP, #20]         ; [DPU_V7M3_PIPE] |442| 
$C$DW$178	.dwtag  DW_TAG_TI_branch
	.dwattr $C$DW$178, DW_AT_low_pc(0x00)
	.dwattr $C$DW$178, DW_AT_name("SignalEvent")
	.dwattr $C$DW$178, DW_AT_TI_call

        BL        SignalEvent           ; [DPU_V7M3_PIPE] |442| 
        ; CALL OCCURS {SignalEvent }     ; [] |442| 
        STR       A1, [SP, #12]         ; [DPU_V7M3_PIPE] |442| 
	.dwpsn	file "/vagrant/Q3_SDK_01/sdk_root/source/ti/drivers/net/wifi/slnetif/slwificonn.c",line 443,column 9,is_stmt,isa 1
;----------------------------------------------------------------------
; 443 | assert(retVal == 0);                                                   
;----------------------------------------------------------------------
        LDR       A2, [SP, #12]         ; [DPU_V7M3_PIPE] |443| 
        MOVS      A1, #0                ; [DPU_V7M3_PIPE] |443| 
        CBNZ      A2, ||$C$L19||        ; [] 
        ; BRANCHCC OCCURS {||$C$L19||}   ; [] |443| 
;* --------------------------------------------------------------------------*
        MOVS      A1, #1                ; [DPU_V7M3_PIPE] |443| 
;* --------------------------------------------------------------------------*
||$C$L19||:    
        CBNZ      A1, ||$C$L20||        ; [] 
        ; BRANCHCC OCCURS {||$C$L20||}   ; [] |443| 
;* --------------------------------------------------------------------------*
        ADR       A1, $C$SL27           ; [DPU_V7M3_PIPE] |443| 
$C$DW$179	.dwtag  DW_TAG_TI_branch
	.dwattr $C$DW$179, DW_AT_low_pc(0x00)
	.dwattr $C$DW$179, DW_AT_name("_abort_msg")
	.dwattr $C$DW$179, DW_AT_TI_call

        BL        _abort_msg            ; [DPU_V7M3_PIPE] |443| 
        ; CALL OCCURS {_abort_msg }      ; [] |443| 
;* --------------------------------------------------------------------------*
||$C$L20||:    
	.dwendtag $C$DW$170

;* --------------------------------------------------------------------------*
;*   BEGIN LOOP ||$C$L21||
;* --------------------------------------------------------------------------*
||$C$L21||:    
	.dwpsn	file "/vagrant/Q3_SDK_01/sdk_root/source/ti/drivers/net/wifi/slnetif/slwificonn.c",line 421,column 12,is_stmt,isa 1
        ADD       A1, SP, #20           ; [DPU_V7M3_PIPE] |421| 
        ADD       A2, SP, #16           ; [DPU_V7M3_PIPE] |421| 
$C$DW$180	.dwtag  DW_TAG_TI_branch
	.dwattr $C$DW$180, DW_AT_low_pc(0x00)
	.dwattr $C$DW$180, DW_AT_name("DeferredEvent_dequeue")
	.dwattr $C$DW$180, DW_AT_TI_call

        BL        DeferredEvent_dequeue ; [DPU_V7M3_PIPE] |421| 
        ; CALL OCCURS {DeferredEvent_dequeue }  ; [] |421| 
        CMP       A1, #0                ; [DPU_V7M3_PIPE] |421| 
        BPL       ||$C$L14||            ; [DPU_V7M3_PIPE] |421| 
        ; BRANCHCC OCCURS {||$C$L14||}   ; [] |421| 
;* --------------------------------------------------------------------------*
	.dwpsn	file "/vagrant/Q3_SDK_01/sdk_root/source/ti/drivers/net/wifi/slnetif/slwificonn.c",line 445,column 5,is_stmt,isa 1
;----------------------------------------------------------------------
; 445 | return retVal;                                                         
;----------------------------------------------------------------------
        LDR       A1, [SP, #12]         ; [DPU_V7M3_PIPE] |445| 
	.dwpsn	file "/vagrant/Q3_SDK_01/sdk_root/source/ti/drivers/net/wifi/slnetif/slwificonn.c",line 446,column 1,is_stmt,isa 1
        ADD       SP, SP, #36           ; [DPU_V7M3_PIPE] 
	.dwcfi	cfa_offset, 4
$C$DW$181	.dwtag  DW_TAG_TI_branch
	.dwattr $C$DW$181, DW_AT_low_pc(0x00)
	.dwattr $C$DW$181, DW_AT_TI_return

        POP       {PC}                  ; [DPU_V7M3_PIPE] 
	.dwcfi	cfa_offset, 0
        ; BRANCH OCCURS                  ; [] 
	.dwattr $C$DW$166, DW_AT_TI_end_file("/vagrant/Q3_SDK_01/sdk_root/source/ti/drivers/net/wifi/slnetif/slwificonn.c")
	.dwattr $C$DW$166, DW_AT_TI_end_line(0x1be)
	.dwattr $C$DW$166, DW_AT_TI_end_column(0x01)
	.dwendentry
	.dwendtag $C$DW$166

	.sect	".text:ResetNWP"
	.clink
	.thumbfunc ResetNWP
	.thumb

$C$DW$182	.dwtag  DW_TAG_subprogram
	.dwattr $C$DW$182, DW_AT_name("ResetNWP")
	.dwattr $C$DW$182, DW_AT_low_pc(ResetNWP)
	.dwattr $C$DW$182, DW_AT_high_pc(0x00)
	.dwattr $C$DW$182, DW_AT_TI_symbol_name("ResetNWP")
	.dwattr $C$DW$182, DW_AT_type(*$C$DW$T$10)
	.dwattr $C$DW$182, DW_AT_TI_begin_file("/vagrant/Q3_SDK_01/sdk_root/source/ti/drivers/net/wifi/slnetif/slwificonn.c")
	.dwattr $C$DW$182, DW_AT_TI_begin_line(0x1c5)
	.dwattr $C$DW$182, DW_AT_TI_begin_column(0x05)
	.dwattr $C$DW$182, DW_AT_decl_file("/vagrant/Q3_SDK_01/sdk_root/source/ti/drivers/net/wifi/slnetif/slwificonn.c")
	.dwattr $C$DW$182, DW_AT_decl_line(0x1c5)
	.dwattr $C$DW$182, DW_AT_decl_column(0x05)
	.dwattr $C$DW$182, DW_AT_TI_max_frame_size(0x08)
	.dwpsn	file "/vagrant/Q3_SDK_01/sdk_root/source/ti/drivers/net/wifi/slnetif/slwificonn.c",line 454,column 1,is_stmt,address ResetNWP,isa 1

	.dwfde $C$DW$CIE, ResetNWP
;----------------------------------------------------------------------
; 453 | int ResetNWP()                                                         
;----------------------------------------------------------------------

;*****************************************************************************
;* FUNCTION NAME: ResetNWP                                                   *
;*                                                                           *
;*   Regs Modified     : A1,A2,A3,A4,V9,SP,LR,SR                             *
;*   Regs Used         : A1,A2,A3,A4,V9,SP,LR,SR                             *
;*   Local Frame Size  : 0 Args + 4 Auto + 4 Save = 8 byte                   *
;*****************************************************************************
ResetNWP:
;* --------------------------------------------------------------------------*
	.dwcfi	cfa_offset, 0
        PUSH      {A4, LR}              ; [DPU_V7M3_PIPE] 
	.dwcfi	cfa_offset, 8
	.dwcfi	save_reg_to_mem, 14, -4
	.dwcfi	save_reg_to_mem, 3, -8
$C$DW$183	.dwtag  DW_TAG_variable
	.dwattr $C$DW$183, DW_AT_name("retVal")
	.dwattr $C$DW$183, DW_AT_TI_symbol_name("retVal")
	.dwattr $C$DW$183, DW_AT_type(*$C$DW$T$10)
	.dwattr $C$DW$183, DW_AT_location[DW_OP_breg13 0]

	.dwpsn	file "/vagrant/Q3_SDK_01/sdk_root/source/ti/drivers/net/wifi/slnetif/slwificonn.c",line 455,column 16,is_stmt,isa 1
;----------------------------------------------------------------------
; 455 | int retVal = sl_Stop(SL_STOP_TIMEOUT);                                 
;----------------------------------------------------------------------
        MOVS      A1, #200              ; [DPU_V7M3_PIPE] |455| 
$C$DW$184	.dwtag  DW_TAG_TI_branch
	.dwattr $C$DW$184, DW_AT_low_pc(0x00)
	.dwattr $C$DW$184, DW_AT_name("sl_Stop")
	.dwattr $C$DW$184, DW_AT_TI_call

        BL        sl_Stop               ; [DPU_V7M3_PIPE] |455| 
        ; CALL OCCURS {sl_Stop }         ; [] |455| 
        STR       A1, [SP, #0]          ; [DPU_V7M3_PIPE] |455| 
	.dwpsn	file "/vagrant/Q3_SDK_01/sdk_root/source/ti/drivers/net/wifi/slnetif/slwificonn.c",line 456,column 5,is_stmt,isa 1
;----------------------------------------------------------------------
; 456 | assert(retVal == 0);                                                   
;----------------------------------------------------------------------
        LDR       A2, [SP, #0]          ; [DPU_V7M3_PIPE] |456| 
        MOVS      A1, #0                ; [DPU_V7M3_PIPE] |456| 
        CBNZ      A2, ||$C$L22||        ; [] 
        ; BRANCHCC OCCURS {||$C$L22||}   ; [] |456| 
;* --------------------------------------------------------------------------*
        MOVS      A1, #1                ; [DPU_V7M3_PIPE] |456| 
;* --------------------------------------------------------------------------*
||$C$L22||:    
        CBNZ      A1, ||$C$L23||        ; [] 
        ; BRANCHCC OCCURS {||$C$L23||}   ; [] |456| 
;* --------------------------------------------------------------------------*
        ADR       A1, $C$SL28           ; [DPU_V7M3_PIPE] |456| 
$C$DW$185	.dwtag  DW_TAG_TI_branch
	.dwattr $C$DW$185, DW_AT_low_pc(0x00)
	.dwattr $C$DW$185, DW_AT_name("_abort_msg")
	.dwattr $C$DW$185, DW_AT_TI_call

        BL        _abort_msg            ; [DPU_V7M3_PIPE] |456| 
        ; CALL OCCURS {_abort_msg }      ; [] |456| 
;* --------------------------------------------------------------------------*
||$C$L23||:    
	.dwpsn	file "/vagrant/Q3_SDK_01/sdk_root/source/ti/drivers/net/wifi/slnetif/slwificonn.c",line 458,column 5,is_stmt,isa 1
;----------------------------------------------------------------------
; 458 | retVal = sl_Start(0,0,0);                                              
;----------------------------------------------------------------------
        MOVS      A1, #0                ; [DPU_V7M3_PIPE] |458| 
        MOVS      A2, #0                ; [DPU_V7M3_PIPE] |458| 
        MOVS      A3, #0                ; [DPU_V7M3_PIPE] |458| 
$C$DW$186	.dwtag  DW_TAG_TI_branch
	.dwattr $C$DW$186, DW_AT_low_pc(0x00)
	.dwattr $C$DW$186, DW_AT_name("sl_Start")
	.dwattr $C$DW$186, DW_AT_TI_call

        BL        sl_Start              ; [DPU_V7M3_PIPE] |458| 
        ; CALL OCCURS {sl_Start }        ; [] |458| 
        STR       A1, [SP, #0]          ; [DPU_V7M3_PIPE] |458| 
	.dwpsn	file "/vagrant/Q3_SDK_01/sdk_root/source/ti/drivers/net/wifi/slnetif/slwificonn.c",line 459,column 5,is_stmt,isa 1
;----------------------------------------------------------------------
; 459 | assert(retVal >= 0);                                                   
;----------------------------------------------------------------------
        LDR       A2, [SP, #0]          ; [DPU_V7M3_PIPE] |459| 
        MOVS      A1, #0                ; [DPU_V7M3_PIPE] |459| 
        CMP       A2, #0                ; [DPU_V7M3_PIPE] |459| 
        BMI       ||$C$L24||            ; [DPU_V7M3_PIPE] |459| 
        ; BRANCHCC OCCURS {||$C$L24||}   ; [] |459| 
;* --------------------------------------------------------------------------*
        MOVS      A1, #1                ; [DPU_V7M3_PIPE] |459| 
;* --------------------------------------------------------------------------*
||$C$L24||:    
        CBNZ      A1, ||$C$L25||        ; [] 
        ; BRANCHCC OCCURS {||$C$L25||}   ; [] |459| 
;* --------------------------------------------------------------------------*
        ADR       A1, $C$SL29           ; [DPU_V7M3_PIPE] |459| 
$C$DW$187	.dwtag  DW_TAG_TI_branch
	.dwattr $C$DW$187, DW_AT_low_pc(0x00)
	.dwattr $C$DW$187, DW_AT_name("_abort_msg")
	.dwattr $C$DW$187, DW_AT_TI_call

        BL        _abort_msg            ; [DPU_V7M3_PIPE] |459| 
        ; CALL OCCURS {_abort_msg }      ; [] |459| 
;* --------------------------------------------------------------------------*
||$C$L25||:    
	.dwpsn	file "/vagrant/Q3_SDK_01/sdk_root/source/ti/drivers/net/wifi/slnetif/slwificonn.c",line 461,column 5,is_stmt,isa 1
;----------------------------------------------------------------------
; 461 | if(g_ctx->state == SLWIFICONN_STATE_OFF ||                             
; 462 |    g_ctx->state == SLWIFICONN_STATE_IDLE)                              
;----------------------------------------------------------------------
        LDR       A1, $C$CON5           ; [DPU_V7M3_PIPE] |461| 
        LDR       A1, [A1, #0]          ; [DPU_V7M3_PIPE] |461| 
        LDRB      A1, [A1, #0]          ; [DPU_V7M3_PIPE] |461| 
        CBZ       A1, ||$C$L26||        ; [] 
        ; BRANCHCC OCCURS {||$C$L26||}   ; [] |461| 
;* --------------------------------------------------------------------------*
        LDR       A1, $C$CON5           ; [DPU_V7M3_PIPE] |461| 
        LDR       A1, [A1, #0]          ; [DPU_V7M3_PIPE] |461| 
        LDRB      A1, [A1, #0]          ; [DPU_V7M3_PIPE] |461| 
        CMP       A1, #1                ; [DPU_V7M3_PIPE] |461| 
        BNE       ||$C$L27||            ; [DPU_V7M3_PIPE] |461| 
        ; BRANCHCC OCCURS {||$C$L27||}   ; [] |461| 
;* --------------------------------------------------------------------------*
||$C$L26||:    
	.dwpsn	file "/vagrant/Q3_SDK_01/sdk_root/source/ti/drivers/net/wifi/slnetif/slwificonn.c",line 464,column 9,is_stmt,isa 1
;----------------------------------------------------------------------
; 464 | SuspendNWP(false);                                                     
; 466 | else                                                                   
;----------------------------------------------------------------------
        MOVS      A1, #0                ; [DPU_V7M3_PIPE] |464| 
$C$DW$188	.dwtag  DW_TAG_TI_branch
	.dwattr $C$DW$188, DW_AT_low_pc(0x00)
	.dwattr $C$DW$188, DW_AT_name("SuspendNWP")
	.dwattr $C$DW$188, DW_AT_TI_call

        BL        SuspendNWP            ; [DPU_V7M3_PIPE] |464| 
        ; CALL OCCURS {SuspendNWP }      ; [] |464| 
        B         ||$C$L28||            ; [DPU_V7M3_PIPE] 
        ; BRANCH OCCURS {||$C$L28||}     ; [] 
;* --------------------------------------------------------------------------*
||$C$L27||:    
	.dwpsn	file "/vagrant/Q3_SDK_01/sdk_root/source/ti/drivers/net/wifi/slnetif/slwificonn.c",line 468,column 9,is_stmt,isa 1
;----------------------------------------------------------------------
; 468 | ResumeNWP(false);                                                      
;----------------------------------------------------------------------
        MOVS      A1, #0                ; [DPU_V7M3_PIPE] |468| 
$C$DW$189	.dwtag  DW_TAG_TI_branch
	.dwattr $C$DW$189, DW_AT_low_pc(0x00)
	.dwattr $C$DW$189, DW_AT_name("ResumeNWP")
	.dwattr $C$DW$189, DW_AT_TI_call

        BL        ResumeNWP             ; [DPU_V7M3_PIPE] |468| 
        ; CALL OCCURS {ResumeNWP }       ; [] |468| 
;* --------------------------------------------------------------------------*
||$C$L28||:    
	.dwpsn	file "/vagrant/Q3_SDK_01/sdk_root/source/ti/drivers/net/wifi/slnetif/slwificonn.c",line 471,column 5,is_stmt,isa 1
;----------------------------------------------------------------------
; 471 | return retVal;                                                         
;----------------------------------------------------------------------
        LDR       A1, [SP, #0]          ; [DPU_V7M3_PIPE] |471| 
	.dwpsn	file "/vagrant/Q3_SDK_01/sdk_root/source/ti/drivers/net/wifi/slnetif/slwificonn.c",line 472,column 1,is_stmt,isa 1
$C$DW$190	.dwtag  DW_TAG_TI_branch
	.dwattr $C$DW$190, DW_AT_low_pc(0x00)
	.dwattr $C$DW$190, DW_AT_TI_return

        POP       {A4, PC}              ; [DPU_V7M3_PIPE] 
	.dwcfi	cfa_offset, 0
	.dwcfi	restore_reg, 3
        ; BRANCH OCCURS                  ; [] 
	.dwattr $C$DW$182, DW_AT_TI_end_file("/vagrant/Q3_SDK_01/sdk_root/source/ti/drivers/net/wifi/slnetif/slwificonn.c")
	.dwattr $C$DW$182, DW_AT_TI_end_line(0x1d8)
	.dwattr $C$DW$182, DW_AT_TI_end_column(0x01)
	.dwendentry
	.dwendtag $C$DW$182

	.sect	".text:SetRole"
	.clink
	.thumbfunc SetRole
	.thumb

$C$DW$191	.dwtag  DW_TAG_subprogram
	.dwattr $C$DW$191, DW_AT_name("SetRole")
	.dwattr $C$DW$191, DW_AT_low_pc(SetRole)
	.dwattr $C$DW$191, DW_AT_high_pc(0x00)
	.dwattr $C$DW$191, DW_AT_TI_symbol_name("SetRole")
	.dwattr $C$DW$191, DW_AT_type(*$C$DW$T$10)
	.dwattr $C$DW$191, DW_AT_TI_begin_file("/vagrant/Q3_SDK_01/sdk_root/source/ti/drivers/net/wifi/slnetif/slwificonn.c")
	.dwattr $C$DW$191, DW_AT_TI_begin_line(0x1df)
	.dwattr $C$DW$191, DW_AT_TI_begin_column(0x0c)
	.dwattr $C$DW$191, DW_AT_decl_file("/vagrant/Q3_SDK_01/sdk_root/source/ti/drivers/net/wifi/slnetif/slwificonn.c")
	.dwattr $C$DW$191, DW_AT_decl_line(0x1df)
	.dwattr $C$DW$191, DW_AT_decl_column(0x0c)
	.dwattr $C$DW$191, DW_AT_TI_max_frame_size(0x10)
	.dwpsn	file "/vagrant/Q3_SDK_01/sdk_root/source/ti/drivers/net/wifi/slnetif/slwificonn.c",line 480,column 1,is_stmt,address SetRole,isa 1

	.dwfde $C$DW$CIE, SetRole
$C$DW$192	.dwtag  DW_TAG_formal_parameter
	.dwattr $C$DW$192, DW_AT_name("role")
	.dwattr $C$DW$192, DW_AT_TI_symbol_name("role")
	.dwattr $C$DW$192, DW_AT_type(*$C$DW$T$10)
	.dwattr $C$DW$192, DW_AT_location[DW_OP_reg0]

;----------------------------------------------------------------------
; 479 | static int SetRole(SlWlanMode_e role)                                  
;----------------------------------------------------------------------

;*****************************************************************************
;* FUNCTION NAME: SetRole                                                    *
;*                                                                           *
;*   Regs Modified     : A1,A2,A3,A4,V9,SP,LR,SR                             *
;*   Regs Used         : A1,A2,A3,A4,V9,SP,LR,SR                             *
;*   Local Frame Size  : 0 Args + 8 Auto + 4 Save = 12 byte                  *
;*****************************************************************************
SetRole:
;* --------------------------------------------------------------------------*
	.dwcfi	cfa_offset, 0
        PUSH      {A2, A3, A4, LR}      ; [DPU_V7M3_PIPE] 
	.dwcfi	cfa_offset, 16
	.dwcfi	save_reg_to_mem, 14, -4
	.dwcfi	save_reg_to_mem, 3, -8
	.dwcfi	save_reg_to_mem, 2, -12
	.dwcfi	save_reg_to_mem, 1, -16
$C$DW$193	.dwtag  DW_TAG_variable
	.dwattr $C$DW$193, DW_AT_name("retVal")
	.dwattr $C$DW$193, DW_AT_TI_symbol_name("retVal")
	.dwattr $C$DW$193, DW_AT_type(*$C$DW$T$10)
	.dwattr $C$DW$193, DW_AT_location[DW_OP_breg13 0]

$C$DW$194	.dwtag  DW_TAG_variable
	.dwattr $C$DW$194, DW_AT_name("role")
	.dwattr $C$DW$194, DW_AT_TI_symbol_name("role")
	.dwattr $C$DW$194, DW_AT_type(*$C$DW$T$586)
	.dwattr $C$DW$194, DW_AT_location[DW_OP_breg13 4]

        STRB      A1, [SP, #4]          ; [DPU_V7M3_PIPE] |480| 
	.dwpsn	file "/vagrant/Q3_SDK_01/sdk_root/source/ti/drivers/net/wifi/slnetif/slwificonn.c",line 481,column 16,is_stmt,isa 1
;----------------------------------------------------------------------
; 481 | int retVal = 0;                                                        
;----------------------------------------------------------------------
        MOVS      A1, #0                ; [DPU_V7M3_PIPE] |481| 
        STR       A1, [SP, #0]          ; [DPU_V7M3_PIPE] |481| 
	.dwpsn	file "/vagrant/Q3_SDK_01/sdk_root/source/ti/drivers/net/wifi/slnetif/slwificonn.c",line 482,column 5,is_stmt,isa 1
;----------------------------------------------------------------------
; 482 | if(role != g_ctx->role)                                                
;----------------------------------------------------------------------
        LDR       A1, $C$CON6           ; [DPU_V7M3_PIPE] |482| 
        LDR       A1, [A1, #0]          ; [DPU_V7M3_PIPE] |482| 
        LDRB      A2, [SP, #4]          ; [DPU_V7M3_PIPE] |482| 
        LDRB      A1, [A1, #21]         ; [DPU_V7M3_PIPE] |482| 
        CMP       A1, A2                ; [DPU_V7M3_PIPE] |482| 
        BEQ       ||$C$L30||            ; [DPU_V7M3_PIPE] |482| 
        ; BRANCHCC OCCURS {||$C$L30||}   ; [] |482| 
;* --------------------------------------------------------------------------*
	.dwpsn	file "/vagrant/Q3_SDK_01/sdk_root/source/ti/drivers/net/wifi/slnetif/slwificonn.c",line 487,column 9,is_stmt,isa 1
;----------------------------------------------------------------------
; 487 | sl_WlanSetMode(role);                                                  
;----------------------------------------------------------------------
        LDRB      A1, [SP, #4]          ; [DPU_V7M3_PIPE] |487| 
$C$DW$195	.dwtag  DW_TAG_TI_branch
	.dwattr $C$DW$195, DW_AT_low_pc(0x00)
	.dwattr $C$DW$195, DW_AT_name("sl_WlanSetMode")
	.dwattr $C$DW$195, DW_AT_TI_call

        BL        sl_WlanSetMode        ; [DPU_V7M3_PIPE] |487| 
        ; CALL OCCURS {sl_WlanSetMode }  ; [] |487| 
	.dwpsn	file "/vagrant/Q3_SDK_01/sdk_root/source/ti/drivers/net/wifi/slnetif/slwificonn.c",line 488,column 9,is_stmt,isa 1
;----------------------------------------------------------------------
; 488 | g_ctx->role = ResetNWP();                                              
;----------------------------------------------------------------------
$C$DW$196	.dwtag  DW_TAG_TI_branch
	.dwattr $C$DW$196, DW_AT_low_pc(0x00)
	.dwattr $C$DW$196, DW_AT_name("ResetNWP")
	.dwattr $C$DW$196, DW_AT_TI_call

        BL        ResetNWP              ; [DPU_V7M3_PIPE] |488| 
        ; CALL OCCURS {ResetNWP }        ; [] |488| 
        LDR       A2, $C$CON6           ; [DPU_V7M3_PIPE] |488| 
        LDR       A2, [A2, #0]          ; [DPU_V7M3_PIPE] |488| 
        STRB      A1, [A2, #21]         ; [DPU_V7M3_PIPE] |488| 
	.dwpsn	file "/vagrant/Q3_SDK_01/sdk_root/source/ti/drivers/net/wifi/slnetif/slwificonn.c",line 489,column 9,is_stmt,isa 1
;----------------------------------------------------------------------
; 489 | assert(role == g_ctx->role);                                           
;----------------------------------------------------------------------
        LDR       A1, $C$CON6           ; [DPU_V7M3_PIPE] |489| 
        LDR       A1, [A1, #0]          ; [DPU_V7M3_PIPE] |489| 
        LDRB      A3, [SP, #4]          ; [DPU_V7M3_PIPE] |489| 
        LDRB      A2, [A1, #21]         ; [DPU_V7M3_PIPE] |489| 
        MOVS      A1, #0                ; [DPU_V7M3_PIPE] |489| 
        CMP       A2, A3                ; [DPU_V7M3_PIPE] |489| 
        BNE       ||$C$L29||            ; [DPU_V7M3_PIPE] |489| 
        ; BRANCHCC OCCURS {||$C$L29||}   ; [] |489| 
;* --------------------------------------------------------------------------*
        MOVS      A1, #1                ; [DPU_V7M3_PIPE] |489| 
;* --------------------------------------------------------------------------*
||$C$L29||:    
        CBNZ      A1, ||$C$L30||        ; [] 
        ; BRANCHCC OCCURS {||$C$L30||}   ; [] |489| 
;* --------------------------------------------------------------------------*
        ADR       A1, $C$SL30           ; [DPU_V7M3_PIPE] |489| 
$C$DW$197	.dwtag  DW_TAG_TI_branch
	.dwattr $C$DW$197, DW_AT_low_pc(0x00)
	.dwattr $C$DW$197, DW_AT_name("_abort_msg")
	.dwattr $C$DW$197, DW_AT_TI_call

        BL        _abort_msg            ; [DPU_V7M3_PIPE] |489| 
        ; CALL OCCURS {_abort_msg }      ; [] |489| 
;* --------------------------------------------------------------------------*
||$C$L30||:    
	.dwpsn	file "/vagrant/Q3_SDK_01/sdk_root/source/ti/drivers/net/wifi/slnetif/slwificonn.c",line 491,column 5,is_stmt,isa 1
;----------------------------------------------------------------------
; 491 | return retVal;                                                         
;----------------------------------------------------------------------
        LDR       A1, [SP, #0]          ; [DPU_V7M3_PIPE] |491| 
	.dwpsn	file "/vagrant/Q3_SDK_01/sdk_root/source/ti/drivers/net/wifi/slnetif/slwificonn.c",line 492,column 1,is_stmt,isa 1
$C$DW$198	.dwtag  DW_TAG_TI_branch
	.dwattr $C$DW$198, DW_AT_low_pc(0x00)
	.dwattr $C$DW$198, DW_AT_TI_return

        POP       {A2, A3, A4, PC}      ; [DPU_V7M3_PIPE] 
	.dwcfi	cfa_offset, 0
	.dwcfi	restore_reg, 3
	.dwcfi	restore_reg, 2
	.dwcfi	restore_reg, 1
        ; BRANCH OCCURS                  ; [] 
	.dwattr $C$DW$191, DW_AT_TI_end_file("/vagrant/Q3_SDK_01/sdk_root/source/ti/drivers/net/wifi/slnetif/slwificonn.c")
	.dwattr $C$DW$191, DW_AT_TI_end_line(0x1ec)
	.dwattr $C$DW$191, DW_AT_TI_end_column(0x01)
	.dwendentry
	.dwendtag $C$DW$191

	.sect	".text:Deinit"
	.clink
	.thumbfunc Deinit
	.thumb

$C$DW$199	.dwtag  DW_TAG_subprogram
	.dwattr $C$DW$199, DW_AT_name("Deinit")
	.dwattr $C$DW$199, DW_AT_low_pc(Deinit)
	.dwattr $C$DW$199, DW_AT_high_pc(0x00)
	.dwattr $C$DW$199, DW_AT_TI_symbol_name("Deinit")
	.dwattr $C$DW$199, DW_AT_type(*$C$DW$T$10)
	.dwattr $C$DW$199, DW_AT_TI_begin_file("/vagrant/Q3_SDK_01/sdk_root/source/ti/drivers/net/wifi/slnetif/slwificonn.c")
	.dwattr $C$DW$199, DW_AT_TI_begin_line(0x1f4)
	.dwattr $C$DW$199, DW_AT_TI_begin_column(0x05)
	.dwattr $C$DW$199, DW_AT_decl_file("/vagrant/Q3_SDK_01/sdk_root/source/ti/drivers/net/wifi/slnetif/slwificonn.c")
	.dwattr $C$DW$199, DW_AT_decl_line(0x1f4)
	.dwattr $C$DW$199, DW_AT_decl_column(0x05)
	.dwattr $C$DW$199, DW_AT_TI_max_frame_size(0x08)
	.dwpsn	file "/vagrant/Q3_SDK_01/sdk_root/source/ti/drivers/net/wifi/slnetif/slwificonn.c",line 501,column 1,is_stmt,address Deinit,isa 1

	.dwfde $C$DW$CIE, Deinit
;----------------------------------------------------------------------
; 500 | int Deinit()                                                           
;----------------------------------------------------------------------

;*****************************************************************************
;* FUNCTION NAME: Deinit                                                     *
;*                                                                           *
;*   Regs Modified     : A1,A2,A3,A4,V9,SP,LR,SR                             *
;*   Regs Used         : A1,A2,A3,A4,V9,SP,LR,SR                             *
;*   Local Frame Size  : 0 Args + 0 Auto + 4 Save = 4 byte                   *
;*****************************************************************************
Deinit:
;* --------------------------------------------------------------------------*
	.dwcfi	cfa_offset, 0
        PUSH      {A4, LR}              ; [DPU_V7M3_PIPE] 
	.dwcfi	cfa_offset, 8
	.dwcfi	save_reg_to_mem, 14, -4
	.dwcfi	save_reg_to_mem, 3, -8
	.dwpsn	file "/vagrant/Q3_SDK_01/sdk_root/source/ti/drivers/net/wifi/slnetif/slwificonn.c",line 502,column 5,is_stmt,isa 1
;----------------------------------------------------------------------
; 502 | sl_UnregisterLibsEventHandler(SL_EVENT_HDL_WLAN, &SlEventHandlers[0]); 
;----------------------------------------------------------------------
        LDR       A2, $C$CON7           ; [DPU_V7M3_PIPE] |502| 
        MOVS      A1, #2                ; [DPU_V7M3_PIPE] |502| 
$C$DW$200	.dwtag  DW_TAG_TI_branch
	.dwattr $C$DW$200, DW_AT_low_pc(0x00)
	.dwattr $C$DW$200, DW_AT_name("sl_UnregisterLibsEventHandler")
	.dwattr $C$DW$200, DW_AT_TI_call

        BL        sl_UnregisterLibsEventHandler ; [DPU_V7M3_PIPE] |502| 
        ; CALL OCCURS {sl_UnregisterLibsEventHandler }  ; [] |502| 
	.dwpsn	file "/vagrant/Q3_SDK_01/sdk_root/source/ti/drivers/net/wifi/slnetif/slwificonn.c",line 503,column 5,is_stmt,isa 1
;----------------------------------------------------------------------
; 503 | sl_UnregisterLibsEventHandler(SL_EVENT_HDL_NETAPP, &SlEventHandlers[1])
;     | ;                                                                      
;----------------------------------------------------------------------
        LDR       A2, $C$CON8           ; [DPU_V7M3_PIPE] |503| 
        MOVS      A1, #3                ; [DPU_V7M3_PIPE] |503| 
$C$DW$201	.dwtag  DW_TAG_TI_branch
	.dwattr $C$DW$201, DW_AT_low_pc(0x00)
	.dwattr $C$DW$201, DW_AT_name("sl_UnregisterLibsEventHandler")
	.dwattr $C$DW$201, DW_AT_TI_call

        BL        sl_UnregisterLibsEventHandler ; [DPU_V7M3_PIPE] |503| 
        ; CALL OCCURS {sl_UnregisterLibsEventHandler }  ; [] |503| 
	.dwpsn	file "/vagrant/Q3_SDK_01/sdk_root/source/ti/drivers/net/wifi/slnetif/slwificonn.c",line 504,column 5,is_stmt,isa 1
;----------------------------------------------------------------------
; 504 | sl_UnregisterLibsEventHandler(SL_EVENT_HDL_DEVICE_GENERAL, &SlEventHand
;     | lers[2]);                                                              
;----------------------------------------------------------------------
        LDR       A2, $C$CON9           ; [DPU_V7M3_PIPE] |504| 
        MOVS      A1, #1                ; [DPU_V7M3_PIPE] |504| 
$C$DW$202	.dwtag  DW_TAG_TI_branch
	.dwattr $C$DW$202, DW_AT_low_pc(0x00)
	.dwattr $C$DW$202, DW_AT_name("sl_UnregisterLibsEventHandler")
	.dwattr $C$DW$202, DW_AT_TI_call

        BL        sl_UnregisterLibsEventHandler ; [DPU_V7M3_PIPE] |504| 
        ; CALL OCCURS {sl_UnregisterLibsEventHandler }  ; [] |504| 
	.dwpsn	file "/vagrant/Q3_SDK_01/sdk_root/source/ti/drivers/net/wifi/slnetif/slwificonn.c",line 506,column 5,is_stmt,isa 1
;----------------------------------------------------------------------
; 506 | mq_close(g_ctx->DeferredEventQ);                                       
;----------------------------------------------------------------------
        LDR       A1, $C$CON10          ; [DPU_V7M3_PIPE] |506| 
        LDR       A1, [A1, #0]          ; [DPU_V7M3_PIPE] |506| 
        LDR       A1, [A1, #8]          ; [DPU_V7M3_PIPE] |506| 
$C$DW$203	.dwtag  DW_TAG_TI_branch
	.dwattr $C$DW$203, DW_AT_low_pc(0x00)
	.dwattr $C$DW$203, DW_AT_name("mq_close")
	.dwattr $C$DW$203, DW_AT_TI_call

        BL        mq_close              ; [DPU_V7M3_PIPE] |506| 
        ; CALL OCCURS {mq_close }        ; [] |506| 
	.dwpsn	file "/vagrant/Q3_SDK_01/sdk_root/source/ti/drivers/net/wifi/slnetif/slwificonn.c",line 507,column 5,is_stmt,isa 1
;----------------------------------------------------------------------
; 507 | mq_close(g_ctx->eventQ);                                               
;----------------------------------------------------------------------
        LDR       A1, $C$CON10          ; [DPU_V7M3_PIPE] |507| 
        LDR       A1, [A1, #0]          ; [DPU_V7M3_PIPE] |507| 
        LDR       A1, [A1, #4]          ; [DPU_V7M3_PIPE] |507| 
$C$DW$204	.dwtag  DW_TAG_TI_branch
	.dwattr $C$DW$204, DW_AT_low_pc(0x00)
	.dwattr $C$DW$204, DW_AT_name("mq_close")
	.dwattr $C$DW$204, DW_AT_TI_call

        BL        mq_close              ; [DPU_V7M3_PIPE] |507| 
        ; CALL OCCURS {mq_close }        ; [] |507| 
	.dwpsn	file "/vagrant/Q3_SDK_01/sdk_root/source/ti/drivers/net/wifi/slnetif/slwificonn.c",line 509,column 5,is_stmt,isa 1
;----------------------------------------------------------------------
; 509 | timer_delete(g_ctx->timer);                                            
;----------------------------------------------------------------------
        LDR       A1, $C$CON10          ; [DPU_V7M3_PIPE] |509| 
        LDR       A1, [A1, #0]          ; [DPU_V7M3_PIPE] |509| 
        LDR       A1, [A1, #12]         ; [DPU_V7M3_PIPE] |509| 
$C$DW$205	.dwtag  DW_TAG_TI_branch
	.dwattr $C$DW$205, DW_AT_low_pc(0x00)
	.dwattr $C$DW$205, DW_AT_name("timer_delete")
	.dwattr $C$DW$205, DW_AT_TI_call

        BL        timer_delete          ; [DPU_V7M3_PIPE] |509| 
        ; CALL OCCURS {timer_delete }    ; [] |509| 
	.dwpsn	file "/vagrant/Q3_SDK_01/sdk_root/source/ti/drivers/net/wifi/slnetif/slwificonn.c",line 511,column 5,is_stmt,isa 1
;----------------------------------------------------------------------
; 511 | if(g_ctx->pNonPersistentProfile)                                       
;----------------------------------------------------------------------
        LDR       A1, $C$CON10          ; [DPU_V7M3_PIPE] |511| 
        LDR       A1, [A1, #0]          ; [DPU_V7M3_PIPE] |511| 
        LDR       A1, [A1, #112]        ; [DPU_V7M3_PIPE] |511| 
        CBZ       A1, ||$C$L31||        ; [] 
        ; BRANCHCC OCCURS {||$C$L31||}   ; [] |511| 
;* --------------------------------------------------------------------------*
	.dwpsn	file "/vagrant/Q3_SDK_01/sdk_root/source/ti/drivers/net/wifi/slnetif/slwificonn.c",line 513,column 9,is_stmt,isa 1
;----------------------------------------------------------------------
; 513 | free(g_ctx->pNonPersistentProfile);                                    
;----------------------------------------------------------------------
        LDR       A1, $C$CON10          ; [DPU_V7M3_PIPE] |513| 
        LDR       A1, [A1, #0]          ; [DPU_V7M3_PIPE] |513| 
        LDR       A1, [A1, #112]        ; [DPU_V7M3_PIPE] |513| 
$C$DW$206	.dwtag  DW_TAG_TI_branch
	.dwattr $C$DW$206, DW_AT_low_pc(0x00)
	.dwattr $C$DW$206, DW_AT_name("free")
	.dwattr $C$DW$206, DW_AT_TI_call

        BL        free                  ; [DPU_V7M3_PIPE] |513| 
        ; CALL OCCURS {free }            ; [] |513| 
;* --------------------------------------------------------------------------*
||$C$L31||:    
	.dwpsn	file "/vagrant/Q3_SDK_01/sdk_root/source/ti/drivers/net/wifi/slnetif/slwificonn.c",line 515,column 5,is_stmt,isa 1
;----------------------------------------------------------------------
; 515 | sl_Stop(SL_STOP_TIMEOUT);                                              
;----------------------------------------------------------------------
        MOVS      A1, #200              ; [DPU_V7M3_PIPE] |515| 
$C$DW$207	.dwtag  DW_TAG_TI_branch
	.dwattr $C$DW$207, DW_AT_low_pc(0x00)
	.dwattr $C$DW$207, DW_AT_name("sl_Stop")
	.dwattr $C$DW$207, DW_AT_TI_call

        BL        sl_Stop               ; [DPU_V7M3_PIPE] |515| 
        ; CALL OCCURS {sl_Stop }         ; [] |515| 
	.dwpsn	file "/vagrant/Q3_SDK_01/sdk_root/source/ti/drivers/net/wifi/slnetif/slwificonn.c",line 517,column 5,is_stmt,isa 1
;----------------------------------------------------------------------
; 517 | free(g_ctx);                                                           
;----------------------------------------------------------------------
        LDR       A1, $C$CON10          ; [DPU_V7M3_PIPE] |517| 
        LDR       A1, [A1, #0]          ; [DPU_V7M3_PIPE] |517| 
$C$DW$208	.dwtag  DW_TAG_TI_branch
	.dwattr $C$DW$208, DW_AT_low_pc(0x00)
	.dwattr $C$DW$208, DW_AT_name("free")
	.dwattr $C$DW$208, DW_AT_TI_call

        BL        free                  ; [DPU_V7M3_PIPE] |517| 
        ; CALL OCCURS {free }            ; [] |517| 
	.dwpsn	file "/vagrant/Q3_SDK_01/sdk_root/source/ti/drivers/net/wifi/slnetif/slwificonn.c",line 518,column 5,is_stmt,isa 1
;----------------------------------------------------------------------
; 518 | g_ctx = NULL;                                                          
;----------------------------------------------------------------------
        LDR       A2, $C$CON10          ; [DPU_V7M3_PIPE] |518| 
        MOVS      A1, #0                ; [DPU_V7M3_PIPE] |518| 
        STR       A1, [A2, #0]          ; [DPU_V7M3_PIPE] |518| 
	.dwpsn	file "/vagrant/Q3_SDK_01/sdk_root/source/ti/drivers/net/wifi/slnetif/slwificonn.c",line 520,column 5,is_stmt,isa 1
;----------------------------------------------------------------------
; 520 | CRITICAL_SECTION_EXIT();                                               
;----------------------------------------------------------------------
        LDR       A1, $C$CON11          ; [DPU_V7M3_PIPE] |520| 
$C$DW$209	.dwtag  DW_TAG_TI_branch
	.dwattr $C$DW$209, DW_AT_low_pc(0x00)
	.dwattr $C$DW$209, DW_AT_name("sem_post")
	.dwattr $C$DW$209, DW_AT_TI_call

        BL        sem_post              ; [DPU_V7M3_PIPE] |520| 
        ; CALL OCCURS {sem_post }        ; [] |520| 
	.dwpsn	file "/vagrant/Q3_SDK_01/sdk_root/source/ti/drivers/net/wifi/slnetif/slwificonn.c",line 521,column 5,is_stmt,isa 1
;----------------------------------------------------------------------
; 521 | CRITICAL_SECTION_DESTROY();                                            
;----------------------------------------------------------------------
        LDR       A1, $C$CON11          ; [DPU_V7M3_PIPE] |521| 
$C$DW$210	.dwtag  DW_TAG_TI_branch
	.dwattr $C$DW$210, DW_AT_low_pc(0x00)
	.dwattr $C$DW$210, DW_AT_name("sem_destroy")
	.dwattr $C$DW$210, DW_AT_TI_call

        BL        sem_destroy           ; [DPU_V7M3_PIPE] |521| 
        ; CALL OCCURS {sem_destroy }     ; [] |521| 
	.dwpsn	file "/vagrant/Q3_SDK_01/sdk_root/source/ti/drivers/net/wifi/slnetif/slwificonn.c",line 523,column 5,is_stmt,isa 1
;----------------------------------------------------------------------
; 523 | return 0;                                                              
;----------------------------------------------------------------------
        MOVS      A1, #0                ; [DPU_V7M3_PIPE] |523| 
	.dwpsn	file "/vagrant/Q3_SDK_01/sdk_root/source/ti/drivers/net/wifi/slnetif/slwificonn.c",line 524,column 1,is_stmt,isa 1
$C$DW$211	.dwtag  DW_TAG_TI_branch
	.dwattr $C$DW$211, DW_AT_low_pc(0x00)
	.dwattr $C$DW$211, DW_AT_TI_return

        POP       {A4, PC}              ; [DPU_V7M3_PIPE] 
	.dwcfi	cfa_offset, 0
	.dwcfi	restore_reg, 3
        ; BRANCH OCCURS                  ; [] 
	.dwattr $C$DW$199, DW_AT_TI_end_file("/vagrant/Q3_SDK_01/sdk_root/source/ti/drivers/net/wifi/slnetif/slwificonn.c")
	.dwattr $C$DW$199, DW_AT_TI_end_line(0x20c)
	.dwattr $C$DW$199, DW_AT_TI_end_column(0x01)
	.dwendentry
	.dwendtag $C$DW$199

	.sect	".text:InitNWPConnPolicy"
	.clink
	.thumbfunc InitNWPConnPolicy
	.thumb

$C$DW$212	.dwtag  DW_TAG_subprogram
	.dwattr $C$DW$212, DW_AT_name("InitNWPConnPolicy")
	.dwattr $C$DW$212, DW_AT_low_pc(InitNWPConnPolicy)
	.dwattr $C$DW$212, DW_AT_high_pc(0x00)
	.dwattr $C$DW$212, DW_AT_TI_symbol_name("InitNWPConnPolicy")
	.dwattr $C$DW$212, DW_AT_type(*$C$DW$T$10)
	.dwattr $C$DW$212, DW_AT_TI_begin_file("/vagrant/Q3_SDK_01/sdk_root/source/ti/drivers/net/wifi/slnetif/slwificonn.c")
	.dwattr $C$DW$212, DW_AT_TI_begin_line(0x213)
	.dwattr $C$DW$212, DW_AT_TI_begin_column(0x0c)
	.dwattr $C$DW$212, DW_AT_decl_file("/vagrant/Q3_SDK_01/sdk_root/source/ti/drivers/net/wifi/slnetif/slwificonn.c")
	.dwattr $C$DW$212, DW_AT_decl_line(0x213)
	.dwattr $C$DW$212, DW_AT_decl_column(0x0c)
	.dwattr $C$DW$212, DW_AT_TI_max_frame_size(0x10)
	.dwpsn	file "/vagrant/Q3_SDK_01/sdk_root/source/ti/drivers/net/wifi/slnetif/slwificonn.c",line 532,column 1,is_stmt,address InitNWPConnPolicy,isa 1

	.dwfde $C$DW$CIE, InitNWPConnPolicy
;----------------------------------------------------------------------
; 531 | static int InitNWPConnPolicy()                                         
; 533 | int retVal;                                                            
;----------------------------------------------------------------------

;*****************************************************************************
;* FUNCTION NAME: InitNWPConnPolicy                                          *
;*                                                                           *
;*   Regs Modified     : A1,A2,A3,A4,V9,SP,LR,SR                             *
;*   Regs Used         : A1,A2,A3,A4,V9,SP,LR,SR                             *
;*   Local Frame Size  : 0 Args + 8 Auto + 4 Save = 12 byte                  *
;*****************************************************************************
InitNWPConnPolicy:
;* --------------------------------------------------------------------------*
	.dwcfi	cfa_offset, 0
        PUSH      {A2, A3, A4, LR}      ; [DPU_V7M3_PIPE] 
	.dwcfi	cfa_offset, 16
	.dwcfi	save_reg_to_mem, 14, -4
	.dwcfi	save_reg_to_mem, 3, -8
	.dwcfi	save_reg_to_mem, 2, -12
	.dwcfi	save_reg_to_mem, 1, -16
$C$DW$213	.dwtag  DW_TAG_variable
	.dwattr $C$DW$213, DW_AT_name("retVal")
	.dwattr $C$DW$213, DW_AT_TI_symbol_name("retVal")
	.dwattr $C$DW$213, DW_AT_type(*$C$DW$T$10)
	.dwattr $C$DW$213, DW_AT_location[DW_OP_breg13 0]

$C$DW$214	.dwtag  DW_TAG_variable
	.dwattr $C$DW$214, DW_AT_name("policy")
	.dwattr $C$DW$214, DW_AT_TI_symbol_name("policy")
	.dwattr $C$DW$214, DW_AT_type(*$C$DW$T$71)
	.dwattr $C$DW$214, DW_AT_location[DW_OP_breg13 4]

$C$DW$215	.dwtag  DW_TAG_variable
	.dwattr $C$DW$215, DW_AT_name("length")
	.dwattr $C$DW$215, DW_AT_TI_symbol_name("length")
	.dwattr $C$DW$215, DW_AT_type(*$C$DW$T$71)
	.dwattr $C$DW$215, DW_AT_location[DW_OP_breg13 5]

	.dwpsn	file "/vagrant/Q3_SDK_01/sdk_root/source/ti/drivers/net/wifi/slnetif/slwificonn.c",line 534,column 20,is_stmt,isa 1
;----------------------------------------------------------------------
; 534 | uint8_t policy = 0;                                                    
;----------------------------------------------------------------------
        MOVS      A1, #0                ; [DPU_V7M3_PIPE] |534| 
        STRB      A1, [SP, #4]          ; [DPU_V7M3_PIPE] |534| 
	.dwpsn	file "/vagrant/Q3_SDK_01/sdk_root/source/ti/drivers/net/wifi/slnetif/slwificonn.c",line 535,column 20,is_stmt,isa 1
;----------------------------------------------------------------------
; 535 | uint8_t length = 1;                                                    
;----------------------------------------------------------------------
        MOVS      A1, #1                ; [DPU_V7M3_PIPE] |535| 
        STRB      A1, [SP, #5]          ; [DPU_V7M3_PIPE] |535| 
	.dwpsn	file "/vagrant/Q3_SDK_01/sdk_root/source/ti/drivers/net/wifi/slnetif/slwificonn.c",line 537,column 5,is_stmt,isa 1
;----------------------------------------------------------------------
; 537 | retVal = sl_WlanPolicyGet(SL_WLAN_POLICY_CONNECTION ,&policy, NULL, &le
;     | ngth);                                                                 
;----------------------------------------------------------------------
        MOVS      A3, #0                ; [DPU_V7M3_PIPE] |537| 
        MOVS      A1, #16               ; [DPU_V7M3_PIPE] |537| 
        ADD       A2, SP, #4            ; [DPU_V7M3_PIPE] |537| 
        ADD       A4, SP, #5            ; [DPU_V7M3_PIPE] |537| 
$C$DW$216	.dwtag  DW_TAG_TI_branch
	.dwattr $C$DW$216, DW_AT_low_pc(0x00)
	.dwattr $C$DW$216, DW_AT_name("sl_WlanPolicyGet")
	.dwattr $C$DW$216, DW_AT_TI_call

        BL        sl_WlanPolicyGet      ; [DPU_V7M3_PIPE] |537| 
        ; CALL OCCURS {sl_WlanPolicyGet }  ; [] |537| 
        STR       A1, [SP, #0]          ; [DPU_V7M3_PIPE] |537| 
	.dwpsn	file "/vagrant/Q3_SDK_01/sdk_root/source/ti/drivers/net/wifi/slnetif/slwificonn.c",line 538,column 5,is_stmt,isa 1
;----------------------------------------------------------------------
; 538 | if(retVal == 0)                                                        
;----------------------------------------------------------------------
        LDR       A1, [SP, #0]          ; [DPU_V7M3_PIPE] |538| 
        CBNZ      A1, ||$C$L32||        ; [] 
        ; BRANCHCC OCCURS {||$C$L32||}   ; [] |538| 
;* --------------------------------------------------------------------------*
	.dwpsn	file "/vagrant/Q3_SDK_01/sdk_root/source/ti/drivers/net/wifi/slnetif/slwificonn.c",line 542,column 9,is_stmt,isa 1
;----------------------------------------------------------------------
; 542 | g_ctx->enabledPolicy = (policy | SL_WLAN_CONNECTION_POLICY(1,0,0,0)) &
;     | ~(SL_WLAN_CONNECTION_POLICY(0,0,0,1));                                 
;----------------------------------------------------------------------
        LDR       A2, $C$CON12          ; [DPU_V7M3_PIPE] |542| 
        LDRB      A1, [SP, #4]          ; [DPU_V7M3_PIPE] |542| 
        LDR       A2, [A2, #0]          ; [DPU_V7M3_PIPE] |542| 
        ORR       A1, A1, #1            ; [DPU_V7M3_PIPE] |542| 
        BIC       A1, A1, #32           ; [DPU_V7M3_PIPE] |542| 
        STRB      A1, [A2, #118]        ; [DPU_V7M3_PIPE] |542| 
	.dwpsn	file "/vagrant/Q3_SDK_01/sdk_root/source/ti/drivers/net/wifi/slnetif/slwificonn.c",line 545,column 9,is_stmt,isa 1
;----------------------------------------------------------------------
; 545 | g_ctx->disabledPolicy = policy & ~(SL_WLAN_CONNECTION_POLICY(1,1,0,1));
;----------------------------------------------------------------------
        LDR       A2, $C$CON12          ; [DPU_V7M3_PIPE] |545| 
        LDRB      A1, [SP, #4]          ; [DPU_V7M3_PIPE] |545| 
        LDR       A2, [A2, #0]          ; [DPU_V7M3_PIPE] |545| 
        BIC       A1, A1, #35           ; [DPU_V7M3_PIPE] |545| 
        STRB      A1, [A2, #117]        ; [DPU_V7M3_PIPE] |545| 
;* --------------------------------------------------------------------------*
||$C$L32||:    
	.dwpsn	file "/vagrant/Q3_SDK_01/sdk_root/source/ti/drivers/net/wifi/slnetif/slwificonn.c",line 547,column 5,is_stmt,isa 1
;----------------------------------------------------------------------
; 547 | return retVal;                                                         
;----------------------------------------------------------------------
        LDR       A1, [SP, #0]          ; [DPU_V7M3_PIPE] |547| 
	.dwpsn	file "/vagrant/Q3_SDK_01/sdk_root/source/ti/drivers/net/wifi/slnetif/slwificonn.c",line 548,column 1,is_stmt,isa 1
$C$DW$217	.dwtag  DW_TAG_TI_branch
	.dwattr $C$DW$217, DW_AT_low_pc(0x00)
	.dwattr $C$DW$217, DW_AT_TI_return

        POP       {A2, A3, A4, PC}      ; [DPU_V7M3_PIPE] 
	.dwcfi	cfa_offset, 0
	.dwcfi	restore_reg, 3
	.dwcfi	restore_reg, 2
	.dwcfi	restore_reg, 1
        ; BRANCH OCCURS                  ; [] 
	.dwattr $C$DW$212, DW_AT_TI_end_file("/vagrant/Q3_SDK_01/sdk_root/source/ti/drivers/net/wifi/slnetif/slwificonn.c")
	.dwattr $C$DW$212, DW_AT_TI_end_line(0x224)
	.dwattr $C$DW$212, DW_AT_TI_end_column(0x01)
	.dwendentry
	.dwendtag $C$DW$212

	.sect	".text:SuspendNWP"
	.clink
	.thumbfunc SuspendNWP
	.thumb

$C$DW$218	.dwtag  DW_TAG_subprogram
	.dwattr $C$DW$218, DW_AT_name("SuspendNWP")
	.dwattr $C$DW$218, DW_AT_low_pc(SuspendNWP)
	.dwattr $C$DW$218, DW_AT_high_pc(0x00)
	.dwattr $C$DW$218, DW_AT_TI_symbol_name("SuspendNWP")
	.dwattr $C$DW$218, DW_AT_type(*$C$DW$T$10)
	.dwattr $C$DW$218, DW_AT_TI_begin_file("/vagrant/Q3_SDK_01/sdk_root/source/ti/drivers/net/wifi/slnetif/slwificonn.c")
	.dwattr $C$DW$218, DW_AT_TI_begin_line(0x22c)
	.dwattr $C$DW$218, DW_AT_TI_begin_column(0x0c)
	.dwattr $C$DW$218, DW_AT_decl_file("/vagrant/Q3_SDK_01/sdk_root/source/ti/drivers/net/wifi/slnetif/slwificonn.c")
	.dwattr $C$DW$218, DW_AT_decl_line(0x22c)
	.dwattr $C$DW$218, DW_AT_decl_column(0x0c)
	.dwattr $C$DW$218, DW_AT_TI_max_frame_size(0x10)
	.dwpsn	file "/vagrant/Q3_SDK_01/sdk_root/source/ti/drivers/net/wifi/slnetif/slwificonn.c",line 557,column 1,is_stmt,address SuspendNWP,isa 1

	.dwfde $C$DW$CIE, SuspendNWP
$C$DW$219	.dwtag  DW_TAG_formal_parameter
	.dwattr $C$DW$219, DW_AT_name("bNotify")
	.dwattr $C$DW$219, DW_AT_TI_symbol_name("bNotify")
	.dwattr $C$DW$219, DW_AT_type(*$C$DW$T$10)
	.dwattr $C$DW$219, DW_AT_location[DW_OP_reg0]

;----------------------------------------------------------------------
; 556 | static int SuspendNWP(bool bNotify)                                    
;----------------------------------------------------------------------

;*****************************************************************************
;* FUNCTION NAME: SuspendNWP                                                 *
;*                                                                           *
;*   Regs Modified     : A1,A2,A3,A4,V9,SP,LR,SR                             *
;*   Regs Used         : A1,A2,A3,A4,V9,SP,LR,SR                             *
;*   Local Frame Size  : 0 Args + 12 Auto + 4 Save = 16 byte                 *
;*****************************************************************************
SuspendNWP:
;* --------------------------------------------------------------------------*
	.dwcfi	cfa_offset, 0
        PUSH      {A2, A3, A4, LR}      ; [DPU_V7M3_PIPE] 
	.dwcfi	cfa_offset, 16
	.dwcfi	save_reg_to_mem, 14, -4
	.dwcfi	save_reg_to_mem, 3, -8
	.dwcfi	save_reg_to_mem, 2, -12
	.dwcfi	save_reg_to_mem, 1, -16
$C$DW$220	.dwtag  DW_TAG_variable
	.dwattr $C$DW$220, DW_AT_name("retVal")
	.dwattr $C$DW$220, DW_AT_TI_symbol_name("retVal")
	.dwattr $C$DW$220, DW_AT_type(*$C$DW$T$10)
	.dwattr $C$DW$220, DW_AT_location[DW_OP_breg13 0]

$C$DW$221	.dwtag  DW_TAG_variable
	.dwattr $C$DW$221, DW_AT_name("flags")
	.dwattr $C$DW$221, DW_AT_TI_symbol_name("flags")
	.dwattr $C$DW$221, DW_AT_type(*$C$DW$T$112)
	.dwattr $C$DW$221, DW_AT_location[DW_OP_breg13 4]

$C$DW$222	.dwtag  DW_TAG_variable
	.dwattr $C$DW$222, DW_AT_name("bNotify")
	.dwattr $C$DW$222, DW_AT_TI_symbol_name("bNotify")
	.dwattr $C$DW$222, DW_AT_type(*$C$DW$T$94)
	.dwattr $C$DW$222, DW_AT_location[DW_OP_breg13 8]

;----------------------------------------------------------------------
; 558 | int retVal;                                                            
;----------------------------------------------------------------------
        STRB      A1, [SP, #8]          ; [DPU_V7M3_PIPE] |557| 
	.dwpsn	file "/vagrant/Q3_SDK_01/sdk_root/source/ti/drivers/net/wifi/slnetif/slwificonn.c",line 559,column 20,is_stmt,isa 1
;----------------------------------------------------------------------
; 559 | uint32_t flags = NON_PERSISTANT_FLAG;                                  
;----------------------------------------------------------------------
        MOVS      A1, #1                ; [DPU_V7M3_PIPE] |559| 
        STR       A1, [SP, #4]          ; [DPU_V7M3_PIPE] |559| 
	.dwpsn	file "/vagrant/Q3_SDK_01/sdk_root/source/ti/drivers/net/wifi/slnetif/slwificonn.c",line 560,column 5,is_stmt,isa 1
;----------------------------------------------------------------------
; 560 | retVal = sl_WlanPolicySet(SL_WLAN_POLICY_CONNECTION, g_ctx->disabledPol
;     | icy, (uint8_t*)&flags, sizeof(uint32_t));                              
;----------------------------------------------------------------------
        LDR       A1, $C$CON13          ; [DPU_V7M3_PIPE] |560| 
        LDR       A1, [A1, #0]          ; [DPU_V7M3_PIPE] |560| 
        LDRB      A2, [A1, #117]        ; [DPU_V7M3_PIPE] |560| 
        MOVS      A4, #4                ; [DPU_V7M3_PIPE] |560| 
        ADD       A3, SP, #4            ; [DPU_V7M3_PIPE] |560| 
        MOVS      A1, #16               ; [DPU_V7M3_PIPE] |560| 
$C$DW$223	.dwtag  DW_TAG_TI_branch
	.dwattr $C$DW$223, DW_AT_low_pc(0x00)
	.dwattr $C$DW$223, DW_AT_name("sl_WlanPolicySet")
	.dwattr $C$DW$223, DW_AT_TI_call

        BL        sl_WlanPolicySet      ; [DPU_V7M3_PIPE] |560| 
        ; CALL OCCURS {sl_WlanPolicySet }  ; [] |560| 
        STR       A1, [SP, #0]          ; [DPU_V7M3_PIPE] |560| 
	.dwpsn	file "/vagrant/Q3_SDK_01/sdk_root/source/ti/drivers/net/wifi/slnetif/slwificonn.c",line 561,column 6,is_stmt,isa 1
;----------------------------------------------------------------------
; 561 | if(retVal == 0 && bNotify)                                             
;----------------------------------------------------------------------
        LDR       A1, [SP, #0]          ; [DPU_V7M3_PIPE] |561| 
        CBNZ      A1, ||$C$L33||        ; [] 
        ; BRANCHCC OCCURS {||$C$L33||}   ; [] |561| 
;* --------------------------------------------------------------------------*
        LDRB      A1, [SP, #8]          ; [DPU_V7M3_PIPE] |561| 
        CBZ       A1, ||$C$L33||        ; [] 
        ; BRANCHCC OCCURS {||$C$L33||}   ; [] |561| 
;* --------------------------------------------------------------------------*
	.dwpsn	file "/vagrant/Q3_SDK_01/sdk_root/source/ti/drivers/net/wifi/slnetif/slwificonn.c",line 563,column 10,is_stmt,isa 1
;----------------------------------------------------------------------
; 563 | NotifyWifiApp(WifiConnEvent_POWERED_DOWN, 0);                          
;----------------------------------------------------------------------
        MOVS      A1, #1                ; [DPU_V7M3_PIPE] |563| 
        MOVS      A2, #0                ; [DPU_V7M3_PIPE] |563| 
$C$DW$224	.dwtag  DW_TAG_TI_branch
	.dwattr $C$DW$224, DW_AT_low_pc(0x00)
	.dwattr $C$DW$224, DW_AT_name("NotifyWifiApp")
	.dwattr $C$DW$224, DW_AT_TI_call

        BL        NotifyWifiApp         ; [DPU_V7M3_PIPE] |563| 
        ; CALL OCCURS {NotifyWifiApp }   ; [] |563| 
;* --------------------------------------------------------------------------*
||$C$L33||:    
	.dwpsn	file "/vagrant/Q3_SDK_01/sdk_root/source/ti/drivers/net/wifi/slnetif/slwificonn.c",line 565,column 6,is_stmt,isa 1
;----------------------------------------------------------------------
; 565 | return retVal;                                                         
;----------------------------------------------------------------------
        LDR       A1, [SP, #0]          ; [DPU_V7M3_PIPE] |565| 
	.dwpsn	file "/vagrant/Q3_SDK_01/sdk_root/source/ti/drivers/net/wifi/slnetif/slwificonn.c",line 566,column 1,is_stmt,isa 1
$C$DW$225	.dwtag  DW_TAG_TI_branch
	.dwattr $C$DW$225, DW_AT_low_pc(0x00)
	.dwattr $C$DW$225, DW_AT_TI_return

        POP       {A2, A3, A4, PC}      ; [DPU_V7M3_PIPE] 
	.dwcfi	cfa_offset, 0
	.dwcfi	restore_reg, 3
	.dwcfi	restore_reg, 2
	.dwcfi	restore_reg, 1
        ; BRANCH OCCURS                  ; [] 
	.dwattr $C$DW$218, DW_AT_TI_end_file("/vagrant/Q3_SDK_01/sdk_root/source/ti/drivers/net/wifi/slnetif/slwificonn.c")
	.dwattr $C$DW$218, DW_AT_TI_end_line(0x236)
	.dwattr $C$DW$218, DW_AT_TI_end_column(0x01)
	.dwendentry
	.dwendtag $C$DW$218

	.sect	".text:ResumeNWP"
	.clink
	.thumbfunc ResumeNWP
	.thumb

$C$DW$226	.dwtag  DW_TAG_subprogram
	.dwattr $C$DW$226, DW_AT_name("ResumeNWP")
	.dwattr $C$DW$226, DW_AT_low_pc(ResumeNWP)
	.dwattr $C$DW$226, DW_AT_high_pc(0x00)
	.dwattr $C$DW$226, DW_AT_TI_symbol_name("ResumeNWP")
	.dwattr $C$DW$226, DW_AT_type(*$C$DW$T$10)
	.dwattr $C$DW$226, DW_AT_TI_begin_file("/vagrant/Q3_SDK_01/sdk_root/source/ti/drivers/net/wifi/slnetif/slwificonn.c")
	.dwattr $C$DW$226, DW_AT_TI_begin_line(0x23e)
	.dwattr $C$DW$226, DW_AT_TI_begin_column(0x0c)
	.dwattr $C$DW$226, DW_AT_decl_file("/vagrant/Q3_SDK_01/sdk_root/source/ti/drivers/net/wifi/slnetif/slwificonn.c")
	.dwattr $C$DW$226, DW_AT_decl_line(0x23e)
	.dwattr $C$DW$226, DW_AT_decl_column(0x0c)
	.dwattr $C$DW$226, DW_AT_TI_max_frame_size(0x10)
	.dwpsn	file "/vagrant/Q3_SDK_01/sdk_root/source/ti/drivers/net/wifi/slnetif/slwificonn.c",line 575,column 1,is_stmt,address ResumeNWP,isa 1

	.dwfde $C$DW$CIE, ResumeNWP
$C$DW$227	.dwtag  DW_TAG_formal_parameter
	.dwattr $C$DW$227, DW_AT_name("bNotify")
	.dwattr $C$DW$227, DW_AT_TI_symbol_name("bNotify")
	.dwattr $C$DW$227, DW_AT_type(*$C$DW$T$10)
	.dwattr $C$DW$227, DW_AT_location[DW_OP_reg0]

;----------------------------------------------------------------------
; 574 | static int ResumeNWP(bool bNotify)                                     
;----------------------------------------------------------------------

;*****************************************************************************
;* FUNCTION NAME: ResumeNWP                                                  *
;*                                                                           *
;*   Regs Modified     : A1,A2,A3,A4,V9,SP,LR,SR                             *
;*   Regs Used         : A1,A2,A3,A4,V9,SP,LR,SR                             *
;*   Local Frame Size  : 0 Args + 12 Auto + 4 Save = 16 byte                 *
;*****************************************************************************
ResumeNWP:
;* --------------------------------------------------------------------------*
	.dwcfi	cfa_offset, 0
        PUSH      {A2, A3, A4, LR}      ; [DPU_V7M3_PIPE] 
	.dwcfi	cfa_offset, 16
	.dwcfi	save_reg_to_mem, 14, -4
	.dwcfi	save_reg_to_mem, 3, -8
	.dwcfi	save_reg_to_mem, 2, -12
	.dwcfi	save_reg_to_mem, 1, -16
$C$DW$228	.dwtag  DW_TAG_variable
	.dwattr $C$DW$228, DW_AT_name("retVal")
	.dwattr $C$DW$228, DW_AT_TI_symbol_name("retVal")
	.dwattr $C$DW$228, DW_AT_type(*$C$DW$T$10)
	.dwattr $C$DW$228, DW_AT_location[DW_OP_breg13 0]

$C$DW$229	.dwtag  DW_TAG_variable
	.dwattr $C$DW$229, DW_AT_name("flags")
	.dwattr $C$DW$229, DW_AT_TI_symbol_name("flags")
	.dwattr $C$DW$229, DW_AT_type(*$C$DW$T$112)
	.dwattr $C$DW$229, DW_AT_location[DW_OP_breg13 4]

$C$DW$230	.dwtag  DW_TAG_variable
	.dwattr $C$DW$230, DW_AT_name("bNotify")
	.dwattr $C$DW$230, DW_AT_TI_symbol_name("bNotify")
	.dwattr $C$DW$230, DW_AT_type(*$C$DW$T$94)
	.dwattr $C$DW$230, DW_AT_location[DW_OP_breg13 8]

;----------------------------------------------------------------------
; 576 | int retVal;                                                            
;----------------------------------------------------------------------
        STRB      A1, [SP, #8]          ; [DPU_V7M3_PIPE] |575| 
	.dwpsn	file "/vagrant/Q3_SDK_01/sdk_root/source/ti/drivers/net/wifi/slnetif/slwificonn.c",line 577,column 20,is_stmt,isa 1
;----------------------------------------------------------------------
; 577 | uint32_t flags = NON_PERSISTANT_FLAG;                                  
;----------------------------------------------------------------------
        MOVS      A1, #1                ; [DPU_V7M3_PIPE] |577| 
        STR       A1, [SP, #4]          ; [DPU_V7M3_PIPE] |577| 
	.dwpsn	file "/vagrant/Q3_SDK_01/sdk_root/source/ti/drivers/net/wifi/slnetif/slwificonn.c",line 579,column 5,is_stmt,isa 1
;----------------------------------------------------------------------
; 579 | retVal = sl_WlanPolicySet(SL_WLAN_POLICY_CONNECTION, g_ctx->enabledPoli
;     | cy, (uint8_t*)&flags, sizeof(uint32_t));                               
;----------------------------------------------------------------------
        LDR       A1, $C$CON14          ; [DPU_V7M3_PIPE] |579| 
        LDR       A1, [A1, #0]          ; [DPU_V7M3_PIPE] |579| 
        LDRB      A2, [A1, #118]        ; [DPU_V7M3_PIPE] |579| 
        MOVS      A4, #4                ; [DPU_V7M3_PIPE] |579| 
        ADD       A3, SP, #4            ; [DPU_V7M3_PIPE] |579| 
        MOVS      A1, #16               ; [DPU_V7M3_PIPE] |579| 
$C$DW$231	.dwtag  DW_TAG_TI_branch
	.dwattr $C$DW$231, DW_AT_low_pc(0x00)
	.dwattr $C$DW$231, DW_AT_name("sl_WlanPolicySet")
	.dwattr $C$DW$231, DW_AT_TI_call

        BL        sl_WlanPolicySet      ; [DPU_V7M3_PIPE] |579| 
        ; CALL OCCURS {sl_WlanPolicySet }  ; [] |579| 
        STR       A1, [SP, #0]          ; [DPU_V7M3_PIPE] |579| 
	.dwpsn	file "/vagrant/Q3_SDK_01/sdk_root/source/ti/drivers/net/wifi/slnetif/slwificonn.c",line 580,column 5,is_stmt,isa 1
;----------------------------------------------------------------------
; 580 | if(retVal >= 0 && bNotify)                                             
;----------------------------------------------------------------------
        LDR       A1, [SP, #0]          ; [DPU_V7M3_PIPE] |580| 
        CMP       A1, #0                ; [DPU_V7M3_PIPE] |580| 
        BMI       ||$C$L34||            ; [DPU_V7M3_PIPE] |580| 
        ; BRANCHCC OCCURS {||$C$L34||}   ; [] |580| 
;* --------------------------------------------------------------------------*
        LDRB      A1, [SP, #8]          ; [DPU_V7M3_PIPE] |580| 
        CBZ       A1, ||$C$L34||        ; [] 
        ; BRANCHCC OCCURS {||$C$L34||}   ; [] |580| 
;* --------------------------------------------------------------------------*
	.dwpsn	file "/vagrant/Q3_SDK_01/sdk_root/source/ti/drivers/net/wifi/slnetif/slwificonn.c",line 582,column 9,is_stmt,isa 1
;----------------------------------------------------------------------
; 582 | NotifyWifiApp(WifiConnEvent_POWERED_UP, 0);                            
;----------------------------------------------------------------------
        MOVS      A1, #0                ; [DPU_V7M3_PIPE] |582| 
        MOVS      A2, #0                ; [DPU_V7M3_PIPE] |582| 
$C$DW$232	.dwtag  DW_TAG_TI_branch
	.dwattr $C$DW$232, DW_AT_low_pc(0x00)
	.dwattr $C$DW$232, DW_AT_name("NotifyWifiApp")
	.dwattr $C$DW$232, DW_AT_TI_call

        BL        NotifyWifiApp         ; [DPU_V7M3_PIPE] |582| 
        ; CALL OCCURS {NotifyWifiApp }   ; [] |582| 
;* --------------------------------------------------------------------------*
||$C$L34||:    
	.dwpsn	file "/vagrant/Q3_SDK_01/sdk_root/source/ti/drivers/net/wifi/slnetif/slwificonn.c",line 584,column 5,is_stmt,isa 1
;----------------------------------------------------------------------
; 584 | return retVal;                                                         
;----------------------------------------------------------------------
        LDR       A1, [SP, #0]          ; [DPU_V7M3_PIPE] |584| 
	.dwpsn	file "/vagrant/Q3_SDK_01/sdk_root/source/ti/drivers/net/wifi/slnetif/slwificonn.c",line 585,column 1,is_stmt,isa 1
$C$DW$233	.dwtag  DW_TAG_TI_branch
	.dwattr $C$DW$233, DW_AT_low_pc(0x00)
	.dwattr $C$DW$233, DW_AT_TI_return

        POP       {A2, A3, A4, PC}      ; [DPU_V7M3_PIPE] 
	.dwcfi	cfa_offset, 0
	.dwcfi	restore_reg, 3
	.dwcfi	restore_reg, 2
	.dwcfi	restore_reg, 1
        ; BRANCH OCCURS                  ; [] 
	.dwattr $C$DW$226, DW_AT_TI_end_file("/vagrant/Q3_SDK_01/sdk_root/source/ti/drivers/net/wifi/slnetif/slwificonn.c")
	.dwattr $C$DW$226, DW_AT_TI_end_line(0x249)
	.dwattr $C$DW$226, DW_AT_TI_end_column(0x01)
	.dwendentry
	.dwendtag $C$DW$226

	.sect	".text:ProcessEvent"
	.clink
	.thumbfunc ProcessEvent
	.thumb

$C$DW$234	.dwtag  DW_TAG_subprogram
	.dwattr $C$DW$234, DW_AT_name("ProcessEvent")
	.dwattr $C$DW$234, DW_AT_low_pc(ProcessEvent)
	.dwattr $C$DW$234, DW_AT_high_pc(0x00)
	.dwattr $C$DW$234, DW_AT_TI_symbol_name("ProcessEvent")
	.dwattr $C$DW$234, DW_AT_type(*$C$DW$T$10)
	.dwattr $C$DW$234, DW_AT_TI_begin_file("/vagrant/Q3_SDK_01/sdk_root/source/ti/drivers/net/wifi/slnetif/slwificonn.c")
	.dwattr $C$DW$234, DW_AT_TI_begin_line(0x255)
	.dwattr $C$DW$234, DW_AT_TI_begin_column(0x0c)
	.dwattr $C$DW$234, DW_AT_decl_file("/vagrant/Q3_SDK_01/sdk_root/source/ti/drivers/net/wifi/slnetif/slwificonn.c")
	.dwattr $C$DW$234, DW_AT_decl_line(0x255)
	.dwattr $C$DW$234, DW_AT_decl_column(0x0c)
	.dwattr $C$DW$234, DW_AT_TI_max_frame_size(0x18)
	.dwpsn	file "/vagrant/Q3_SDK_01/sdk_root/source/ti/drivers/net/wifi/slnetif/slwificonn.c",line 598,column 1,is_stmt,address ProcessEvent,isa 1

	.dwfde $C$DW$CIE, ProcessEvent
$C$DW$235	.dwtag  DW_TAG_formal_parameter
	.dwattr $C$DW$235, DW_AT_name("event")
	.dwattr $C$DW$235, DW_AT_TI_symbol_name("event")
	.dwattr $C$DW$235, DW_AT_type(*$C$DW$T$10)
	.dwattr $C$DW$235, DW_AT_location[DW_OP_reg0]

;----------------------------------------------------------------------
; 597 | static int ProcessEvent(SLWIFICONN_EVENT_e event)                      
;----------------------------------------------------------------------

;*****************************************************************************
;* FUNCTION NAME: ProcessEvent                                               *
;*                                                                           *
;*   Regs Modified     : A1,A2,A3,A4,V1,V9,SP,LR,SR                          *
;*   Regs Used         : A1,A2,A3,A4,V1,V9,SP,LR,SR                          *
;*   Local Frame Size  : 0 Args + 12 Auto + 8 Save = 20 byte                 *
;*****************************************************************************
ProcessEvent:
;* --------------------------------------------------------------------------*
	.dwcfi	cfa_offset, 0
        PUSH      {A1, A2, A3, A4, V1, LR} ; [DPU_V7M3_PIPE] 
	.dwcfi	cfa_offset, 24
	.dwcfi	save_reg_to_mem, 14, -4
	.dwcfi	save_reg_to_mem, 4, -8
	.dwcfi	save_reg_to_mem, 3, -12
	.dwcfi	save_reg_to_mem, 2, -16
	.dwcfi	save_reg_to_mem, 1, -20
	.dwcfi	save_reg_to_mem, 0, -24
$C$DW$236	.dwtag  DW_TAG_variable
	.dwattr $C$DW$236, DW_AT_name("retVal")
	.dwattr $C$DW$236, DW_AT_TI_symbol_name("retVal")
	.dwattr $C$DW$236, DW_AT_type(*$C$DW$T$10)
	.dwattr $C$DW$236, DW_AT_location[DW_OP_breg13 0]

$C$DW$237	.dwtag  DW_TAG_variable
	.dwattr $C$DW$237, DW_AT_name("pEntry")
	.dwattr $C$DW$237, DW_AT_TI_symbol_name("pEntry")
	.dwattr $C$DW$237, DW_AT_type(*$C$DW$T$970)
	.dwattr $C$DW$237, DW_AT_location[DW_OP_breg13 4]

$C$DW$238	.dwtag  DW_TAG_variable
	.dwattr $C$DW$238, DW_AT_name("event")
	.dwattr $C$DW$238, DW_AT_TI_symbol_name("event")
	.dwattr $C$DW$238, DW_AT_type(*$C$DW$T$102)
	.dwattr $C$DW$238, DW_AT_location[DW_OP_breg13 8]

        STRB      A1, [SP, #8]          ; [DPU_V7M3_PIPE] |598| 
	.dwpsn	file "/vagrant/Q3_SDK_01/sdk_root/source/ti/drivers/net/wifi/slnetif/slwificonn.c",line 599,column 16,is_stmt,isa 1
;----------------------------------------------------------------------
; 599 | int retVal = 0;                                                        
;----------------------------------------------------------------------
        MOVS      A1, #0                ; [DPU_V7M3_PIPE] |599| 
        STR       A1, [SP, #0]          ; [DPU_V7M3_PIPE] |599| 
	.dwpsn	file "/vagrant/Q3_SDK_01/sdk_root/source/ti/drivers/net/wifi/slnetif/slwificonn.c",line 601,column 5,is_stmt,isa 1
;----------------------------------------------------------------------
; 601 | g_fDebugPrint("SlWifiConn(SM): %s / %s \n\r", strState[g_ctx->state], s
;     | trEvent[event]);                                                       
;----------------------------------------------------------------------
        LDR       A1, $C$CON16          ; [DPU_V7M3_PIPE] |601| 
        LDR       A4, $C$CON17          ; [DPU_V7M3_PIPE] |601| 
        LDR       V1, $C$CON15          ; [DPU_V7M3_PIPE] |601| 
        LDR       A2, [A1, #0]          ; [DPU_V7M3_PIPE] |601| 
        LDRB      A3, [SP, #8]          ; [DPU_V7M3_PIPE] |601| 
        LDR       A1, $C$CON18          ; [DPU_V7M3_PIPE] |601| 
        LDRB      A2, [A2, #0]          ; [DPU_V7M3_PIPE] |601| 
        LDR       A3, [A4, +A3, LSL #2] ; [DPU_V7M3_PIPE] |601| 
        LDR       A1, [A1, #0]          ; [DPU_V7M3_PIPE] |601| 
        LDR       A2, [V1, +A2, LSL #2] ; [DPU_V7M3_PIPE] |601| 
        MOV       A4, A1                ; [DPU_V7M3_PIPE] |601| 
        ADR       A1, $C$SL31           ; [DPU_V7M3_PIPE] |601| 
$C$DW$239	.dwtag  DW_TAG_TI_branch
	.dwattr $C$DW$239, DW_AT_low_pc(0x00)
	.dwattr $C$DW$239, DW_AT_TI_call
	.dwattr $C$DW$239, DW_AT_TI_indirect

        BLX       A4                    ; [DPU_V7M3_PIPE] |601| 
        ; CALL OCCURS {}                 ; [] |601| 
	.dwpsn	file "/vagrant/Q3_SDK_01/sdk_root/source/ti/drivers/net/wifi/slnetif/slwificonn.c",line 603,column 24,is_stmt,isa 1
;----------------------------------------------------------------------
; 603 | SMHandler_f pEntry = g_fWifiSM[g_ctx->state];                          
;----------------------------------------------------------------------
        LDR       A1, $C$CON16          ; [DPU_V7M3_PIPE] |603| 
        LDR       A1, [A1, #0]          ; [DPU_V7M3_PIPE] |603| 
        LDR       A2, $C$CON19          ; [DPU_V7M3_PIPE] |603| 
        LDRB      A1, [A1, #0]          ; [DPU_V7M3_PIPE] |603| 
        LDR       A1, [A2, +A1, LSL #2] ; [DPU_V7M3_PIPE] |603| 
        STR       A1, [SP, #4]          ; [DPU_V7M3_PIPE] |603| 
	.dwpsn	file "/vagrant/Q3_SDK_01/sdk_root/source/ti/drivers/net/wifi/slnetif/slwificonn.c",line 605,column 5,is_stmt,isa 1
;----------------------------------------------------------------------
; 605 | assert (NULL != pEntry);                                               
;----------------------------------------------------------------------
        LDR       A2, [SP, #4]          ; [DPU_V7M3_PIPE] |605| 
        MOVS      A1, #0                ; [DPU_V7M3_PIPE] |605| 
        CBZ       A2, ||$C$L35||        ; [] 
        ; BRANCHCC OCCURS {||$C$L35||}   ; [] |605| 
;* --------------------------------------------------------------------------*
        MOVS      A1, #1                ; [DPU_V7M3_PIPE] |605| 
;* --------------------------------------------------------------------------*
||$C$L35||:    
        CBNZ      A1, ||$C$L36||        ; [] 
        ; BRANCHCC OCCURS {||$C$L36||}   ; [] |605| 
;* --------------------------------------------------------------------------*
        ADR       A1, $C$SL32           ; [DPU_V7M3_PIPE] |605| 
$C$DW$240	.dwtag  DW_TAG_TI_branch
	.dwattr $C$DW$240, DW_AT_low_pc(0x00)
	.dwattr $C$DW$240, DW_AT_name("_abort_msg")
	.dwattr $C$DW$240, DW_AT_TI_call

        BL        _abort_msg            ; [DPU_V7M3_PIPE] |605| 
        ; CALL OCCURS {_abort_msg }      ; [] |605| 
;* --------------------------------------------------------------------------*
||$C$L36||:    
	.dwpsn	file "/vagrant/Q3_SDK_01/sdk_root/source/ti/drivers/net/wifi/slnetif/slwificonn.c",line 606,column 5,is_stmt,isa 1
;----------------------------------------------------------------------
; 606 | retVal = pEntry(event);                                                
;----------------------------------------------------------------------
        LDR       A2, [SP, #4]          ; [DPU_V7M3_PIPE] |606| 
        LDRB      A1, [SP, #8]          ; [DPU_V7M3_PIPE] |606| 
$C$DW$241	.dwtag  DW_TAG_TI_branch
	.dwattr $C$DW$241, DW_AT_low_pc(0x00)
	.dwattr $C$DW$241, DW_AT_TI_call
	.dwattr $C$DW$241, DW_AT_TI_indirect

        BLX       A2                    ; [DPU_V7M3_PIPE] |606| 
        ; CALL OCCURS {}                 ; [] |606| 
        STR       A1, [SP, #0]          ; [DPU_V7M3_PIPE] |606| 
	.dwpsn	file "/vagrant/Q3_SDK_01/sdk_root/source/ti/drivers/net/wifi/slnetif/slwificonn.c",line 607,column 5,is_stmt,isa 1
;----------------------------------------------------------------------
; 607 | if (retVal < 0)                                                        
; 609 |     // Global Event Handling                                           
;----------------------------------------------------------------------
        LDR       A1, [SP, #0]          ; [DPU_V7M3_PIPE] |607| 
        CMP       A1, #0                ; [DPU_V7M3_PIPE] |607| 
        BPL       ||$C$L40||            ; [DPU_V7M3_PIPE] |607| 
        ; BRANCHCC OCCURS {||$C$L40||}   ; [] |607| 
;* --------------------------------------------------------------------------*
	.dwpsn	file "/vagrant/Q3_SDK_01/sdk_root/source/ti/drivers/net/wifi/slnetif/slwificonn.c",line 610,column 9,is_stmt,isa 1
;----------------------------------------------------------------------
; 610 | if(event == SLWIFICONN_EVENT_DISABLE)                                  
;----------------------------------------------------------------------
        LDRB      A1, [SP, #8]          ; [DPU_V7M3_PIPE] |610| 
        CMP       A1, #1                ; [DPU_V7M3_PIPE] |610| 
        BNE       ||$C$L39||            ; [DPU_V7M3_PIPE] |610| 
        ; BRANCHCC OCCURS {||$C$L39||}   ; [] |610| 
;* --------------------------------------------------------------------------*
	.dwpsn	file "/vagrant/Q3_SDK_01/sdk_root/source/ti/drivers/net/wifi/slnetif/slwificonn.c",line 612,column 13,is_stmt,isa 1
;----------------------------------------------------------------------
; 612 | SuspendNWP(true);                                                      
;----------------------------------------------------------------------
        MOVS      A1, #1                ; [DPU_V7M3_PIPE] |612| 
$C$DW$242	.dwtag  DW_TAG_TI_branch
	.dwattr $C$DW$242, DW_AT_low_pc(0x00)
	.dwattr $C$DW$242, DW_AT_name("SuspendNWP")
	.dwattr $C$DW$242, DW_AT_TI_call

        BL        SuspendNWP            ; [DPU_V7M3_PIPE] |612| 
        ; CALL OCCURS {SuspendNWP }      ; [] |612| 
	.dwpsn	file "/vagrant/Q3_SDK_01/sdk_root/source/ti/drivers/net/wifi/slnetif/slwificonn.c",line 613,column 13,is_stmt,isa 1
;----------------------------------------------------------------------
; 613 | if(g_ctx->state == SLWIFICONN_STATE_WAIT_FOR_IP ||                     
; 614 |    g_ctx->state == SLWIFICONN_STATE_CONNECTED)                         
;----------------------------------------------------------------------
        LDR       A1, $C$CON16          ; [DPU_V7M3_PIPE] |613| 
        LDR       A1, [A1, #0]          ; [DPU_V7M3_PIPE] |613| 
        LDRB      A1, [A1, #0]          ; [DPU_V7M3_PIPE] |613| 
        CMP       A1, #3                ; [DPU_V7M3_PIPE] |613| 
        BEQ       ||$C$L37||            ; [DPU_V7M3_PIPE] |613| 
        ; BRANCHCC OCCURS {||$C$L37||}   ; [] |613| 
;* --------------------------------------------------------------------------*
        LDR       A1, $C$CON16          ; [DPU_V7M3_PIPE] |613| 
        LDR       A1, [A1, #0]          ; [DPU_V7M3_PIPE] |613| 
        LDRB      A1, [A1, #0]          ; [DPU_V7M3_PIPE] |613| 
        CMP       A1, #4                ; [DPU_V7M3_PIPE] |613| 
        BNE       ||$C$L38||            ; [DPU_V7M3_PIPE] |613| 
        ; BRANCHCC OCCURS {||$C$L38||}   ; [] |613| 
;* --------------------------------------------------------------------------*
||$C$L37||:    
	.dwpsn	file "/vagrant/Q3_SDK_01/sdk_root/source/ti/drivers/net/wifi/slnetif/slwificonn.c",line 616,column 17,is_stmt,isa 1
;----------------------------------------------------------------------
; 616 | sl_WlanDisconnect();                                                   
;----------------------------------------------------------------------
$C$DW$243	.dwtag  DW_TAG_TI_branch
	.dwattr $C$DW$243, DW_AT_low_pc(0x00)
	.dwattr $C$DW$243, DW_AT_name("sl_WlanDisconnect")
	.dwattr $C$DW$243, DW_AT_TI_call

        BL        sl_WlanDisconnect     ; [DPU_V7M3_PIPE] |616| 
        ; CALL OCCURS {sl_WlanDisconnect }  ; [] |616| 
	.dwpsn	file "/vagrant/Q3_SDK_01/sdk_root/source/ti/drivers/net/wifi/slnetif/slwificonn.c",line 617,column 17,is_stmt,isa 1
;----------------------------------------------------------------------
; 617 | NotifyNetIf(SLNETIF_DISCONNECT, 0);                                    
;----------------------------------------------------------------------
        MOVS      A1, #0                ; [DPU_V7M3_PIPE] |617| 
        MOVS      A2, #0                ; [DPU_V7M3_PIPE] |617| 
$C$DW$244	.dwtag  DW_TAG_TI_branch
	.dwattr $C$DW$244, DW_AT_low_pc(0x00)
	.dwattr $C$DW$244, DW_AT_name("NotifyNetIf")
	.dwattr $C$DW$244, DW_AT_TI_call

        BL        NotifyNetIf           ; [DPU_V7M3_PIPE] |617| 
        ; CALL OCCURS {NotifyNetIf }     ; [] |617| 
;* --------------------------------------------------------------------------*
||$C$L38||:    
	.dwpsn	file "/vagrant/Q3_SDK_01/sdk_root/source/ti/drivers/net/wifi/slnetif/slwificonn.c",line 619,column 13,is_stmt,isa 1
;----------------------------------------------------------------------
; 619 | SetState(SLWIFICONN_STATE_OFF);                                        
; 621 | else                                                                   
;----------------------------------------------------------------------
        MOVS      A1, #0                ; [DPU_V7M3_PIPE] |619| 
$C$DW$245	.dwtag  DW_TAG_TI_branch
	.dwattr $C$DW$245, DW_AT_low_pc(0x00)
	.dwattr $C$DW$245, DW_AT_name("SetState")
	.dwattr $C$DW$245, DW_AT_TI_call

        BL        SetState              ; [DPU_V7M3_PIPE] |619| 
        ; CALL OCCURS {SetState }        ; [] |619| 
        B         ||$C$L40||            ; [DPU_V7M3_PIPE] 
        ; BRANCH OCCURS {||$C$L40||}     ; [] 
;* --------------------------------------------------------------------------*
||$C$L39||:    
	.dwpsn	file "/vagrant/Q3_SDK_01/sdk_root/source/ti/drivers/net/wifi/slnetif/slwificonn.c",line 624,column 13,is_stmt,isa 1
;----------------------------------------------------------------------
; 624 | g_fDebugPrint("SlWifiConn(SM): [WARN] Event not supported (%d) !\n\r",
;     | retVal);                                                               
;----------------------------------------------------------------------
        LDR       A1, $C$CON18          ; [DPU_V7M3_PIPE] |624| 
        LDR       A2, [SP, #0]          ; [DPU_V7M3_PIPE] |624| 
        LDR       A1, [A1, #0]          ; [DPU_V7M3_PIPE] |624| 
        MOV       A3, A1                ; [DPU_V7M3_PIPE] |624| 
        ADR       A1, $C$SL33           ; [DPU_V7M3_PIPE] |624| 
$C$DW$246	.dwtag  DW_TAG_TI_branch
	.dwattr $C$DW$246, DW_AT_low_pc(0x00)
	.dwattr $C$DW$246, DW_AT_TI_call
	.dwattr $C$DW$246, DW_AT_TI_indirect

        BLX       A3                    ; [DPU_V7M3_PIPE] |624| 
        ; CALL OCCURS {}                 ; [] |624| 
	.dwpsn	file "/vagrant/Q3_SDK_01/sdk_root/source/ti/drivers/net/wifi/slnetif/slwificonn.c",line 625,column 13,is_stmt,isa 1
;----------------------------------------------------------------------
; 625 | retVal = -1;                                                           
;----------------------------------------------------------------------
        MOV       A1, #-1               ; [DPU_V7M3_PIPE] |625| 
        STR       A1, [SP, #0]          ; [DPU_V7M3_PIPE] |625| 
;* --------------------------------------------------------------------------*
||$C$L40||:    
	.dwpsn	file "/vagrant/Q3_SDK_01/sdk_root/source/ti/drivers/net/wifi/slnetif/slwificonn.c",line 628,column 5,is_stmt,isa 1
;----------------------------------------------------------------------
; 628 | return retVal;                                                         
;----------------------------------------------------------------------
        LDR       A1, [SP, #0]          ; [DPU_V7M3_PIPE] |628| 
	.dwpsn	file "/vagrant/Q3_SDK_01/sdk_root/source/ti/drivers/net/wifi/slnetif/slwificonn.c",line 629,column 1,is_stmt,isa 1
        STR       A1, [SP, #0]          ; [DPU_V7M3_PIPE] 
$C$DW$247	.dwtag  DW_TAG_TI_branch
	.dwattr $C$DW$247, DW_AT_low_pc(0x00)
	.dwattr $C$DW$247, DW_AT_TI_return

        POP       {A1, A2, A3, A4, V1, PC} ; [DPU_V7M3_PIPE] 
	.dwcfi	cfa_offset, 0
	.dwcfi	restore_reg, 4
	.dwcfi	restore_reg, 3
	.dwcfi	restore_reg, 2
	.dwcfi	restore_reg, 1
	.dwcfi	restore_reg, 0
        ; BRANCH OCCURS                  ; [] 
	.dwattr $C$DW$234, DW_AT_TI_end_file("/vagrant/Q3_SDK_01/sdk_root/source/ti/drivers/net/wifi/slnetif/slwificonn.c")
	.dwattr $C$DW$234, DW_AT_TI_end_line(0x275)
	.dwattr $C$DW$234, DW_AT_TI_end_column(0x01)
	.dwendentry
	.dwendtag $C$DW$234

	.sect	".text:SignalEvent"
	.clink
	.thumbfunc SignalEvent
	.thumb

$C$DW$248	.dwtag  DW_TAG_subprogram
	.dwattr $C$DW$248, DW_AT_name("SignalEvent")
	.dwattr $C$DW$248, DW_AT_low_pc(SignalEvent)
	.dwattr $C$DW$248, DW_AT_high_pc(0x00)
	.dwattr $C$DW$248, DW_AT_TI_symbol_name("SignalEvent")
	.dwattr $C$DW$248, DW_AT_type(*$C$DW$T$10)
	.dwattr $C$DW$248, DW_AT_TI_begin_file("/vagrant/Q3_SDK_01/sdk_root/source/ti/drivers/net/wifi/slnetif/slwificonn.c")
	.dwattr $C$DW$248, DW_AT_TI_begin_line(0x27c)
	.dwattr $C$DW$248, DW_AT_TI_begin_column(0x06)
	.dwattr $C$DW$248, DW_AT_decl_file("/vagrant/Q3_SDK_01/sdk_root/source/ti/drivers/net/wifi/slnetif/slwificonn.c")
	.dwattr $C$DW$248, DW_AT_decl_line(0x27c)
	.dwattr $C$DW$248, DW_AT_decl_column(0x06)
	.dwattr $C$DW$248, DW_AT_TI_max_frame_size(0x08)
	.dwpsn	file "/vagrant/Q3_SDK_01/sdk_root/source/ti/drivers/net/wifi/slnetif/slwificonn.c",line 637,column 1,is_stmt,address SignalEvent,isa 1

	.dwfde $C$DW$CIE, SignalEvent
$C$DW$249	.dwtag  DW_TAG_formal_parameter
	.dwattr $C$DW$249, DW_AT_name("event")
	.dwattr $C$DW$249, DW_AT_TI_symbol_name("event")
	.dwattr $C$DW$249, DW_AT_type(*$C$DW$T$10)
	.dwattr $C$DW$249, DW_AT_location[DW_OP_reg0]

;----------------------------------------------------------------------
; 636 | int  SignalEvent(SLWIFICONN_EVENT_e event)                             
;----------------------------------------------------------------------

;*****************************************************************************
;* FUNCTION NAME: SignalEvent                                                *
;*                                                                           *
;*   Regs Modified     : A1,A2,A3,A4,V9,SP,LR,SR                             *
;*   Regs Used         : A1,A2,A3,A4,V9,SP,LR,SR                             *
;*   Local Frame Size  : 0 Args + 4 Auto + 4 Save = 8 byte                   *
;*****************************************************************************
SignalEvent:
;* --------------------------------------------------------------------------*
	.dwcfi	cfa_offset, 0
        PUSH      {A4, LR}              ; [DPU_V7M3_PIPE] 
	.dwcfi	cfa_offset, 8
	.dwcfi	save_reg_to_mem, 14, -4
	.dwcfi	save_reg_to_mem, 3, -8
$C$DW$250	.dwtag  DW_TAG_variable
	.dwattr $C$DW$250, DW_AT_name("event")
	.dwattr $C$DW$250, DW_AT_TI_symbol_name("event")
	.dwattr $C$DW$250, DW_AT_type(*$C$DW$T$102)
	.dwattr $C$DW$250, DW_AT_location[DW_OP_breg13 0]

;----------------------------------------------------------------------
; 638 | //signal provisioning task about SL Event                              
;----------------------------------------------------------------------
        STRB      A1, [SP, #0]          ; [DPU_V7M3_PIPE] |637| 
	.dwpsn	file "/vagrant/Q3_SDK_01/sdk_root/source/ti/drivers/net/wifi/slnetif/slwificonn.c",line 639,column 5,is_stmt,isa 1
;----------------------------------------------------------------------
; 639 | VERIFY_INITIALIZED();                                                  
;----------------------------------------------------------------------
        LDR       A1, $C$CON20          ; [DPU_V7M3_PIPE] |639| 
        LDR       A1, [A1, #0]          ; [DPU_V7M3_PIPE] |639| 
        CBNZ      A1, ||$C$L41||        ; [] 
        ; BRANCHCC OCCURS {||$C$L41||}   ; [] |639| 
;* --------------------------------------------------------------------------*
        LDR       A1, $C$CON21          ; [DPU_V7M3_PIPE] |639| 
        B         ||$C$L43||            ; [DPU_V7M3_PIPE] |639| 
        ; BRANCH OCCURS {||$C$L43||}     ; [] |639| 
;* --------------------------------------------------------------------------*
||$C$L41||:    
	.dwpsn	file "/vagrant/Q3_SDK_01/sdk_root/source/ti/drivers/net/wifi/slnetif/slwificonn.c",line 640,column 5,is_stmt,isa 1
;----------------------------------------------------------------------
; 640 | if((uint32_t)event < (uint32_t)SLWIFICONN_EVENT_MAX)                   
;----------------------------------------------------------------------
        LDRB      A1, [SP, #0]          ; [DPU_V7M3_PIPE] |640| 
        CMP       A1, #17               ; [DPU_V7M3_PIPE] |640| 
        BCS       ||$C$L42||            ; [DPU_V7M3_PIPE] |640| 
        ; BRANCHCC OCCURS {||$C$L42||}   ; [] |640| 
;* --------------------------------------------------------------------------*
	.dwpsn	file "/vagrant/Q3_SDK_01/sdk_root/source/ti/drivers/net/wifi/slnetif/slwificonn.c",line 642,column 9,is_stmt,isa 1
;----------------------------------------------------------------------
; 642 | return mq_send(g_ctx->eventQ, (char *)&event, 1, 0);                   
; 644 | else                                                                   
;----------------------------------------------------------------------
        LDR       A1, $C$CON20          ; [DPU_V7M3_PIPE] |642| 
        LDR       A1, [A1, #0]          ; [DPU_V7M3_PIPE] |642| 
        LDR       A1, [A1, #4]          ; [DPU_V7M3_PIPE] |642| 
        MOV       A2, SP                ; [DPU_V7M3_PIPE] |642| 
        MOVS      A3, #1                ; [DPU_V7M3_PIPE] |642| 
        MOVS      A4, #0                ; [DPU_V7M3_PIPE] |642| 
$C$DW$251	.dwtag  DW_TAG_TI_branch
	.dwattr $C$DW$251, DW_AT_low_pc(0x00)
	.dwattr $C$DW$251, DW_AT_name("mq_send")
	.dwattr $C$DW$251, DW_AT_TI_call

        BL        mq_send               ; [DPU_V7M3_PIPE] |642| 
        ; CALL OCCURS {mq_send }         ; [] |642| 
        B         ||$C$L43||            ; [DPU_V7M3_PIPE] |642| 
        ; BRANCH OCCURS {||$C$L43||}     ; [] |642| 
;* --------------------------------------------------------------------------*
||$C$L42||:    
	.dwpsn	file "/vagrant/Q3_SDK_01/sdk_root/source/ti/drivers/net/wifi/slnetif/slwificonn.c",line 646,column 9,is_stmt,isa 1
;----------------------------------------------------------------------
; 646 | g_fDebugPrint("SlWifiConn(SM): [ERROR] Invalid Event (%d) !!!!!!!!!\n\r
;     | ");                                                                    
;----------------------------------------------------------------------
        LDR       A1, $C$CON22          ; [DPU_V7M3_PIPE] |646| 
        LDR       A1, [A1, #0]          ; [DPU_V7M3_PIPE] |646| 
        MOV       A2, A1                ; [DPU_V7M3_PIPE] |646| 
        ADR       A1, $C$SL34           ; [DPU_V7M3_PIPE] |646| 
$C$DW$252	.dwtag  DW_TAG_TI_branch
	.dwattr $C$DW$252, DW_AT_low_pc(0x00)
	.dwattr $C$DW$252, DW_AT_TI_call
	.dwattr $C$DW$252, DW_AT_TI_indirect

        BLX       A2                    ; [DPU_V7M3_PIPE] |646| 
        ; CALL OCCURS {}                 ; [] |646| 
	.dwpsn	file "/vagrant/Q3_SDK_01/sdk_root/source/ti/drivers/net/wifi/slnetif/slwificonn.c",line 647,column 9,is_stmt,isa 1
;----------------------------------------------------------------------
; 647 | return SLNETERR_BSD_EINVAL;                                            
;----------------------------------------------------------------------
        MVN       A1, #21               ; [DPU_V7M3_PIPE] |647| 
;* --------------------------------------------------------------------------*
||$C$L43||:    
	.dwpsn	file "/vagrant/Q3_SDK_01/sdk_root/source/ti/drivers/net/wifi/slnetif/slwificonn.c",line 649,column 1,is_stmt,isa 1
$C$DW$253	.dwtag  DW_TAG_TI_branch
	.dwattr $C$DW$253, DW_AT_low_pc(0x00)
	.dwattr $C$DW$253, DW_AT_TI_return

        POP       {A4, PC}              ; [DPU_V7M3_PIPE] 
	.dwcfi	cfa_offset, 0
	.dwcfi	restore_reg, 3
        ; BRANCH OCCURS                  ; [] 
	.dwattr $C$DW$248, DW_AT_TI_end_file("/vagrant/Q3_SDK_01/sdk_root/source/ti/drivers/net/wifi/slnetif/slwificonn.c")
	.dwattr $C$DW$248, DW_AT_TI_end_line(0x289)
	.dwattr $C$DW$248, DW_AT_TI_end_column(0x01)
	.dwendentry
	.dwendtag $C$DW$248

	.sect	".text:SetState"
	.clink
	.thumbfunc SetState
	.thumb

$C$DW$254	.dwtag  DW_TAG_subprogram
	.dwattr $C$DW$254, DW_AT_name("SetState")
	.dwattr $C$DW$254, DW_AT_low_pc(SetState)
	.dwattr $C$DW$254, DW_AT_high_pc(0x00)
	.dwattr $C$DW$254, DW_AT_TI_symbol_name("SetState")
	.dwattr $C$DW$254, DW_AT_type(*$C$DW$T$10)
	.dwattr $C$DW$254, DW_AT_TI_begin_file("/vagrant/Q3_SDK_01/sdk_root/source/ti/drivers/net/wifi/slnetif/slwificonn.c")
	.dwattr $C$DW$254, DW_AT_TI_begin_line(0x291)
	.dwattr $C$DW$254, DW_AT_TI_begin_column(0x0c)
	.dwattr $C$DW$254, DW_AT_decl_file("/vagrant/Q3_SDK_01/sdk_root/source/ti/drivers/net/wifi/slnetif/slwificonn.c")
	.dwattr $C$DW$254, DW_AT_decl_line(0x291)
	.dwattr $C$DW$254, DW_AT_decl_column(0x0c)
	.dwattr $C$DW$254, DW_AT_TI_max_frame_size(0x10)
	.dwpsn	file "/vagrant/Q3_SDK_01/sdk_root/source/ti/drivers/net/wifi/slnetif/slwificonn.c",line 658,column 1,is_stmt,address SetState,isa 1

	.dwfde $C$DW$CIE, SetState
$C$DW$255	.dwtag  DW_TAG_formal_parameter
	.dwattr $C$DW$255, DW_AT_name("state")
	.dwattr $C$DW$255, DW_AT_TI_symbol_name("state")
	.dwattr $C$DW$255, DW_AT_type(*$C$DW$T$10)
	.dwattr $C$DW$255, DW_AT_location[DW_OP_reg0]

;----------------------------------------------------------------------
; 657 | static int SetState(SLWIFICONN_STATE_e state)                          
;----------------------------------------------------------------------

;*****************************************************************************
;* FUNCTION NAME: SetState                                                   *
;*                                                                           *
;*   Regs Modified     : A1,A2,A3,A4,V9,SP,LR,SR                             *
;*   Regs Used         : A1,A2,A3,A4,V9,SP,LR,SR                             *
;*   Local Frame Size  : 0 Args + 8 Auto + 4 Save = 12 byte                  *
;*****************************************************************************
SetState:
;* --------------------------------------------------------------------------*
	.dwcfi	cfa_offset, 0
        PUSH      {A2, A3, A4, LR}      ; [DPU_V7M3_PIPE] 
	.dwcfi	cfa_offset, 16
	.dwcfi	save_reg_to_mem, 14, -4
	.dwcfi	save_reg_to_mem, 3, -8
	.dwcfi	save_reg_to_mem, 2, -12
	.dwcfi	save_reg_to_mem, 1, -16
$C$DW$256	.dwtag  DW_TAG_variable
	.dwattr $C$DW$256, DW_AT_name("retVal")
	.dwattr $C$DW$256, DW_AT_TI_symbol_name("retVal")
	.dwattr $C$DW$256, DW_AT_type(*$C$DW$T$10)
	.dwattr $C$DW$256, DW_AT_location[DW_OP_breg13 0]

$C$DW$257	.dwtag  DW_TAG_variable
	.dwattr $C$DW$257, DW_AT_name("state")
	.dwattr $C$DW$257, DW_AT_TI_symbol_name("state")
	.dwattr $C$DW$257, DW_AT_type(*$C$DW$T$78)
	.dwattr $C$DW$257, DW_AT_location[DW_OP_breg13 4]

        STRB      A1, [SP, #4]          ; [DPU_V7M3_PIPE] |658| 
	.dwpsn	file "/vagrant/Q3_SDK_01/sdk_root/source/ti/drivers/net/wifi/slnetif/slwificonn.c",line 659,column 16,is_stmt,isa 1
;----------------------------------------------------------------------
; 659 | int retVal = 0;                                                        
;----------------------------------------------------------------------
        MOVS      A1, #0                ; [DPU_V7M3_PIPE] |659| 
        STR       A1, [SP, #0]          ; [DPU_V7M3_PIPE] |659| 
	.dwpsn	file "/vagrant/Q3_SDK_01/sdk_root/source/ti/drivers/net/wifi/slnetif/slwificonn.c",line 660,column 5,is_stmt,isa 1
;----------------------------------------------------------------------
; 660 | if((uint32_t)state < (uint32_t)SLWIFICONN_STATE_MAX)                   
;----------------------------------------------------------------------
        LDRB      A1, [SP, #4]          ; [DPU_V7M3_PIPE] |660| 
        CMP       A1, #8                ; [DPU_V7M3_PIPE] |660| 
        BCS       ||$C$L44||            ; [DPU_V7M3_PIPE] |660| 
        ; BRANCHCC OCCURS {||$C$L44||}   ; [] |660| 
;* --------------------------------------------------------------------------*
	.dwpsn	file "/vagrant/Q3_SDK_01/sdk_root/source/ti/drivers/net/wifi/slnetif/slwificonn.c",line 662,column 9,is_stmt,isa 1
;----------------------------------------------------------------------
; 662 | g_fDebugPrint("SlWifiConn(SM): ==> %s \n\r", strState[state]);         
;----------------------------------------------------------------------
        LDR       A1, $C$CON24          ; [DPU_V7M3_PIPE] |662| 
        LDRB      A2, [SP, #4]          ; [DPU_V7M3_PIPE] |662| 
        LDR       A3, $C$CON23          ; [DPU_V7M3_PIPE] |662| 
        LDR       A1, [A1, #0]          ; [DPU_V7M3_PIPE] |662| 
        LDR       A2, [A3, +A2, LSL #2] ; [DPU_V7M3_PIPE] |662| 
        MOV       A3, A1                ; [DPU_V7M3_PIPE] |662| 
        ADR       A1, $C$SL35           ; [DPU_V7M3_PIPE] |662| 
$C$DW$258	.dwtag  DW_TAG_TI_branch
	.dwattr $C$DW$258, DW_AT_low_pc(0x00)
	.dwattr $C$DW$258, DW_AT_TI_call
	.dwattr $C$DW$258, DW_AT_TI_indirect

        BLX       A3                    ; [DPU_V7M3_PIPE] |662| 
        ; CALL OCCURS {}                 ; [] |662| 
	.dwpsn	file "/vagrant/Q3_SDK_01/sdk_root/source/ti/drivers/net/wifi/slnetif/slwificonn.c",line 663,column 9,is_stmt,isa 1
;----------------------------------------------------------------------
; 663 | g_ctx->state = state;                                                  
; 665 | else                                                                   
;----------------------------------------------------------------------
        LDR       A2, $C$CON25          ; [DPU_V7M3_PIPE] |663| 
        LDRB      A1, [SP, #4]          ; [DPU_V7M3_PIPE] |663| 
        LDR       A2, [A2, #0]          ; [DPU_V7M3_PIPE] |663| 
        STRB      A1, [A2, #0]          ; [DPU_V7M3_PIPE] |663| 
        B         ||$C$L45||            ; [DPU_V7M3_PIPE] 
        ; BRANCH OCCURS {||$C$L45||}     ; [] 
;* --------------------------------------------------------------------------*
||$C$L44||:    
	.dwpsn	file "/vagrant/Q3_SDK_01/sdk_root/source/ti/drivers/net/wifi/slnetif/slwificonn.c",line 667,column 9,is_stmt,isa 1
;----------------------------------------------------------------------
; 667 | g_fDebugPrint("SlWifiConn(SM): [ERROR] Invalid state (%d) !!!!!!!!!\n\r
;     | ", state);                                                             
;----------------------------------------------------------------------
        LDR       A1, $C$CON24          ; [DPU_V7M3_PIPE] |667| 
        LDRB      A2, [SP, #4]          ; [DPU_V7M3_PIPE] |667| 
        LDR       A1, [A1, #0]          ; [DPU_V7M3_PIPE] |667| 
        MOV       A3, A1                ; [DPU_V7M3_PIPE] |667| 
        ADR       A1, $C$SL36           ; [DPU_V7M3_PIPE] |667| 
$C$DW$259	.dwtag  DW_TAG_TI_branch
	.dwattr $C$DW$259, DW_AT_low_pc(0x00)
	.dwattr $C$DW$259, DW_AT_TI_call
	.dwattr $C$DW$259, DW_AT_TI_indirect

        BLX       A3                    ; [DPU_V7M3_PIPE] |667| 
        ; CALL OCCURS {}                 ; [] |667| 
	.dwpsn	file "/vagrant/Q3_SDK_01/sdk_root/source/ti/drivers/net/wifi/slnetif/slwificonn.c",line 668,column 9,is_stmt,isa 1
;----------------------------------------------------------------------
; 668 | retVal = -1;                                                           
;----------------------------------------------------------------------
        MOV       A1, #-1               ; [DPU_V7M3_PIPE] |668| 
        STR       A1, [SP, #0]          ; [DPU_V7M3_PIPE] |668| 
;* --------------------------------------------------------------------------*
||$C$L45||:    
	.dwpsn	file "/vagrant/Q3_SDK_01/sdk_root/source/ti/drivers/net/wifi/slnetif/slwificonn.c",line 670,column 5,is_stmt,isa 1
;----------------------------------------------------------------------
; 670 | return retVal;                                                         
;----------------------------------------------------------------------
        LDR       A1, [SP, #0]          ; [DPU_V7M3_PIPE] |670| 
	.dwpsn	file "/vagrant/Q3_SDK_01/sdk_root/source/ti/drivers/net/wifi/slnetif/slwificonn.c",line 671,column 1,is_stmt,isa 1
$C$DW$260	.dwtag  DW_TAG_TI_branch
	.dwattr $C$DW$260, DW_AT_low_pc(0x00)
	.dwattr $C$DW$260, DW_AT_TI_return

        POP       {A2, A3, A4, PC}      ; [DPU_V7M3_PIPE] 
	.dwcfi	cfa_offset, 0
	.dwcfi	restore_reg, 3
	.dwcfi	restore_reg, 2
	.dwcfi	restore_reg, 1
        ; BRANCH OCCURS                  ; [] 
	.dwattr $C$DW$254, DW_AT_TI_end_file("/vagrant/Q3_SDK_01/sdk_root/source/ti/drivers/net/wifi/slnetif/slwificonn.c")
	.dwattr $C$DW$254, DW_AT_TI_end_line(0x29f)
	.dwattr $C$DW$254, DW_AT_TI_end_column(0x01)
	.dwendentry
	.dwendtag $C$DW$254

	.sect	".text:NotifyNetIf"
	.clink
	.thumbfunc NotifyNetIf
	.thumb

$C$DW$261	.dwtag  DW_TAG_subprogram
	.dwattr $C$DW$261, DW_AT_name("NotifyNetIf")
	.dwattr $C$DW$261, DW_AT_low_pc(NotifyNetIf)
	.dwattr $C$DW$261, DW_AT_high_pc(0x00)
	.dwattr $C$DW$261, DW_AT_TI_symbol_name("NotifyNetIf")
	.dwattr $C$DW$261, DW_AT_type(*$C$DW$T$10)
	.dwattr $C$DW$261, DW_AT_TI_begin_file("/vagrant/Q3_SDK_01/sdk_root/source/ti/drivers/net/wifi/slnetif/slwificonn.c")
	.dwattr $C$DW$261, DW_AT_TI_begin_line(0x2aa)
	.dwattr $C$DW$261, DW_AT_TI_begin_column(0x0c)
	.dwattr $C$DW$261, DW_AT_decl_file("/vagrant/Q3_SDK_01/sdk_root/source/ti/drivers/net/wifi/slnetif/slwificonn.c")
	.dwattr $C$DW$261, DW_AT_decl_line(0x2aa)
	.dwattr $C$DW$261, DW_AT_decl_column(0x0c)
	.dwattr $C$DW$261, DW_AT_TI_max_frame_size(0x10)
	.dwpsn	file "/vagrant/Q3_SDK_01/sdk_root/source/ti/drivers/net/wifi/slnetif/slwificonn.c",line 683,column 1,is_stmt,address NotifyNetIf,isa 1

	.dwfde $C$DW$CIE, NotifyNetIf
$C$DW$262	.dwtag  DW_TAG_formal_parameter
	.dwattr $C$DW$262, DW_AT_name("EventId")
	.dwattr $C$DW$262, DW_AT_TI_symbol_name("EventId")
	.dwattr $C$DW$262, DW_AT_type(*$C$DW$T$10)
	.dwattr $C$DW$262, DW_AT_location[DW_OP_reg0]

$C$DW$263	.dwtag  DW_TAG_formal_parameter
	.dwattr $C$DW$263, DW_AT_name("pData")
	.dwattr $C$DW$263, DW_AT_TI_symbol_name("pData")
	.dwattr $C$DW$263, DW_AT_type(*$C$DW$T$3)
	.dwattr $C$DW$263, DW_AT_location[DW_OP_reg1]

;----------------------------------------------------------------------
; 682 | static int NotifyNetIf(SlNetIfEventId_e EventId, void *pData)          
;----------------------------------------------------------------------

;*****************************************************************************
;* FUNCTION NAME: NotifyNetIf                                                *
;*                                                                           *
;*   Regs Modified     : A1,A2,A3,A4,V9,SP,LR,SR                             *
;*   Regs Used         : A1,A2,A3,A4,V9,SP,LR,SR                             *
;*   Local Frame Size  : 0 Args + 8 Auto + 4 Save = 12 byte                  *
;*****************************************************************************
NotifyNetIf:
;* --------------------------------------------------------------------------*
	.dwcfi	cfa_offset, 0
        PUSH      {A2, A3, A4, LR}      ; [DPU_V7M3_PIPE] 
	.dwcfi	cfa_offset, 16
	.dwcfi	save_reg_to_mem, 14, -4
	.dwcfi	save_reg_to_mem, 3, -8
	.dwcfi	save_reg_to_mem, 2, -12
	.dwcfi	save_reg_to_mem, 1, -16
$C$DW$264	.dwtag  DW_TAG_variable
	.dwattr $C$DW$264, DW_AT_name("pData")
	.dwattr $C$DW$264, DW_AT_TI_symbol_name("pData")
	.dwattr $C$DW$264, DW_AT_type(*$C$DW$T$3)
	.dwattr $C$DW$264, DW_AT_location[DW_OP_breg13 0]

$C$DW$265	.dwtag  DW_TAG_variable
	.dwattr $C$DW$265, DW_AT_name("EventId")
	.dwattr $C$DW$265, DW_AT_TI_symbol_name("EventId")
	.dwattr $C$DW$265, DW_AT_type(*$C$DW$T$483)
	.dwattr $C$DW$265, DW_AT_location[DW_OP_breg13 4]

        STR       A2, [SP, #0]          ; [DPU_V7M3_PIPE] |683| 
        STRB      A1, [SP, #4]          ; [DPU_V7M3_PIPE] |683| 
	.dwpsn	file "/vagrant/Q3_SDK_01/sdk_root/source/ti/drivers/net/wifi/slnetif/slwificonn.c",line 684,column 5,is_stmt,isa 1
;----------------------------------------------------------------------
; 684 | if(g_fNetIfCB)                                                         
;----------------------------------------------------------------------
        LDR       A1, $C$CON26          ; [DPU_V7M3_PIPE] |684| 
        LDR       A1, [A1, #0]          ; [DPU_V7M3_PIPE] |684| 
        CBZ       A1, ||$C$L46||        ; [] 
        ; BRANCHCC OCCURS {||$C$L46||}   ; [] |684| 
;* --------------------------------------------------------------------------*
	.dwpsn	file "/vagrant/Q3_SDK_01/sdk_root/source/ti/drivers/net/wifi/slnetif/slwificonn.c",line 686,column 9,is_stmt,isa 1
;----------------------------------------------------------------------
; 686 | CRITICAL_SECTION_EXIT();                                               
;----------------------------------------------------------------------
        LDR       A1, $C$CON27          ; [DPU_V7M3_PIPE] |686| 
$C$DW$266	.dwtag  DW_TAG_TI_branch
	.dwattr $C$DW$266, DW_AT_low_pc(0x00)
	.dwattr $C$DW$266, DW_AT_name("sem_post")
	.dwattr $C$DW$266, DW_AT_TI_call

        BL        sem_post              ; [DPU_V7M3_PIPE] |686| 
        ; CALL OCCURS {sem_post }        ; [] |686| 
	.dwpsn	file "/vagrant/Q3_SDK_01/sdk_root/source/ti/drivers/net/wifi/slnetif/slwificonn.c",line 687,column 9,is_stmt,isa 1
;----------------------------------------------------------------------
; 687 | g_fNetIfCB(EventId, g_ifId, pData);                                    
;----------------------------------------------------------------------
        LDR       A1, $C$CON26          ; [DPU_V7M3_PIPE] |687| 
        LDR       A2, $C$CON28          ; [DPU_V7M3_PIPE] |687| 
        LDR       A3, [A1, #0]          ; [DPU_V7M3_PIPE] |687| 
        LDRH      A2, [A2, #0]          ; [DPU_V7M3_PIPE] |687| 
        MOV       A4, A3                ; [DPU_V7M3_PIPE] |687| 
        LDRB      A1, [SP, #4]          ; [DPU_V7M3_PIPE] |687| 
        LDR       A3, [SP, #0]          ; [DPU_V7M3_PIPE] |687| 
$C$DW$267	.dwtag  DW_TAG_TI_branch
	.dwattr $C$DW$267, DW_AT_low_pc(0x00)
	.dwattr $C$DW$267, DW_AT_TI_call
	.dwattr $C$DW$267, DW_AT_TI_indirect

        BLX       A4                    ; [DPU_V7M3_PIPE] |687| 
        ; CALL OCCURS {}                 ; [] |687| 
	.dwpsn	file "/vagrant/Q3_SDK_01/sdk_root/source/ti/drivers/net/wifi/slnetif/slwificonn.c",line 688,column 9,is_stmt,isa 1
;----------------------------------------------------------------------
; 688 | CRITICAL_SECTION_ENTER();                                              
;----------------------------------------------------------------------
        LDR       A1, $C$CON27          ; [DPU_V7M3_PIPE] |688| 
$C$DW$268	.dwtag  DW_TAG_TI_branch
	.dwattr $C$DW$268, DW_AT_low_pc(0x00)
	.dwattr $C$DW$268, DW_AT_name("sem_wait")
	.dwattr $C$DW$268, DW_AT_TI_call

        BL        sem_wait              ; [DPU_V7M3_PIPE] |688| 
        ; CALL OCCURS {sem_wait }        ; [] |688| 
;* --------------------------------------------------------------------------*
||$C$L46||:    
	.dwpsn	file "/vagrant/Q3_SDK_01/sdk_root/source/ti/drivers/net/wifi/slnetif/slwificonn.c",line 690,column 5,is_stmt,isa 1
;----------------------------------------------------------------------
; 690 | return 0;                                                              
;----------------------------------------------------------------------
        MOVS      A1, #0                ; [DPU_V7M3_PIPE] |690| 
	.dwpsn	file "/vagrant/Q3_SDK_01/sdk_root/source/ti/drivers/net/wifi/slnetif/slwificonn.c",line 691,column 1,is_stmt,isa 1
$C$DW$269	.dwtag  DW_TAG_TI_branch
	.dwattr $C$DW$269, DW_AT_low_pc(0x00)
	.dwattr $C$DW$269, DW_AT_TI_return

        POP       {A2, A3, A4, PC}      ; [DPU_V7M3_PIPE] 
	.dwcfi	cfa_offset, 0
	.dwcfi	restore_reg, 3
	.dwcfi	restore_reg, 2
	.dwcfi	restore_reg, 1
        ; BRANCH OCCURS                  ; [] 
	.dwattr $C$DW$261, DW_AT_TI_end_file("/vagrant/Q3_SDK_01/sdk_root/source/ti/drivers/net/wifi/slnetif/slwificonn.c")
	.dwattr $C$DW$261, DW_AT_TI_end_line(0x2b3)
	.dwattr $C$DW$261, DW_AT_TI_end_column(0x01)
	.dwendentry
	.dwendtag $C$DW$261

	.sect	".text:NotifyWifiApp"
	.clink
	.thumbfunc NotifyWifiApp
	.thumb

$C$DW$270	.dwtag  DW_TAG_subprogram
	.dwattr $C$DW$270, DW_AT_name("NotifyWifiApp")
	.dwattr $C$DW$270, DW_AT_low_pc(NotifyWifiApp)
	.dwattr $C$DW$270, DW_AT_high_pc(0x00)
	.dwattr $C$DW$270, DW_AT_TI_symbol_name("NotifyWifiApp")
	.dwattr $C$DW$270, DW_AT_type(*$C$DW$T$10)
	.dwattr $C$DW$270, DW_AT_TI_begin_file("/vagrant/Q3_SDK_01/sdk_root/source/ti/drivers/net/wifi/slnetif/slwificonn.c")
	.dwattr $C$DW$270, DW_AT_TI_begin_line(0x2c1)
	.dwattr $C$DW$270, DW_AT_TI_begin_column(0x0c)
	.dwattr $C$DW$270, DW_AT_decl_file("/vagrant/Q3_SDK_01/sdk_root/source/ti/drivers/net/wifi/slnetif/slwificonn.c")
	.dwattr $C$DW$270, DW_AT_decl_line(0x2c1)
	.dwattr $C$DW$270, DW_AT_decl_column(0x0c)
	.dwattr $C$DW$270, DW_AT_TI_max_frame_size(0x10)
	.dwpsn	file "/vagrant/Q3_SDK_01/sdk_root/source/ti/drivers/net/wifi/slnetif/slwificonn.c",line 706,column 1,is_stmt,address NotifyWifiApp,isa 1

	.dwfde $C$DW$CIE, NotifyWifiApp
$C$DW$271	.dwtag  DW_TAG_formal_parameter
	.dwattr $C$DW$271, DW_AT_name("EventId")
	.dwattr $C$DW$271, DW_AT_TI_symbol_name("EventId")
	.dwattr $C$DW$271, DW_AT_type(*$C$DW$T$10)
	.dwattr $C$DW$271, DW_AT_location[DW_OP_reg0]

$C$DW$272	.dwtag  DW_TAG_formal_parameter
	.dwattr $C$DW$272, DW_AT_name("pData")
	.dwattr $C$DW$272, DW_AT_TI_symbol_name("pData")
	.dwattr $C$DW$272, DW_AT_type(*$C$DW$T$88)
	.dwattr $C$DW$272, DW_AT_location[DW_OP_reg1]

;----------------------------------------------------------------------
; 705 | static int NotifyWifiApp(WifiConnEventId_e EventId, WifiConnEventData_u
;     |  *pData)                                                               
;----------------------------------------------------------------------

;*****************************************************************************
;* FUNCTION NAME: NotifyWifiApp                                              *
;*                                                                           *
;*   Regs Modified     : A1,A2,A3,A4,V9,SP,LR,SR                             *
;*   Regs Used         : A1,A2,A3,A4,V9,SP,LR,SR                             *
;*   Local Frame Size  : 0 Args + 8 Auto + 4 Save = 12 byte                  *
;*****************************************************************************
NotifyWifiApp:
;* --------------------------------------------------------------------------*
	.dwcfi	cfa_offset, 0
        PUSH      {A2, A3, A4, LR}      ; [DPU_V7M3_PIPE] 
	.dwcfi	cfa_offset, 16
	.dwcfi	save_reg_to_mem, 14, -4
	.dwcfi	save_reg_to_mem, 3, -8
	.dwcfi	save_reg_to_mem, 2, -12
	.dwcfi	save_reg_to_mem, 1, -16
$C$DW$273	.dwtag  DW_TAG_variable
	.dwattr $C$DW$273, DW_AT_name("pData")
	.dwattr $C$DW$273, DW_AT_TI_symbol_name("pData")
	.dwattr $C$DW$273, DW_AT_type(*$C$DW$T$88)
	.dwattr $C$DW$273, DW_AT_location[DW_OP_breg13 0]

$C$DW$274	.dwtag  DW_TAG_variable
	.dwattr $C$DW$274, DW_AT_name("EventId")
	.dwattr $C$DW$274, DW_AT_TI_symbol_name("EventId")
	.dwattr $C$DW$274, DW_AT_type(*$C$DW$T$86)
	.dwattr $C$DW$274, DW_AT_location[DW_OP_breg13 4]

        STR       A2, [SP, #0]          ; [DPU_V7M3_PIPE] |706| 
        STRB      A1, [SP, #4]          ; [DPU_V7M3_PIPE] |706| 
	.dwpsn	file "/vagrant/Q3_SDK_01/sdk_root/source/ti/drivers/net/wifi/slnetif/slwificonn.c",line 707,column 5,is_stmt,isa 1
;----------------------------------------------------------------------
; 707 | if(g_ctx->fWifiAppCB)                                                  
;----------------------------------------------------------------------
        LDR       A1, $C$CON29          ; [DPU_V7M3_PIPE] |707| 
        LDR       A1, [A1, #0]          ; [DPU_V7M3_PIPE] |707| 
        LDR       A1, [A1, #16]         ; [DPU_V7M3_PIPE] |707| 
        CBZ       A1, ||$C$L47||        ; [] 
        ; BRANCHCC OCCURS {||$C$L47||}   ; [] |707| 
;* --------------------------------------------------------------------------*
	.dwpsn	file "/vagrant/Q3_SDK_01/sdk_root/source/ti/drivers/net/wifi/slnetif/slwificonn.c",line 709,column 9,is_stmt,isa 1
;----------------------------------------------------------------------
; 709 | CRITICAL_SECTION_EXIT();                                               
;----------------------------------------------------------------------
        LDR       A1, $C$CON30          ; [DPU_V7M3_PIPE] |709| 
$C$DW$275	.dwtag  DW_TAG_TI_branch
	.dwattr $C$DW$275, DW_AT_low_pc(0x00)
	.dwattr $C$DW$275, DW_AT_name("sem_post")
	.dwattr $C$DW$275, DW_AT_TI_call

        BL        sem_post              ; [DPU_V7M3_PIPE] |709| 
        ; CALL OCCURS {sem_post }        ; [] |709| 
	.dwpsn	file "/vagrant/Q3_SDK_01/sdk_root/source/ti/drivers/net/wifi/slnetif/slwificonn.c",line 710,column 9,is_stmt,isa 1
;----------------------------------------------------------------------
; 710 | g_ctx->fWifiAppCB(EventId, pData);                                     
;----------------------------------------------------------------------
        LDR       A1, $C$CON29          ; [DPU_V7M3_PIPE] |710| 
        LDR       A1, [A1, #0]          ; [DPU_V7M3_PIPE] |710| 
        LDR       A2, [A1, #16]         ; [DPU_V7M3_PIPE] |710| 
        MOV       A3, A2                ; [DPU_V7M3_PIPE] |710| 
        LDRB      A1, [SP, #4]          ; [DPU_V7M3_PIPE] |710| 
        LDR       A2, [SP, #0]          ; [DPU_V7M3_PIPE] |710| 
$C$DW$276	.dwtag  DW_TAG_TI_branch
	.dwattr $C$DW$276, DW_AT_low_pc(0x00)
	.dwattr $C$DW$276, DW_AT_TI_call
	.dwattr $C$DW$276, DW_AT_TI_indirect

        BLX       A3                    ; [DPU_V7M3_PIPE] |710| 
        ; CALL OCCURS {}                 ; [] |710| 
	.dwpsn	file "/vagrant/Q3_SDK_01/sdk_root/source/ti/drivers/net/wifi/slnetif/slwificonn.c",line 711,column 9,is_stmt,isa 1
;----------------------------------------------------------------------
; 711 | CRITICAL_SECTION_ENTER();                                              
;----------------------------------------------------------------------
        LDR       A1, $C$CON30          ; [DPU_V7M3_PIPE] |711| 
$C$DW$277	.dwtag  DW_TAG_TI_branch
	.dwattr $C$DW$277, DW_AT_low_pc(0x00)
	.dwattr $C$DW$277, DW_AT_name("sem_wait")
	.dwattr $C$DW$277, DW_AT_TI_call

        BL        sem_wait              ; [DPU_V7M3_PIPE] |711| 
        ; CALL OCCURS {sem_wait }        ; [] |711| 
;* --------------------------------------------------------------------------*
||$C$L47||:    
	.dwpsn	file "/vagrant/Q3_SDK_01/sdk_root/source/ti/drivers/net/wifi/slnetif/slwificonn.c",line 713,column 5,is_stmt,isa 1
;----------------------------------------------------------------------
; 713 | return 0;                                                              
;----------------------------------------------------------------------
        MOVS      A1, #0                ; [DPU_V7M3_PIPE] |713| 
	.dwpsn	file "/vagrant/Q3_SDK_01/sdk_root/source/ti/drivers/net/wifi/slnetif/slwificonn.c",line 714,column 1,is_stmt,isa 1
$C$DW$278	.dwtag  DW_TAG_TI_branch
	.dwattr $C$DW$278, DW_AT_low_pc(0x00)
	.dwattr $C$DW$278, DW_AT_TI_return

        POP       {A2, A3, A4, PC}      ; [DPU_V7M3_PIPE] 
	.dwcfi	cfa_offset, 0
	.dwcfi	restore_reg, 3
	.dwcfi	restore_reg, 2
	.dwcfi	restore_reg, 1
        ; BRANCH OCCURS                  ; [] 
	.dwattr $C$DW$270, DW_AT_TI_end_file("/vagrant/Q3_SDK_01/sdk_root/source/ti/drivers/net/wifi/slnetif/slwificonn.c")
	.dwattr $C$DW$270, DW_AT_TI_end_line(0x2ca)
	.dwattr $C$DW$270, DW_AT_TI_end_column(0x01)
	.dwendentry
	.dwendtag $C$DW$270

	.sect	".text:NotifyProvisioningStatus"
	.clink
	.thumbfunc NotifyProvisioningStatus
	.thumb

$C$DW$279	.dwtag  DW_TAG_subprogram
	.dwattr $C$DW$279, DW_AT_name("NotifyProvisioningStatus")
	.dwattr $C$DW$279, DW_AT_low_pc(NotifyProvisioningStatus)
	.dwattr $C$DW$279, DW_AT_high_pc(0x00)
	.dwattr $C$DW$279, DW_AT_TI_symbol_name("NotifyProvisioningStatus")
	.dwattr $C$DW$279, DW_AT_type(*$C$DW$T$10)
	.dwattr $C$DW$279, DW_AT_TI_begin_file("/vagrant/Q3_SDK_01/sdk_root/source/ti/drivers/net/wifi/slnetif/slwificonn.c")
	.dwattr $C$DW$279, DW_AT_TI_begin_line(0x2d2)
	.dwattr $C$DW$279, DW_AT_TI_begin_column(0x0c)
	.dwattr $C$DW$279, DW_AT_decl_file("/vagrant/Q3_SDK_01/sdk_root/source/ti/drivers/net/wifi/slnetif/slwificonn.c")
	.dwattr $C$DW$279, DW_AT_decl_line(0x2d2)
	.dwattr $C$DW$279, DW_AT_decl_column(0x0c)
	.dwattr $C$DW$279, DW_AT_TI_max_frame_size(0x08)
	.dwpsn	file "/vagrant/Q3_SDK_01/sdk_root/source/ti/drivers/net/wifi/slnetif/slwificonn.c",line 723,column 1,is_stmt,address NotifyProvisioningStatus,isa 1

	.dwfde $C$DW$CIE, NotifyProvisioningStatus
$C$DW$280	.dwtag  DW_TAG_formal_parameter
	.dwattr $C$DW$280, DW_AT_name("status")
	.dwattr $C$DW$280, DW_AT_TI_symbol_name("status")
	.dwattr $C$DW$280, DW_AT_type(*$C$DW$T$10)
	.dwattr $C$DW$280, DW_AT_location[DW_OP_reg0]

;----------------------------------------------------------------------
; 722 | static int NotifyProvisioningStatus(WifiConnProvStatus_e status)       
;----------------------------------------------------------------------

;*****************************************************************************
;* FUNCTION NAME: NotifyProvisioningStatus                                   *
;*                                                                           *
;*   Regs Modified     : A1,A2,A3,A4,V9,SP,LR,SR                             *
;*   Regs Used         : A1,A2,A3,A4,V9,SP,LR,SR                             *
;*   Local Frame Size  : 0 Args + 4 Auto + 4 Save = 8 byte                   *
;*****************************************************************************
NotifyProvisioningStatus:
;* --------------------------------------------------------------------------*
	.dwcfi	cfa_offset, 0
        PUSH      {A4, LR}              ; [DPU_V7M3_PIPE] 
	.dwcfi	cfa_offset, 8
	.dwcfi	save_reg_to_mem, 14, -4
	.dwcfi	save_reg_to_mem, 3, -8
$C$DW$281	.dwtag  DW_TAG_variable
	.dwattr $C$DW$281, DW_AT_name("status")
	.dwattr $C$DW$281, DW_AT_TI_symbol_name("status")
	.dwattr $C$DW$281, DW_AT_type(*$C$DW$T$323)
	.dwattr $C$DW$281, DW_AT_location[DW_OP_breg13 0]

$C$DW$282	.dwtag  DW_TAG_variable
	.dwattr $C$DW$282, DW_AT_name("data")
	.dwattr $C$DW$282, DW_AT_TI_symbol_name("data")
	.dwattr $C$DW$282, DW_AT_type(*$C$DW$T$87)
	.dwattr $C$DW$282, DW_AT_location[DW_OP_breg13 1]

;----------------------------------------------------------------------
; 724 | WifiConnEventData_u data;                                              
;----------------------------------------------------------------------
        STRB      A1, [SP, #0]          ; [DPU_V7M3_PIPE] |723| 
	.dwpsn	file "/vagrant/Q3_SDK_01/sdk_root/source/ti/drivers/net/wifi/slnetif/slwificonn.c",line 725,column 5,is_stmt,isa 1
;----------------------------------------------------------------------
; 725 | data.status = status;                                                  
;----------------------------------------------------------------------
        LDRB      A1, [SP, #0]          ; [DPU_V7M3_PIPE] |725| 
        STRB      A1, [SP, #1]          ; [DPU_V7M3_PIPE] |725| 
	.dwpsn	file "/vagrant/Q3_SDK_01/sdk_root/source/ti/drivers/net/wifi/slnetif/slwificonn.c",line 726,column 5,is_stmt,isa 1
;----------------------------------------------------------------------
; 726 | NotifyWifiApp(WifiConnEvent_PROVISIONING_STOPPED, &data);              
;----------------------------------------------------------------------
        ADD       A2, SP, #1            ; [DPU_V7M3_PIPE] |726| 
        MOVS      A1, #3                ; [DPU_V7M3_PIPE] |726| 
$C$DW$283	.dwtag  DW_TAG_TI_branch
	.dwattr $C$DW$283, DW_AT_low_pc(0x00)
	.dwattr $C$DW$283, DW_AT_name("NotifyWifiApp")
	.dwattr $C$DW$283, DW_AT_TI_call

        BL        NotifyWifiApp         ; [DPU_V7M3_PIPE] |726| 
        ; CALL OCCURS {NotifyWifiApp }   ; [] |726| 
	.dwpsn	file "/vagrant/Q3_SDK_01/sdk_root/source/ti/drivers/net/wifi/slnetif/slwificonn.c",line 727,column 5,is_stmt,isa 1
;----------------------------------------------------------------------
; 727 | return 0;                                                              
;----------------------------------------------------------------------
        MOVS      A1, #0                ; [DPU_V7M3_PIPE] |727| 
	.dwpsn	file "/vagrant/Q3_SDK_01/sdk_root/source/ti/drivers/net/wifi/slnetif/slwificonn.c",line 728,column 1,is_stmt,isa 1
$C$DW$284	.dwtag  DW_TAG_TI_branch
	.dwattr $C$DW$284, DW_AT_low_pc(0x00)
	.dwattr $C$DW$284, DW_AT_TI_return

        POP       {A4, PC}              ; [DPU_V7M3_PIPE] 
	.dwcfi	cfa_offset, 0
	.dwcfi	restore_reg, 3
        ; BRANCH OCCURS                  ; [] 
	.dwattr $C$DW$279, DW_AT_TI_end_file("/vagrant/Q3_SDK_01/sdk_root/source/ti/drivers/net/wifi/slnetif/slwificonn.c")
	.dwattr $C$DW$279, DW_AT_TI_end_line(0x2d8)
	.dwattr $C$DW$279, DW_AT_TI_end_column(0x01)
	.dwendentry
	.dwendtag $C$DW$279

	.sect	".text:SetApParams"
	.clink
	.thumbfunc SetApParams
	.thumb

$C$DW$285	.dwtag  DW_TAG_subprogram
	.dwattr $C$DW$285, DW_AT_name("SetApParams")
	.dwattr $C$DW$285, DW_AT_low_pc(SetApParams)
	.dwattr $C$DW$285, DW_AT_high_pc(0x00)
	.dwattr $C$DW$285, DW_AT_TI_symbol_name("SetApParams")
	.dwattr $C$DW$285, DW_AT_type(*$C$DW$T$10)
	.dwattr $C$DW$285, DW_AT_TI_begin_file("/vagrant/Q3_SDK_01/sdk_root/source/ti/drivers/net/wifi/slnetif/slwificonn.c")
	.dwattr $C$DW$285, DW_AT_TI_begin_line(0x2e3)
	.dwattr $C$DW$285, DW_AT_TI_begin_column(0x0c)
	.dwattr $C$DW$285, DW_AT_decl_file("/vagrant/Q3_SDK_01/sdk_root/source/ti/drivers/net/wifi/slnetif/slwificonn.c")
	.dwattr $C$DW$285, DW_AT_decl_line(0x2e3)
	.dwattr $C$DW$285, DW_AT_decl_column(0x0c)
	.dwattr $C$DW$285, DW_AT_TI_max_frame_size(0x08)
	.dwpsn	file "/vagrant/Q3_SDK_01/sdk_root/source/ti/drivers/net/wifi/slnetif/slwificonn.c",line 740,column 1,is_stmt,address SetApParams,isa 1

	.dwfde $C$DW$CIE, SetApParams
;----------------------------------------------------------------------
; 739 | static int SetApParams()                                               
;----------------------------------------------------------------------

;*****************************************************************************
;* FUNCTION NAME: SetApParams                                                *
;*                                                                           *
;*   Regs Modified     : A1,A2,A3,A4,V9,SP,LR,SR                             *
;*   Regs Used         : A1,A2,A3,A4,V9,SP,LR,SR                             *
;*   Local Frame Size  : 0 Args + 4 Auto + 4 Save = 8 byte                   *
;*****************************************************************************
SetApParams:
;* --------------------------------------------------------------------------*
	.dwcfi	cfa_offset, 0
        PUSH      {A4, LR}              ; [DPU_V7M3_PIPE] 
	.dwcfi	cfa_offset, 8
	.dwcfi	save_reg_to_mem, 14, -4
	.dwcfi	save_reg_to_mem, 3, -8
$C$DW$286	.dwtag  DW_TAG_variable
	.dwattr $C$DW$286, DW_AT_name("len")
	.dwattr $C$DW$286, DW_AT_TI_symbol_name("len")
	.dwattr $C$DW$286, DW_AT_type(*$C$DW$T$67)
	.dwattr $C$DW$286, DW_AT_location[DW_OP_breg13 0]

	.dwpsn	file "/vagrant/Q3_SDK_01/sdk_root/source/ti/drivers/net/wifi/slnetif/slwificonn.c",line 741,column 18,is_stmt,isa 1
;----------------------------------------------------------------------
; 741 | uint16_t len = 1;                                                      
;----------------------------------------------------------------------
        MOVS      A1, #1                ; [DPU_V7M3_PIPE] |741| 
        STRH      A1, [SP, #0]          ; [DPU_V7M3_PIPE] |741| 
	.dwpsn	file "/vagrant/Q3_SDK_01/sdk_root/source/ti/drivers/net/wifi/slnetif/slwificonn.c",line 743,column 5,is_stmt,isa 1
;----------------------------------------------------------------------
; 743 | if(g_settings.provisioningAP_ssid)                                     
;----------------------------------------------------------------------
        LDR       A1, $C$CON31          ; [DPU_V7M3_PIPE] |743| 
        LDR       A1, [A1, #0]          ; [DPU_V7M3_PIPE] |743| 
        CBZ       A1, ||$C$L48||        ; [] 
        ; BRANCHCC OCCURS {||$C$L48||}   ; [] |743| 
;* --------------------------------------------------------------------------*
	.dwpsn	file "/vagrant/Q3_SDK_01/sdk_root/source/ti/drivers/net/wifi/slnetif/slwificonn.c",line 745,column 9,is_stmt,isa 1
;----------------------------------------------------------------------
; 745 | len = strlen((char *)g_settings.provisioningAP_ssid);                  
;----------------------------------------------------------------------
        LDR       A1, $C$CON31          ; [DPU_V7M3_PIPE] |745| 
        LDR       A1, [A1, #0]          ; [DPU_V7M3_PIPE] |745| 
$C$DW$287	.dwtag  DW_TAG_TI_branch
	.dwattr $C$DW$287, DW_AT_low_pc(0x00)
	.dwattr $C$DW$287, DW_AT_name("strlen")
	.dwattr $C$DW$287, DW_AT_TI_call

        BL        strlen                ; [DPU_V7M3_PIPE] |745| 
        ; CALL OCCURS {strlen }          ; [] |745| 
        STRH      A1, [SP, #0]          ; [DPU_V7M3_PIPE] |745| 
	.dwpsn	file "/vagrant/Q3_SDK_01/sdk_root/source/ti/drivers/net/wifi/slnetif/slwificonn.c",line 746,column 9,is_stmt,isa 1
;----------------------------------------------------------------------
; 746 | sl_WlanSet(SL_WLAN_CFG_AP_ID, SL_WLAN_AP_OPT_SSID, len,                
; 747 |            (uint8_t *)g_settings.provisioningAP_ssid);                 
;----------------------------------------------------------------------
        LDR       A1, $C$CON31          ; [DPU_V7M3_PIPE] |746| 
        LDRH      A3, [SP, #0]          ; [DPU_V7M3_PIPE] |746| 
        LDR       A4, [A1, #0]          ; [DPU_V7M3_PIPE] |746| 
        MOVS      A2, #0                ; [DPU_V7M3_PIPE] |746| 
        MOVS      A1, #0                ; [DPU_V7M3_PIPE] |746| 
$C$DW$288	.dwtag  DW_TAG_TI_branch
	.dwattr $C$DW$288, DW_AT_low_pc(0x00)
	.dwattr $C$DW$288, DW_AT_name("sl_WlanSet")
	.dwattr $C$DW$288, DW_AT_TI_call

        BL        sl_WlanSet            ; [DPU_V7M3_PIPE] |746| 
        ; CALL OCCURS {sl_WlanSet }      ; [] |746| 
;* --------------------------------------------------------------------------*
||$C$L48||:    
	.dwpsn	file "/vagrant/Q3_SDK_01/sdk_root/source/ti/drivers/net/wifi/slnetif/slwificonn.c",line 749,column 5,is_stmt,isa 1
;----------------------------------------------------------------------
; 749 | sl_WlanSet(SL_WLAN_CFG_AP_ID, SL_WLAN_AP_OPT_SECURITY_TYPE, 1,         
; 750 |            &g_settings.provisioningAP_secType);                        
;----------------------------------------------------------------------
        LDR       A4, $C$CON32          ; [DPU_V7M3_PIPE] |749| 
        MOVS      A1, #0                ; [DPU_V7M3_PIPE] |749| 
        MOVS      A2, #6                ; [DPU_V7M3_PIPE] |749| 
        MOVS      A3, #1                ; [DPU_V7M3_PIPE] |749| 
$C$DW$289	.dwtag  DW_TAG_TI_branch
	.dwattr $C$DW$289, DW_AT_low_pc(0x00)
	.dwattr $C$DW$289, DW_AT_name("sl_WlanSet")
	.dwattr $C$DW$289, DW_AT_TI_call

        BL        sl_WlanSet            ; [DPU_V7M3_PIPE] |749| 
        ; CALL OCCURS {sl_WlanSet }      ; [] |749| 
	.dwpsn	file "/vagrant/Q3_SDK_01/sdk_root/source/ti/drivers/net/wifi/slnetif/slwificonn.c",line 752,column 5,is_stmt,isa 1
;----------------------------------------------------------------------
; 752 | if(g_settings.provisioningAP_secType != SL_WLAN_SEC_TYPE_OPEN)         
;----------------------------------------------------------------------
        LDR       A1, $C$CON32          ; [DPU_V7M3_PIPE] |752| 
        LDRB      A1, [A1, #0]          ; [DPU_V7M3_PIPE] |752| 
        CBZ       A1, ||$C$L49||        ; [] 
        ; BRANCHCC OCCURS {||$C$L49||}   ; [] |752| 
;* --------------------------------------------------------------------------*
	.dwpsn	file "/vagrant/Q3_SDK_01/sdk_root/source/ti/drivers/net/wifi/slnetif/slwificonn.c",line 754,column 9,is_stmt,isa 1
;----------------------------------------------------------------------
; 754 | len = strlen((char *)g_settings.provisioningAP_password);              
;----------------------------------------------------------------------
        LDR       A1, $C$CON33          ; [DPU_V7M3_PIPE] |754| 
        LDR       A1, [A1, #0]          ; [DPU_V7M3_PIPE] |754| 
$C$DW$290	.dwtag  DW_TAG_TI_branch
	.dwattr $C$DW$290, DW_AT_low_pc(0x00)
	.dwattr $C$DW$290, DW_AT_name("strlen")
	.dwattr $C$DW$290, DW_AT_TI_call

        BL        strlen                ; [DPU_V7M3_PIPE] |754| 
        ; CALL OCCURS {strlen }          ; [] |754| 
        STRH      A1, [SP, #0]          ; [DPU_V7M3_PIPE] |754| 
	.dwpsn	file "/vagrant/Q3_SDK_01/sdk_root/source/ti/drivers/net/wifi/slnetif/slwificonn.c",line 755,column 9,is_stmt,isa 1
;----------------------------------------------------------------------
; 755 | sl_WlanSet(SL_WLAN_CFG_AP_ID, SL_WLAN_AP_OPT_PASSWORD, len,            
; 756 |            (uint8_t *)g_settings.provisioningAP_password);             
;----------------------------------------------------------------------
        LDR       A1, $C$CON33          ; [DPU_V7M3_PIPE] |755| 
        LDRH      A3, [SP, #0]          ; [DPU_V7M3_PIPE] |755| 
        LDR       A4, [A1, #0]          ; [DPU_V7M3_PIPE] |755| 
        MOVS      A2, #7                ; [DPU_V7M3_PIPE] |755| 
        MOVS      A1, #0                ; [DPU_V7M3_PIPE] |755| 
$C$DW$291	.dwtag  DW_TAG_TI_branch
	.dwattr $C$DW$291, DW_AT_low_pc(0x00)
	.dwattr $C$DW$291, DW_AT_name("sl_WlanSet")
	.dwattr $C$DW$291, DW_AT_TI_call

        BL        sl_WlanSet            ; [DPU_V7M3_PIPE] |755| 
        ; CALL OCCURS {sl_WlanSet }      ; [] |755| 
	.dwpsn	file "/vagrant/Q3_SDK_01/sdk_root/source/ti/drivers/net/wifi/slnetif/slwificonn.c",line 757,column 9,is_stmt,isa 1
;----------------------------------------------------------------------
; 757 | g_fDebugPrint(" Setting AP secured parameters\n\r");                   
;----------------------------------------------------------------------
        LDR       A1, $C$CON34          ; [DPU_V7M3_PIPE] |757| 
        LDR       A1, [A1, #0]          ; [DPU_V7M3_PIPE] |757| 
        MOV       A2, A1                ; [DPU_V7M3_PIPE] |757| 
        ADR       A1, $C$SL37           ; [DPU_V7M3_PIPE] |757| 
$C$DW$292	.dwtag  DW_TAG_TI_branch
	.dwattr $C$DW$292, DW_AT_low_pc(0x00)
	.dwattr $C$DW$292, DW_AT_TI_call
	.dwattr $C$DW$292, DW_AT_TI_indirect

        BLX       A2                    ; [DPU_V7M3_PIPE] |757| 
        ; CALL OCCURS {}                 ; [] |757| 
;* --------------------------------------------------------------------------*
||$C$L49||:    
	.dwpsn	file "/vagrant/Q3_SDK_01/sdk_root/source/ti/drivers/net/wifi/slnetif/slwificonn.c",line 760,column 5,is_stmt,isa 1
;----------------------------------------------------------------------
; 760 | if (ROLE_AP == g_ctx->role)                                            
;----------------------------------------------------------------------
        LDR       A1, $C$CON35          ; [DPU_V7M3_PIPE] |760| 
        LDR       A1, [A1, #0]          ; [DPU_V7M3_PIPE] |760| 
        LDRB      A1, [A1, #21]         ; [DPU_V7M3_PIPE] |760| 
        CMP       A1, #2                ; [DPU_V7M3_PIPE] |760| 
        BNE       ||$C$L50||            ; [DPU_V7M3_PIPE] |760| 
        ; BRANCHCC OCCURS {||$C$L50||}   ; [] |760| 
;* --------------------------------------------------------------------------*
	.dwpsn	file "/vagrant/Q3_SDK_01/sdk_root/source/ti/drivers/net/wifi/slnetif/slwificonn.c",line 763,column 9,is_stmt,isa 1
;----------------------------------------------------------------------
; 763 | g_ctx->role = ResetNWP();                                              
;----------------------------------------------------------------------
$C$DW$293	.dwtag  DW_TAG_TI_branch
	.dwattr $C$DW$293, DW_AT_low_pc(0x00)
	.dwattr $C$DW$293, DW_AT_name("ResetNWP")
	.dwattr $C$DW$293, DW_AT_TI_call

        BL        ResetNWP              ; [DPU_V7M3_PIPE] |763| 
        ; CALL OCCURS {ResetNWP }        ; [] |763| 
        LDR       A2, $C$CON35          ; [DPU_V7M3_PIPE] |763| 
        LDR       A2, [A2, #0]          ; [DPU_V7M3_PIPE] |763| 
        STRB      A1, [A2, #21]         ; [DPU_V7M3_PIPE] |763| 
;* --------------------------------------------------------------------------*
||$C$L50||:    
	.dwpsn	file "/vagrant/Q3_SDK_01/sdk_root/source/ti/drivers/net/wifi/slnetif/slwificonn.c",line 765,column 5,is_stmt,isa 1
;----------------------------------------------------------------------
; 765 | return(0);                                                             
;----------------------------------------------------------------------
        MOVS      A1, #0                ; [DPU_V7M3_PIPE] |765| 
	.dwpsn	file "/vagrant/Q3_SDK_01/sdk_root/source/ti/drivers/net/wifi/slnetif/slwificonn.c",line 766,column 1,is_stmt,isa 1
$C$DW$294	.dwtag  DW_TAG_TI_branch
	.dwattr $C$DW$294, DW_AT_low_pc(0x00)
	.dwattr $C$DW$294, DW_AT_TI_return

        POP       {A4, PC}              ; [DPU_V7M3_PIPE] 
	.dwcfi	cfa_offset, 0
	.dwcfi	restore_reg, 3
        ; BRANCH OCCURS                  ; [] 
	.dwattr $C$DW$285, DW_AT_TI_end_file("/vagrant/Q3_SDK_01/sdk_root/source/ti/drivers/net/wifi/slnetif/slwificonn.c")
	.dwattr $C$DW$285, DW_AT_TI_end_line(0x2fe)
	.dwattr $C$DW$285, DW_AT_TI_end_column(0x01)
	.dwendentry
	.dwendtag $C$DW$285

	.sect	".text:EnterIDLE"
	.clink
	.thumbfunc EnterIDLE
	.thumb

$C$DW$295	.dwtag  DW_TAG_subprogram
	.dwattr $C$DW$295, DW_AT_name("EnterIDLE")
	.dwattr $C$DW$295, DW_AT_low_pc(EnterIDLE)
	.dwattr $C$DW$295, DW_AT_high_pc(0x00)
	.dwattr $C$DW$295, DW_AT_TI_symbol_name("EnterIDLE")
	.dwattr $C$DW$295, DW_AT_TI_begin_file("/vagrant/Q3_SDK_01/sdk_root/source/ti/drivers/net/wifi/slnetif/slwificonn.c")
	.dwattr $C$DW$295, DW_AT_TI_begin_line(0x30c)
	.dwattr $C$DW$295, DW_AT_TI_begin_column(0x0d)
	.dwattr $C$DW$295, DW_AT_decl_file("/vagrant/Q3_SDK_01/sdk_root/source/ti/drivers/net/wifi/slnetif/slwificonn.c")
	.dwattr $C$DW$295, DW_AT_decl_line(0x30c)
	.dwattr $C$DW$295, DW_AT_decl_column(0x0d)
	.dwattr $C$DW$295, DW_AT_TI_max_frame_size(0x08)
	.dwpsn	file "/vagrant/Q3_SDK_01/sdk_root/source/ti/drivers/net/wifi/slnetif/slwificonn.c",line 781,column 1,is_stmt,address EnterIDLE,isa 1

	.dwfde $C$DW$CIE, EnterIDLE
;----------------------------------------------------------------------
; 780 | static void EnterIDLE()                                                
;----------------------------------------------------------------------

;*****************************************************************************
;* FUNCTION NAME: EnterIDLE                                                  *
;*                                                                           *
;*   Regs Modified     : A1,A2,A3,A4,V9,SP,LR,SR                             *
;*   Regs Used         : A1,A2,A3,A4,V9,SP,LR,SR                             *
;*   Local Frame Size  : 0 Args + 0 Auto + 4 Save = 4 byte                   *
;*****************************************************************************
EnterIDLE:
;* --------------------------------------------------------------------------*
	.dwcfi	cfa_offset, 0
        PUSH      {A4, LR}              ; [DPU_V7M3_PIPE] 
	.dwcfi	cfa_offset, 8
	.dwcfi	save_reg_to_mem, 14, -4
	.dwcfi	save_reg_to_mem, 3, -8
	.dwpsn	file "/vagrant/Q3_SDK_01/sdk_root/source/ti/drivers/net/wifi/slnetif/slwificonn.c",line 782,column 5,is_stmt,isa 1
;----------------------------------------------------------------------
; 782 | SuspendNWP(true);                                                      
;----------------------------------------------------------------------
        MOVS      A1, #1                ; [DPU_V7M3_PIPE] |782| 
$C$DW$296	.dwtag  DW_TAG_TI_branch
	.dwattr $C$DW$296, DW_AT_low_pc(0x00)
	.dwattr $C$DW$296, DW_AT_name("SuspendNWP")
	.dwattr $C$DW$296, DW_AT_TI_call

        BL        SuspendNWP            ; [DPU_V7M3_PIPE] |782| 
        ; CALL OCCURS {SuspendNWP }      ; [] |782| 
	.dwpsn	file "/vagrant/Q3_SDK_01/sdk_root/source/ti/drivers/net/wifi/slnetif/slwificonn.c",line 783,column 5,is_stmt,isa 1
;----------------------------------------------------------------------
; 783 | StartAsyncEvtTimer(g_ctx->idleInterval);                               
;----------------------------------------------------------------------
        LDR       A1, $C$CON36          ; [DPU_V7M3_PIPE] |783| 
        LDR       A1, [A1, #0]          ; [DPU_V7M3_PIPE] |783| 
        LDRH      A1, [A1, #26]         ; [DPU_V7M3_PIPE] |783| 
$C$DW$297	.dwtag  DW_TAG_TI_branch
	.dwattr $C$DW$297, DW_AT_low_pc(0x00)
	.dwattr $C$DW$297, DW_AT_name("StartAsyncEvtTimer")
	.dwattr $C$DW$297, DW_AT_TI_call

        BL        StartAsyncEvtTimer    ; [DPU_V7M3_PIPE] |783| 
        ; CALL OCCURS {StartAsyncEvtTimer }  ; [] |783| 
	.dwpsn	file "/vagrant/Q3_SDK_01/sdk_root/source/ti/drivers/net/wifi/slnetif/slwificonn.c",line 784,column 5,is_stmt,isa 1
;----------------------------------------------------------------------
; 784 | g_ctx->idleInterval *= 2;                                              
;----------------------------------------------------------------------
        LDR       A1, $C$CON36          ; [DPU_V7M3_PIPE] |784| 
        LDR       A1, [A1, #0]          ; [DPU_V7M3_PIPE] |784| 
        LDRH      A2, [A1, #26]         ; [DPU_V7M3_PIPE] |784| 
        LSLS      A2, A2, #1            ; [DPU_V7M3_PIPE] |784| 
        STRH      A2, [A1, #26]         ; [DPU_V7M3_PIPE] |784| 
	.dwpsn	file "/vagrant/Q3_SDK_01/sdk_root/source/ti/drivers/net/wifi/slnetif/slwificonn.c",line 785,column 5,is_stmt,isa 1
;----------------------------------------------------------------------
; 785 | if(g_ctx->idleInterval > g_settings.idleMaxInterval)                   
;----------------------------------------------------------------------
        LDR       A2, $C$CON36          ; [DPU_V7M3_PIPE] |785| 
        LDR       A1, $C$CON37          ; [DPU_V7M3_PIPE] |785| 
        LDR       A2, [A2, #0]          ; [DPU_V7M3_PIPE] |785| 
        LDRH      A1, [A1, #0]          ; [DPU_V7M3_PIPE] |785| 
        LDRH      A2, [A2, #26]         ; [DPU_V7M3_PIPE] |785| 
        CMP       A1, A2                ; [DPU_V7M3_PIPE] |785| 
        BGE       ||$C$L51||            ; [DPU_V7M3_PIPE] |785| 
        ; BRANCHCC OCCURS {||$C$L51||}   ; [] |785| 
;* --------------------------------------------------------------------------*
	.dwpsn	file "/vagrant/Q3_SDK_01/sdk_root/source/ti/drivers/net/wifi/slnetif/slwificonn.c",line 787,column 9,is_stmt,isa 1
;----------------------------------------------------------------------
; 787 | g_ctx->idleInterval = g_settings.idleMaxInterval;                      
;----------------------------------------------------------------------
        LDR       A1, $C$CON37          ; [DPU_V7M3_PIPE] |787| 
        LDR       A2, $C$CON36          ; [DPU_V7M3_PIPE] |787| 
        LDRH      A1, [A1, #0]          ; [DPU_V7M3_PIPE] |787| 
        LDR       A2, [A2, #0]          ; [DPU_V7M3_PIPE] |787| 
        STRH      A1, [A2, #26]         ; [DPU_V7M3_PIPE] |787| 
;* --------------------------------------------------------------------------*
||$C$L51||:    
	.dwpsn	file "/vagrant/Q3_SDK_01/sdk_root/source/ti/drivers/net/wifi/slnetif/slwificonn.c",line 789,column 5,is_stmt,isa 1
;----------------------------------------------------------------------
; 789 | SetState(SLWIFICONN_STATE_IDLE);                                       
;----------------------------------------------------------------------
        MOVS      A1, #1                ; [DPU_V7M3_PIPE] |789| 
$C$DW$298	.dwtag  DW_TAG_TI_branch
	.dwattr $C$DW$298, DW_AT_low_pc(0x00)
	.dwattr $C$DW$298, DW_AT_name("SetState")
	.dwattr $C$DW$298, DW_AT_TI_call

        BL        SetState              ; [DPU_V7M3_PIPE] |789| 
        ; CALL OCCURS {SetState }        ; [] |789| 
	.dwpsn	file "/vagrant/Q3_SDK_01/sdk_root/source/ti/drivers/net/wifi/slnetif/slwificonn.c",line 790,column 1,is_stmt,isa 1
$C$DW$299	.dwtag  DW_TAG_TI_branch
	.dwattr $C$DW$299, DW_AT_low_pc(0x00)
	.dwattr $C$DW$299, DW_AT_TI_return

        POP       {A4, PC}              ; [DPU_V7M3_PIPE] 
	.dwcfi	cfa_offset, 0
	.dwcfi	restore_reg, 3
        ; BRANCH OCCURS                  ; [] 
	.dwattr $C$DW$295, DW_AT_TI_end_file("/vagrant/Q3_SDK_01/sdk_root/source/ti/drivers/net/wifi/slnetif/slwificonn.c")
	.dwattr $C$DW$295, DW_AT_TI_end_line(0x316)
	.dwattr $C$DW$295, DW_AT_TI_end_column(0x01)
	.dwendentry
	.dwendtag $C$DW$295

	.sect	".text:EnterWAIT_FOR_CONN"
	.clink
	.thumbfunc EnterWAIT_FOR_CONN
	.thumb

$C$DW$300	.dwtag  DW_TAG_subprogram
	.dwattr $C$DW$300, DW_AT_name("EnterWAIT_FOR_CONN")
	.dwattr $C$DW$300, DW_AT_low_pc(EnterWAIT_FOR_CONN)
	.dwattr $C$DW$300, DW_AT_high_pc(0x00)
	.dwattr $C$DW$300, DW_AT_TI_symbol_name("EnterWAIT_FOR_CONN")
	.dwattr $C$DW$300, DW_AT_TI_begin_file("/vagrant/Q3_SDK_01/sdk_root/source/ti/drivers/net/wifi/slnetif/slwificonn.c")
	.dwattr $C$DW$300, DW_AT_TI_begin_line(0x322)
	.dwattr $C$DW$300, DW_AT_TI_begin_column(0x0d)
	.dwattr $C$DW$300, DW_AT_decl_file("/vagrant/Q3_SDK_01/sdk_root/source/ti/drivers/net/wifi/slnetif/slwificonn.c")
	.dwattr $C$DW$300, DW_AT_decl_line(0x322)
	.dwattr $C$DW$300, DW_AT_decl_column(0x0d)
	.dwattr $C$DW$300, DW_AT_TI_max_frame_size(0x08)
	.dwpsn	file "/vagrant/Q3_SDK_01/sdk_root/source/ti/drivers/net/wifi/slnetif/slwificonn.c",line 803,column 1,is_stmt,address EnterWAIT_FOR_CONN,isa 1

	.dwfde $C$DW$CIE, EnterWAIT_FOR_CONN
$C$DW$301	.dwtag  DW_TAG_formal_parameter
	.dwattr $C$DW$301, DW_AT_name("timeout")
	.dwattr $C$DW$301, DW_AT_TI_symbol_name("timeout")
	.dwattr $C$DW$301, DW_AT_type(*$C$DW$T$10)
	.dwattr $C$DW$301, DW_AT_location[DW_OP_reg0]

$C$DW$302	.dwtag  DW_TAG_formal_parameter
	.dwattr $C$DW$302, DW_AT_name("bWlanDisconnect")
	.dwattr $C$DW$302, DW_AT_TI_symbol_name("bWlanDisconnect")
	.dwattr $C$DW$302, DW_AT_type(*$C$DW$T$10)
	.dwattr $C$DW$302, DW_AT_location[DW_OP_reg1]

;----------------------------------------------------------------------
; 802 | static void EnterWAIT_FOR_CONN(uint16_t timeout, bool bWlanDisconnect) 
;----------------------------------------------------------------------

;*****************************************************************************
;* FUNCTION NAME: EnterWAIT_FOR_CONN                                         *
;*                                                                           *
;*   Regs Modified     : A1,A2,A3,A4,V9,SP,LR,SR                             *
;*   Regs Used         : A1,A2,A3,A4,V9,SP,LR,SR                             *
;*   Local Frame Size  : 0 Args + 4 Auto + 4 Save = 8 byte                   *
;*****************************************************************************
EnterWAIT_FOR_CONN:
;* --------------------------------------------------------------------------*
	.dwcfi	cfa_offset, 0
        PUSH      {A4, LR}              ; [DPU_V7M3_PIPE] 
	.dwcfi	cfa_offset, 8
	.dwcfi	save_reg_to_mem, 14, -4
	.dwcfi	save_reg_to_mem, 3, -8
$C$DW$303	.dwtag  DW_TAG_variable
	.dwattr $C$DW$303, DW_AT_name("timeout")
	.dwattr $C$DW$303, DW_AT_TI_symbol_name("timeout")
	.dwattr $C$DW$303, DW_AT_type(*$C$DW$T$67)
	.dwattr $C$DW$303, DW_AT_location[DW_OP_breg13 0]

$C$DW$304	.dwtag  DW_TAG_variable
	.dwattr $C$DW$304, DW_AT_name("bWlanDisconnect")
	.dwattr $C$DW$304, DW_AT_TI_symbol_name("bWlanDisconnect")
	.dwattr $C$DW$304, DW_AT_type(*$C$DW$T$94)
	.dwattr $C$DW$304, DW_AT_location[DW_OP_breg13 2]

        STRB      A2, [SP, #2]          ; [DPU_V7M3_PIPE] |803| 
        STRH      A1, [SP, #0]          ; [DPU_V7M3_PIPE] |803| 
	.dwpsn	file "/vagrant/Q3_SDK_01/sdk_root/source/ti/drivers/net/wifi/slnetif/slwificonn.c",line 804,column 5,is_stmt,isa 1
;----------------------------------------------------------------------
; 804 | DeferredEvent_process();                                               
;----------------------------------------------------------------------
$C$DW$305	.dwtag  DW_TAG_TI_branch
	.dwattr $C$DW$305, DW_AT_low_pc(0x00)
	.dwattr $C$DW$305, DW_AT_name("DeferredEvent_process")
	.dwattr $C$DW$305, DW_AT_TI_call

        BL        DeferredEvent_process ; [DPU_V7M3_PIPE] |804| 
        ; CALL OCCURS {DeferredEvent_process }  ; [] |804| 
	.dwpsn	file "/vagrant/Q3_SDK_01/sdk_root/source/ti/drivers/net/wifi/slnetif/slwificonn.c",line 805,column 5,is_stmt,isa 1
;----------------------------------------------------------------------
; 805 | NonPersistentProfile_process(bWlanDisconnect);                         
;----------------------------------------------------------------------
        LDRB      A1, [SP, #2]          ; [DPU_V7M3_PIPE] |805| 
$C$DW$306	.dwtag  DW_TAG_TI_branch
	.dwattr $C$DW$306, DW_AT_low_pc(0x00)
	.dwattr $C$DW$306, DW_AT_name("NonPersistentProfile_process")
	.dwattr $C$DW$306, DW_AT_TI_call

        BL        NonPersistentProfile_process ; [DPU_V7M3_PIPE] |805| 
        ; CALL OCCURS {NonPersistentProfile_process }  ; [] |805| 
	.dwpsn	file "/vagrant/Q3_SDK_01/sdk_root/source/ti/drivers/net/wifi/slnetif/slwificonn.c",line 806,column 5,is_stmt,isa 1
;----------------------------------------------------------------------
; 806 | StartAsyncEvtTimer(timeout);                                           
;----------------------------------------------------------------------
        LDRH      A1, [SP, #0]          ; [DPU_V7M3_PIPE] |806| 
$C$DW$307	.dwtag  DW_TAG_TI_branch
	.dwattr $C$DW$307, DW_AT_low_pc(0x00)
	.dwattr $C$DW$307, DW_AT_name("StartAsyncEvtTimer")
	.dwattr $C$DW$307, DW_AT_TI_call

        BL        StartAsyncEvtTimer    ; [DPU_V7M3_PIPE] |806| 
        ; CALL OCCURS {StartAsyncEvtTimer }  ; [] |806| 
	.dwpsn	file "/vagrant/Q3_SDK_01/sdk_root/source/ti/drivers/net/wifi/slnetif/slwificonn.c",line 807,column 5,is_stmt,isa 1
;----------------------------------------------------------------------
; 807 | SetState(SLWIFICONN_STATE_WAIT_FOR_CONN);                              
;----------------------------------------------------------------------
        MOVS      A1, #2                ; [DPU_V7M3_PIPE] |807| 
$C$DW$308	.dwtag  DW_TAG_TI_branch
	.dwattr $C$DW$308, DW_AT_low_pc(0x00)
	.dwattr $C$DW$308, DW_AT_name("SetState")
	.dwattr $C$DW$308, DW_AT_TI_call

        BL        SetState              ; [DPU_V7M3_PIPE] |807| 
        ; CALL OCCURS {SetState }        ; [] |807| 
	.dwpsn	file "/vagrant/Q3_SDK_01/sdk_root/source/ti/drivers/net/wifi/slnetif/slwificonn.c",line 808,column 1,is_stmt,isa 1
$C$DW$309	.dwtag  DW_TAG_TI_branch
	.dwattr $C$DW$309, DW_AT_low_pc(0x00)
	.dwattr $C$DW$309, DW_AT_TI_return

        POP       {A4, PC}              ; [DPU_V7M3_PIPE] 
	.dwcfi	cfa_offset, 0
	.dwcfi	restore_reg, 3
        ; BRANCH OCCURS                  ; [] 
	.dwattr $C$DW$300, DW_AT_TI_end_file("/vagrant/Q3_SDK_01/sdk_root/source/ti/drivers/net/wifi/slnetif/slwificonn.c")
	.dwattr $C$DW$300, DW_AT_TI_end_line(0x328)
	.dwattr $C$DW$300, DW_AT_TI_end_column(0x01)
	.dwendentry
	.dwendtag $C$DW$300

	.sect	".text:EnterWAIT_FOR_IP"
	.clink
	.thumbfunc EnterWAIT_FOR_IP
	.thumb

$C$DW$310	.dwtag  DW_TAG_subprogram
	.dwattr $C$DW$310, DW_AT_name("EnterWAIT_FOR_IP")
	.dwattr $C$DW$310, DW_AT_low_pc(EnterWAIT_FOR_IP)
	.dwattr $C$DW$310, DW_AT_high_pc(0x00)
	.dwattr $C$DW$310, DW_AT_TI_symbol_name("EnterWAIT_FOR_IP")
	.dwattr $C$DW$310, DW_AT_TI_begin_file("/vagrant/Q3_SDK_01/sdk_root/source/ti/drivers/net/wifi/slnetif/slwificonn.c")
	.dwattr $C$DW$310, DW_AT_TI_begin_line(0x334)
	.dwattr $C$DW$310, DW_AT_TI_begin_column(0x0d)
	.dwattr $C$DW$310, DW_AT_decl_file("/vagrant/Q3_SDK_01/sdk_root/source/ti/drivers/net/wifi/slnetif/slwificonn.c")
	.dwattr $C$DW$310, DW_AT_decl_line(0x334)
	.dwattr $C$DW$310, DW_AT_decl_column(0x0d)
	.dwattr $C$DW$310, DW_AT_TI_max_frame_size(0x20)
	.dwpsn	file "/vagrant/Q3_SDK_01/sdk_root/source/ti/drivers/net/wifi/slnetif/slwificonn.c",line 821,column 1,is_stmt,address EnterWAIT_FOR_IP,isa 1

	.dwfde $C$DW$CIE, EnterWAIT_FOR_IP
;----------------------------------------------------------------------
; 820 | static void EnterWAIT_FOR_IP()                                         
; 822 | int retVal;                                                            
; 823 | uint16_t len , ConfigOpt;                                              
; 824 | SlNetCfgIpV4Args_t ipV4;                                               
;----------------------------------------------------------------------

;*****************************************************************************
;* FUNCTION NAME: EnterWAIT_FOR_IP                                           *
;*                                                                           *
;*   Regs Modified     : A1,A2,A3,A4,V9,SP,LR,SR                             *
;*   Regs Used         : A1,A2,A3,A4,V9,SP,LR,SR                             *
;*   Local Frame Size  : 0 Args + 24 Auto + 4 Save = 28 byte                 *
;*****************************************************************************
EnterWAIT_FOR_IP:
;* --------------------------------------------------------------------------*
	.dwcfi	cfa_offset, 0
        PUSH      {LR}                  ; [DPU_V7M3_PIPE] 
	.dwcfi	cfa_offset, 4
	.dwcfi	save_reg_to_mem, 14, -4
        SUB       SP, SP, #28           ; [DPU_V7M3_PIPE] 
	.dwcfi	cfa_offset, 32
$C$DW$311	.dwtag  DW_TAG_variable
	.dwattr $C$DW$311, DW_AT_name("ipV4")
	.dwattr $C$DW$311, DW_AT_TI_symbol_name("ipV4")
	.dwattr $C$DW$311, DW_AT_type(*$C$DW$T$684)
	.dwattr $C$DW$311, DW_AT_location[DW_OP_breg13 0]

$C$DW$312	.dwtag  DW_TAG_variable
	.dwattr $C$DW$312, DW_AT_name("retVal")
	.dwattr $C$DW$312, DW_AT_TI_symbol_name("retVal")
	.dwattr $C$DW$312, DW_AT_type(*$C$DW$T$10)
	.dwattr $C$DW$312, DW_AT_location[DW_OP_breg13 16]

$C$DW$313	.dwtag  DW_TAG_variable
	.dwattr $C$DW$313, DW_AT_name("len")
	.dwattr $C$DW$313, DW_AT_TI_symbol_name("len")
	.dwattr $C$DW$313, DW_AT_type(*$C$DW$T$67)
	.dwattr $C$DW$313, DW_AT_location[DW_OP_breg13 20]

$C$DW$314	.dwtag  DW_TAG_variable
	.dwattr $C$DW$314, DW_AT_name("ConfigOpt")
	.dwattr $C$DW$314, DW_AT_TI_symbol_name("ConfigOpt")
	.dwattr $C$DW$314, DW_AT_type(*$C$DW$T$67)
	.dwattr $C$DW$314, DW_AT_location[DW_OP_breg13 22]

	.dwpsn	file "/vagrant/Q3_SDK_01/sdk_root/source/ti/drivers/net/wifi/slnetif/slwificonn.c",line 826,column 5,is_stmt,isa 1
;----------------------------------------------------------------------
; 826 | NotifyNetIf(SLNETIF_MAC_CONNECT, 0);                                   
;----------------------------------------------------------------------
        MOVS      A1, #1                ; [DPU_V7M3_PIPE] |826| 
        MOVS      A2, #0                ; [DPU_V7M3_PIPE] |826| 
$C$DW$315	.dwtag  DW_TAG_TI_branch
	.dwattr $C$DW$315, DW_AT_low_pc(0x00)
	.dwattr $C$DW$315, DW_AT_name("NotifyNetIf")
	.dwattr $C$DW$315, DW_AT_TI_call

        BL        NotifyNetIf           ; [DPU_V7M3_PIPE] |826| 
        ; CALL OCCURS {NotifyNetIf }     ; [] |826| 
	.dwpsn	file "/vagrant/Q3_SDK_01/sdk_root/source/ti/drivers/net/wifi/slnetif/slwificonn.c",line 828,column 5,is_stmt,isa 1
;----------------------------------------------------------------------
; 828 | len = sizeof(SlNetCfgIpV4Args_t);                                      
;----------------------------------------------------------------------
        MOVS      A1, #16               ; [DPU_V7M3_PIPE] |828| 
        STRH      A1, [SP, #20]         ; [DPU_V7M3_PIPE] |828| 
	.dwpsn	file "/vagrant/Q3_SDK_01/sdk_root/source/ti/drivers/net/wifi/slnetif/slwificonn.c",line 829,column 5,is_stmt,isa 1
;----------------------------------------------------------------------
; 829 | ConfigOpt = 0;                                                         
;----------------------------------------------------------------------
        MOVS      A1, #0                ; [DPU_V7M3_PIPE] |829| 
        STRH      A1, [SP, #22]         ; [DPU_V7M3_PIPE] |829| 
	.dwpsn	file "/vagrant/Q3_SDK_01/sdk_root/source/ti/drivers/net/wifi/slnetif/slwificonn.c",line 830,column 5,is_stmt,isa 1
;----------------------------------------------------------------------
; 830 | retVal = sl_NetCfgGet(SL_NETCFG_IPV4_STA_ADDR_MODE, &ConfigOpt, &len, (
;     | uint8_t *)&ipV4);                                                      
;----------------------------------------------------------------------
        MOVS      A1, #7                ; [DPU_V7M3_PIPE] |830| 
        ADD       A2, SP, #22           ; [DPU_V7M3_PIPE] |830| 
        ADD       A3, SP, #20           ; [DPU_V7M3_PIPE] |830| 
        MOV       A4, SP                ; [DPU_V7M3_PIPE] |830| 
$C$DW$316	.dwtag  DW_TAG_TI_branch
	.dwattr $C$DW$316, DW_AT_low_pc(0x00)
	.dwattr $C$DW$316, DW_AT_name("sl_NetCfgGet")
	.dwattr $C$DW$316, DW_AT_TI_call

        BL        sl_NetCfgGet          ; [DPU_V7M3_PIPE] |830| 
        ; CALL OCCURS {sl_NetCfgGet }    ; [] |830| 
        STR       A1, [SP, #16]         ; [DPU_V7M3_PIPE] |830| 
	.dwpsn	file "/vagrant/Q3_SDK_01/sdk_root/source/ti/drivers/net/wifi/slnetif/slwificonn.c",line 831,column 5,is_stmt,isa 1
;----------------------------------------------------------------------
; 831 | if(retVal == 0 && ConfigOpt == SL_NETCFG_ADDR_STATIC && ipV4.Ip == 0)  
;----------------------------------------------------------------------
        LDR       A1, [SP, #16]         ; [DPU_V7M3_PIPE] |831| 
        CBNZ      A1, ||$C$L52||        ; [] 
        ; BRANCHCC OCCURS {||$C$L52||}   ; [] |831| 
;* --------------------------------------------------------------------------*
        LDRH      A1, [SP, #22]         ; [DPU_V7M3_PIPE] |831| 
        CMP       A1, #4                ; [DPU_V7M3_PIPE] |831| 
        BNE       ||$C$L52||            ; [DPU_V7M3_PIPE] |831| 
        ; BRANCHCC OCCURS {||$C$L52||}   ; [] |831| 
;* --------------------------------------------------------------------------*
        LDR       A1, [SP, #0]          ; [DPU_V7M3_PIPE] |831| 
        CBNZ      A1, ||$C$L52||        ; [] 
        ; BRANCHCC OCCURS {||$C$L52||}   ; [] |831| 
;* --------------------------------------------------------------------------*
	.dwpsn	file "/vagrant/Q3_SDK_01/sdk_root/source/ti/drivers/net/wifi/slnetif/slwificonn.c",line 838,column 9,is_stmt,isa 1
;----------------------------------------------------------------------
; 838 | EnterCONNECTED(false);                                                 
; 840 | else                                                                   
;----------------------------------------------------------------------
        MOVS      A1, #0                ; [DPU_V7M3_PIPE] |838| 
$C$DW$317	.dwtag  DW_TAG_TI_branch
	.dwattr $C$DW$317, DW_AT_low_pc(0x00)
	.dwattr $C$DW$317, DW_AT_name("EnterCONNECTED")
	.dwattr $C$DW$317, DW_AT_TI_call

        BL        EnterCONNECTED        ; [DPU_V7M3_PIPE] |838| 
        ; CALL OCCURS {EnterCONNECTED }  ; [] |838| 
        B         ||$C$L53||            ; [DPU_V7M3_PIPE] 
        ; BRANCH OCCURS {||$C$L53||}     ; [] 
;* --------------------------------------------------------------------------*
||$C$L52||:    
	.dwpsn	file "/vagrant/Q3_SDK_01/sdk_root/source/ti/drivers/net/wifi/slnetif/slwificonn.c",line 842,column 9,is_stmt,isa 1
;----------------------------------------------------------------------
; 842 | StartAsyncEvtTimer(g_settings.ipTimeout);                              
;----------------------------------------------------------------------
        LDR       A1, $C$CON38          ; [DPU_V7M3_PIPE] |842| 
        LDRH      A1, [A1, #0]          ; [DPU_V7M3_PIPE] |842| 
$C$DW$318	.dwtag  DW_TAG_TI_branch
	.dwattr $C$DW$318, DW_AT_low_pc(0x00)
	.dwattr $C$DW$318, DW_AT_name("StartAsyncEvtTimer")
	.dwattr $C$DW$318, DW_AT_TI_call

        BL        StartAsyncEvtTimer    ; [DPU_V7M3_PIPE] |842| 
        ; CALL OCCURS {StartAsyncEvtTimer }  ; [] |842| 
	.dwpsn	file "/vagrant/Q3_SDK_01/sdk_root/source/ti/drivers/net/wifi/slnetif/slwificonn.c",line 843,column 9,is_stmt,isa 1
;----------------------------------------------------------------------
; 843 | SetState(SLWIFICONN_STATE_WAIT_FOR_IP);                                
;----------------------------------------------------------------------
        MOVS      A1, #3                ; [DPU_V7M3_PIPE] |843| 
$C$DW$319	.dwtag  DW_TAG_TI_branch
	.dwattr $C$DW$319, DW_AT_low_pc(0x00)
	.dwattr $C$DW$319, DW_AT_name("SetState")
	.dwattr $C$DW$319, DW_AT_TI_call

        BL        SetState              ; [DPU_V7M3_PIPE] |843| 
        ; CALL OCCURS {SetState }        ; [] |843| 
	.dwpsn	file "/vagrant/Q3_SDK_01/sdk_root/source/ti/drivers/net/wifi/slnetif/slwificonn.c",line 845,column 1,is_stmt,isa 1
;* --------------------------------------------------------------------------*
||$C$L53||:    
        ADD       SP, SP, #28           ; [DPU_V7M3_PIPE] 
	.dwcfi	cfa_offset, 4
$C$DW$320	.dwtag  DW_TAG_TI_branch
	.dwattr $C$DW$320, DW_AT_low_pc(0x00)
	.dwattr $C$DW$320, DW_AT_TI_return

        POP       {PC}                  ; [DPU_V7M3_PIPE] 
	.dwcfi	cfa_offset, 0
        ; BRANCH OCCURS                  ; [] 
	.dwattr $C$DW$310, DW_AT_TI_end_file("/vagrant/Q3_SDK_01/sdk_root/source/ti/drivers/net/wifi/slnetif/slwificonn.c")
	.dwattr $C$DW$310, DW_AT_TI_end_line(0x34d)
	.dwattr $C$DW$310, DW_AT_TI_end_column(0x01)
	.dwendentry
	.dwendtag $C$DW$310

	.sect	".text:EnterCONNECTED"
	.clink
	.thumbfunc EnterCONNECTED
	.thumb

$C$DW$321	.dwtag  DW_TAG_subprogram
	.dwattr $C$DW$321, DW_AT_name("EnterCONNECTED")
	.dwattr $C$DW$321, DW_AT_low_pc(EnterCONNECTED)
	.dwattr $C$DW$321, DW_AT_high_pc(0x00)
	.dwattr $C$DW$321, DW_AT_TI_symbol_name("EnterCONNECTED")
	.dwattr $C$DW$321, DW_AT_TI_begin_file("/vagrant/Q3_SDK_01/sdk_root/source/ti/drivers/net/wifi/slnetif/slwificonn.c")
	.dwattr $C$DW$321, DW_AT_TI_begin_line(0x359)
	.dwattr $C$DW$321, DW_AT_TI_begin_column(0x0d)
	.dwattr $C$DW$321, DW_AT_decl_file("/vagrant/Q3_SDK_01/sdk_root/source/ti/drivers/net/wifi/slnetif/slwificonn.c")
	.dwattr $C$DW$321, DW_AT_decl_line(0x359)
	.dwattr $C$DW$321, DW_AT_decl_column(0x0d)
	.dwattr $C$DW$321, DW_AT_TI_max_frame_size(0x08)
	.dwpsn	file "/vagrant/Q3_SDK_01/sdk_root/source/ti/drivers/net/wifi/slnetif/slwificonn.c",line 858,column 1,is_stmt,address EnterCONNECTED,isa 1

	.dwfde $C$DW$CIE, EnterCONNECTED
$C$DW$322	.dwtag  DW_TAG_formal_parameter
	.dwattr $C$DW$322, DW_AT_name("bNotify")
	.dwattr $C$DW$322, DW_AT_TI_symbol_name("bNotify")
	.dwattr $C$DW$322, DW_AT_type(*$C$DW$T$10)
	.dwattr $C$DW$322, DW_AT_location[DW_OP_reg0]

;----------------------------------------------------------------------
; 857 | static void EnterCONNECTED(bool bNotify)                               
;----------------------------------------------------------------------

;*****************************************************************************
;* FUNCTION NAME: EnterCONNECTED                                             *
;*                                                                           *
;*   Regs Modified     : A1,A2,A3,A4,V9,SP,LR,SR                             *
;*   Regs Used         : A1,A2,A3,A4,V9,SP,LR,SR                             *
;*   Local Frame Size  : 0 Args + 4 Auto + 4 Save = 8 byte                   *
;*****************************************************************************
EnterCONNECTED:
;* --------------------------------------------------------------------------*
	.dwcfi	cfa_offset, 0
        PUSH      {A4, LR}              ; [DPU_V7M3_PIPE] 
	.dwcfi	cfa_offset, 8
	.dwcfi	save_reg_to_mem, 14, -4
	.dwcfi	save_reg_to_mem, 3, -8
$C$DW$323	.dwtag  DW_TAG_variable
	.dwattr $C$DW$323, DW_AT_name("bNotify")
	.dwattr $C$DW$323, DW_AT_TI_symbol_name("bNotify")
	.dwattr $C$DW$323, DW_AT_type(*$C$DW$T$94)
	.dwattr $C$DW$323, DW_AT_location[DW_OP_breg13 0]

        STRB      A1, [SP, #0]          ; [DPU_V7M3_PIPE] |858| 
	.dwpsn	file "/vagrant/Q3_SDK_01/sdk_root/source/ti/drivers/net/wifi/slnetif/slwificonn.c",line 859,column 5,is_stmt,isa 1
;----------------------------------------------------------------------
; 859 | StopAsyncEvtTimer();                                                   
;----------------------------------------------------------------------
$C$DW$324	.dwtag  DW_TAG_TI_branch
	.dwattr $C$DW$324, DW_AT_low_pc(0x00)
	.dwattr $C$DW$324, DW_AT_name("StopAsyncEvtTimer")
	.dwattr $C$DW$324, DW_AT_TI_call

        BL        StopAsyncEvtTimer     ; [DPU_V7M3_PIPE] |859| 
        ; CALL OCCURS {StopAsyncEvtTimer }  ; [] |859| 
	.dwpsn	file "/vagrant/Q3_SDK_01/sdk_root/source/ti/drivers/net/wifi/slnetif/slwificonn.c",line 860,column 5,is_stmt,isa 1
;----------------------------------------------------------------------
; 860 | if(bNotify)                                                            
;----------------------------------------------------------------------
        LDRB      A1, [SP, #0]          ; [DPU_V7M3_PIPE] |860| 
        CBZ       A1, ||$C$L54||        ; [] 
        ; BRANCHCC OCCURS {||$C$L54||}   ; [] |860| 
;* --------------------------------------------------------------------------*
	.dwpsn	file "/vagrant/Q3_SDK_01/sdk_root/source/ti/drivers/net/wifi/slnetif/slwificonn.c",line 862,column 9,is_stmt,isa 1
;----------------------------------------------------------------------
; 862 | NotifyNetIf(SLNETIF_IP_AQUIRED, 0);                                    
;----------------------------------------------------------------------
        MOVS      A1, #2                ; [DPU_V7M3_PIPE] |862| 
        MOVS      A2, #0                ; [DPU_V7M3_PIPE] |862| 
$C$DW$325	.dwtag  DW_TAG_TI_branch
	.dwattr $C$DW$325, DW_AT_low_pc(0x00)
	.dwattr $C$DW$325, DW_AT_name("NotifyNetIf")
	.dwattr $C$DW$325, DW_AT_TI_call

        BL        NotifyNetIf           ; [DPU_V7M3_PIPE] |862| 
        ; CALL OCCURS {NotifyNetIf }     ; [] |862| 
;* --------------------------------------------------------------------------*
||$C$L54||:    
	.dwpsn	file "/vagrant/Q3_SDK_01/sdk_root/source/ti/drivers/net/wifi/slnetif/slwificonn.c",line 864,column 5,is_stmt,isa 1
;----------------------------------------------------------------------
; 864 | g_ctx->idleInterval = g_settings.idleMinInterval;                      
;----------------------------------------------------------------------
        LDR       A1, $C$CON40          ; [DPU_V7M3_PIPE] |864| 
        LDR       A2, $C$CON39          ; [DPU_V7M3_PIPE] |864| 
        LDRH      A1, [A1, #0]          ; [DPU_V7M3_PIPE] |864| 
        LDR       A2, [A2, #0]          ; [DPU_V7M3_PIPE] |864| 
        STRH      A1, [A2, #26]         ; [DPU_V7M3_PIPE] |864| 
	.dwpsn	file "/vagrant/Q3_SDK_01/sdk_root/source/ti/drivers/net/wifi/slnetif/slwificonn.c",line 865,column 5,is_stmt,isa 1
;----------------------------------------------------------------------
; 865 | SetState(SLWIFICONN_STATE_CONNECTED);                                  
;----------------------------------------------------------------------
        MOVS      A1, #4                ; [DPU_V7M3_PIPE] |865| 
$C$DW$326	.dwtag  DW_TAG_TI_branch
	.dwattr $C$DW$326, DW_AT_low_pc(0x00)
	.dwattr $C$DW$326, DW_AT_name("SetState")
	.dwattr $C$DW$326, DW_AT_TI_call

        BL        SetState              ; [DPU_V7M3_PIPE] |865| 
        ; CALL OCCURS {SetState }        ; [] |865| 
	.dwpsn	file "/vagrant/Q3_SDK_01/sdk_root/source/ti/drivers/net/wifi/slnetif/slwificonn.c",line 866,column 1,is_stmt,isa 1
$C$DW$327	.dwtag  DW_TAG_TI_branch
	.dwattr $C$DW$327, DW_AT_low_pc(0x00)
	.dwattr $C$DW$327, DW_AT_TI_return

        POP       {A4, PC}              ; [DPU_V7M3_PIPE] 
	.dwcfi	cfa_offset, 0
	.dwcfi	restore_reg, 3
        ; BRANCH OCCURS                  ; [] 
	.dwattr $C$DW$321, DW_AT_TI_end_file("/vagrant/Q3_SDK_01/sdk_root/source/ti/drivers/net/wifi/slnetif/slwificonn.c")
	.dwattr $C$DW$321, DW_AT_TI_end_line(0x362)
	.dwattr $C$DW$321, DW_AT_TI_end_column(0x01)
	.dwendentry
	.dwendtag $C$DW$321

	.sect	".text:EnterPROVISIONING"
	.clink
	.thumbfunc EnterPROVISIONING
	.thumb

$C$DW$328	.dwtag  DW_TAG_subprogram
	.dwattr $C$DW$328, DW_AT_name("EnterPROVISIONING")
	.dwattr $C$DW$328, DW_AT_low_pc(EnterPROVISIONING)
	.dwattr $C$DW$328, DW_AT_high_pc(0x00)
	.dwattr $C$DW$328, DW_AT_TI_symbol_name("EnterPROVISIONING")
	.dwattr $C$DW$328, DW_AT_type(*$C$DW$T$10)
	.dwattr $C$DW$328, DW_AT_TI_begin_file("/vagrant/Q3_SDK_01/sdk_root/source/ti/drivers/net/wifi/slnetif/slwificonn.c")
	.dwattr $C$DW$328, DW_AT_TI_begin_line(0x36d)
	.dwattr $C$DW$328, DW_AT_TI_begin_column(0x0c)
	.dwattr $C$DW$328, DW_AT_decl_file("/vagrant/Q3_SDK_01/sdk_root/source/ti/drivers/net/wifi/slnetif/slwificonn.c")
	.dwattr $C$DW$328, DW_AT_decl_line(0x36d)
	.dwattr $C$DW$328, DW_AT_decl_column(0x0c)
	.dwattr $C$DW$328, DW_AT_TI_max_frame_size(0x10)
	.dwpsn	file "/vagrant/Q3_SDK_01/sdk_root/source/ti/drivers/net/wifi/slnetif/slwificonn.c",line 878,column 1,is_stmt,address EnterPROVISIONING,isa 1

	.dwfde $C$DW$CIE, EnterPROVISIONING
;----------------------------------------------------------------------
; 877 | static int EnterPROVISIONING(void)                                     
; 879 | int  retVal;                                                           
;----------------------------------------------------------------------

;*****************************************************************************
;* FUNCTION NAME: EnterPROVISIONING                                          *
;*                                                                           *
;*   Regs Modified     : A1,A2,A3,A4,V9,SP,LR,SR                             *
;*   Regs Used         : A1,A2,A3,A4,V9,SP,LR,SR                             *
;*   Local Frame Size  : 4 Args + 8 Auto + 4 Save = 16 byte                  *
;*****************************************************************************
EnterPROVISIONING:
;* --------------------------------------------------------------------------*
	.dwcfi	cfa_offset, 0
        PUSH      {A2, A3, A4, LR}      ; [DPU_V7M3_PIPE] 
	.dwcfi	cfa_offset, 16
	.dwcfi	save_reg_to_mem, 14, -4
	.dwcfi	save_reg_to_mem, 3, -8
	.dwcfi	save_reg_to_mem, 2, -12
	.dwcfi	save_reg_to_mem, 1, -16
$C$DW$329	.dwtag  DW_TAG_variable
	.dwattr $C$DW$329, DW_AT_name("retVal")
	.dwattr $C$DW$329, DW_AT_TI_symbol_name("retVal")
	.dwattr $C$DW$329, DW_AT_type(*$C$DW$T$10)
	.dwattr $C$DW$329, DW_AT_location[DW_OP_breg13 4]

$C$DW$330	.dwtag  DW_TAG_variable
	.dwattr $C$DW$330, DW_AT_name("provisioningCmd")
	.dwattr $C$DW$330, DW_AT_TI_symbol_name("provisioningCmd")
	.dwattr $C$DW$330, DW_AT_type(*$C$DW$T$71)
	.dwattr $C$DW$330, DW_AT_location[DW_OP_breg13 8]

	.dwpsn	file "/vagrant/Q3_SDK_01/sdk_root/source/ti/drivers/net/wifi/slnetif/slwificonn.c",line 880,column 30,is_stmt,isa 1
;----------------------------------------------------------------------
; 880 | uint8_t  provisioningCmd = g_ctx->provCmd;                             
;----------------------------------------------------------------------
        LDR       A1, $C$CON41          ; [DPU_V7M3_PIPE] |880| 
        LDR       A1, [A1, #0]          ; [DPU_V7M3_PIPE] |880| 
        LDRB      A1, [A1, #23]         ; [DPU_V7M3_PIPE] |880| 
        STRB      A1, [SP, #8]          ; [DPU_V7M3_PIPE] |880| 
	.dwpsn	file "/vagrant/Q3_SDK_01/sdk_root/source/ti/drivers/net/wifi/slnetif/slwificonn.c",line 882,column 5,is_stmt,isa 1
;----------------------------------------------------------------------
; 882 | if(g_ctx->provCmd == SL_WLAN_PROVISIONING_CMD_START_MODE_EXTERNAL_CONFI
;     | GURATION)                                                              
;----------------------------------------------------------------------
        LDR       A1, $C$CON41          ; [DPU_V7M3_PIPE] |882| 
        LDR       A1, [A1, #0]          ; [DPU_V7M3_PIPE] |882| 
        LDRB      A1, [A1, #23]         ; [DPU_V7M3_PIPE] |882| 
        CMP       A1, #10               ; [DPU_V7M3_PIPE] |882| 
        BNE       ||$C$L55||            ; [DPU_V7M3_PIPE] |882| 
        ; BRANCHCC OCCURS {||$C$L55||}   ; [] |882| 
;* --------------------------------------------------------------------------*
	.dwpsn	file "/vagrant/Q3_SDK_01/sdk_root/source/ti/drivers/net/wifi/slnetif/slwificonn.c",line 885,column 9,is_stmt,isa 1
;----------------------------------------------------------------------
; 885 | NotifyWifiApp(WifiConnEvent_EXTERNAL_PROVISIONING_START_REQ, 0);       
;----------------------------------------------------------------------
        MOVS      A1, #4                ; [DPU_V7M3_PIPE] |885| 
        MOVS      A2, #0                ; [DPU_V7M3_PIPE] |885| 
$C$DW$331	.dwtag  DW_TAG_TI_branch
	.dwattr $C$DW$331, DW_AT_low_pc(0x00)
	.dwattr $C$DW$331, DW_AT_name("NotifyWifiApp")
	.dwattr $C$DW$331, DW_AT_TI_call

        BL        NotifyWifiApp         ; [DPU_V7M3_PIPE] |885| 
        ; CALL OCCURS {NotifyWifiApp }   ; [] |885| 
	.dwpsn	file "/vagrant/Q3_SDK_01/sdk_root/source/ti/drivers/net/wifi/slnetif/slwificonn.c",line 886,column 9,is_stmt,isa 1
;----------------------------------------------------------------------
; 886 | SetState(SLWIFICONN_STATE_EXT_PROVISIONING);                           
; 888 | else                                                                   
;----------------------------------------------------------------------
        MOVS      A1, #7                ; [DPU_V7M3_PIPE] |886| 
$C$DW$332	.dwtag  DW_TAG_TI_branch
	.dwattr $C$DW$332, DW_AT_low_pc(0x00)
	.dwattr $C$DW$332, DW_AT_name("SetState")
	.dwattr $C$DW$332, DW_AT_TI_call

        BL        SetState              ; [DPU_V7M3_PIPE] |886| 
        ; CALL OCCURS {SetState }        ; [] |886| 
        B         ||$C$L58||            ; [DPU_V7M3_PIPE] 
        ; BRANCH OCCURS {||$C$L58||}     ; [] 
;* --------------------------------------------------------------------------*
||$C$L55||:    
	.dwpsn	file "/vagrant/Q3_SDK_01/sdk_root/source/ti/drivers/net/wifi/slnetif/slwificonn.c",line 890,column 9,is_stmt,isa 1
;----------------------------------------------------------------------
; 890 | retVal = SetApParams();                                                
;----------------------------------------------------------------------
$C$DW$333	.dwtag  DW_TAG_TI_branch
	.dwattr $C$DW$333, DW_AT_low_pc(0x00)
	.dwattr $C$DW$333, DW_AT_name("SetApParams")
	.dwattr $C$DW$333, DW_AT_TI_call

        BL        SetApParams           ; [DPU_V7M3_PIPE] |890| 
        ; CALL OCCURS {SetApParams }     ; [] |890| 
        STR       A1, [SP, #4]          ; [DPU_V7M3_PIPE] |890| 
	.dwpsn	file "/vagrant/Q3_SDK_01/sdk_root/source/ti/drivers/net/wifi/slnetif/slwificonn.c",line 892,column 9,is_stmt,isa 1
;----------------------------------------------------------------------
; 892 | if(retVal == 0)                                                        
;----------------------------------------------------------------------
        LDR       A1, [SP, #4]          ; [DPU_V7M3_PIPE] |892| 
        CBNZ      A1, ||$C$L58||        ; [] 
        ; BRANCHCC OCCURS {||$C$L58||}   ; [] |892| 
;* --------------------------------------------------------------------------*
	.dwpsn	file "/vagrant/Q3_SDK_01/sdk_root/source/ti/drivers/net/wifi/slnetif/slwificonn.c",line 895,column 13,is_stmt,isa 1
;----------------------------------------------------------------------
; 895 | retVal = sl_WlanProvisioning(provisioningCmd, ROLE_STA,                
; 896 |                         g_settings.provisioningTimeout,                
; 897 |                         (char *)g_settings.provisioningSC_key,         
; 898 |                         (uint32_t)g_ctx->provFlags);                   
;----------------------------------------------------------------------
        LDR       A1, $C$CON41          ; [DPU_V7M3_PIPE] |895| 
        LDR       A1, [A1, #0]          ; [DPU_V7M3_PIPE] |895| 
        LDR       A2, $C$CON42          ; [DPU_V7M3_PIPE] |895| 
        LDRB      A1, [A1, #24]         ; [DPU_V7M3_PIPE] |895| 
        LDR       A4, $C$CON43          ; [DPU_V7M3_PIPE] |895| 
        STR       A1, [SP, #0]          ; [DPU_V7M3_PIPE] |895| 
        LDRH      A3, [A2, #0]          ; [DPU_V7M3_PIPE] |895| 
        LDRB      A1, [SP, #8]          ; [DPU_V7M3_PIPE] |895| 
        LDR       A4, [A4, #0]          ; [DPU_V7M3_PIPE] |895| 
        MOVS      A2, #0                ; [DPU_V7M3_PIPE] |895| 
$C$DW$334	.dwtag  DW_TAG_TI_branch
	.dwattr $C$DW$334, DW_AT_low_pc(0x00)
	.dwattr $C$DW$334, DW_AT_name("sl_WlanProvisioning")
	.dwattr $C$DW$334, DW_AT_TI_call

        BL        sl_WlanProvisioning   ; [DPU_V7M3_PIPE] |895| 
        ; CALL OCCURS {sl_WlanProvisioning }  ; [] |895| 
        STR       A1, [SP, #4]          ; [DPU_V7M3_PIPE] |895| 
	.dwpsn	file "/vagrant/Q3_SDK_01/sdk_root/source/ti/drivers/net/wifi/slnetif/slwificonn.c",line 899,column 13,is_stmt,isa 1
;----------------------------------------------------------------------
; 899 | assert(retVal == 0);                                                   
;----------------------------------------------------------------------
