Component: ARM Compiler 5.06 update 6 (build 750) Tool: armlink [4d35ed]

==============================================================================

Section Cross References

    startup_m480.o(RESET) refers to startup_m480.o(STACK) for __initial_sp
    startup_m480.o(RESET) refers to startup_m480.o(.text) for Reset_Handler
    startup_m480.o(RESET) refers to retarget.o(.emb_text) for HardFault_Handler
    startup_m480.o(RESET) refers to port.o(.emb_text) for SVC_Handler
    startup_m480.o(RESET) refers to port.o(.text) for SysTick_Handler
    startup_m480.o(RESET) refers to esp8266_wifi.o(.text) for UART1_IRQHandler
    startup_m480.o(RESET) refers to entropy_hardware_poll.o(.text) for CRYPTO_IRQHandler
    startup_m480.o(.text) refers to system_m480.o(.text) for SystemInit
    startup_m480.o(.text) refers to entry.o(.ARM.Collect$$$$00000000) for __main
    system_m480.o(.text) refers to clk.o(.text) for CLK_GetPLLClockFreq
    system_m480.o(.text) refers to sys.o(.text) for SYS_ResetModule
    system_m480.o(.text) refers to system_m480.o(.data) for PllClock
    entropy_hardware_poll.o(.text) refers to clk.o(.text) for CLK_EnableModuleClock
    entropy_hardware_poll.o(.text) refers to crypto.o(.text) for PRNG_Open
    entropy_hardware_poll.o(.text) refers to memmovea.o(.text) for __aeabi_memcpy
    entropy_hardware_poll.o(.text) refers to entropy_hardware_poll.o(.data) for val_sum
    entropy_hardware_poll.o(.text) refers to entropy_hardware_poll.o(.bss) for adc_val
    main.o(.text) refers to clk.o(.text) for CLK_EnableXtalRC
    main.o(.text) refers to system_m480.o(.text) for SystemCoreClockUpdate
    main.o(.text) refers to uart.o(.text) for UART_Open
    main.o(.text) refers to aws_logging_task_dynamic_buffers.o(.text) for xLoggingTaskInitialize
    main.o(.text) refers to tasks.o(.text) for vTaskStartScheduler
    main.o(.text) refers to aws_wifi.o(.text) for WIFI_On
    main.o(.text) refers to aws_system_init.o(.text) for SYSTEM_Init
    main.o(.text) refers to aws_test_runner.o(.text) for TEST_RUNNER_RunTests_task
    main.o(.text) refers to main.o(.data) for xTimeNow
    event_groups.o(.text) refers to setjmp.o(.text) for longjmp
    event_groups.o(.text) refers to list.o(.text) for vListInitialise
    event_groups.o(.text) refers to heap_4.o(.text) for pvPortMalloc
    event_groups.o(.text) refers to tasks.o(.text) for vTaskSuspendAll
    event_groups.o(.text) refers to port.o(.text) for vPortEnterCritical
    event_groups.o(.text) refers to unity.o(.bss) for Unity
    queue.o(.text) refers to setjmp.o(.text) for longjmp
    queue.o(.text) refers to port.o(.text) for vPortEnterCritical
    queue.o(.text) refers to tasks.o(.text) for xTaskRemoveFromEventList
    queue.o(.text) refers to list.o(.text) for vListInitialise
    queue.o(.text) refers to heap_4.o(.text) for pvPortMalloc
    queue.o(.text) refers to memmovea.o(.text) for __aeabi_memcpy
    queue.o(.text) refers to unity.o(.bss) for Unity
    queue.o(.text) refers to queue.o(.bss) for xQueueRegistry
    stream_buffer.o(.text) refers to memseta.o(.text) for memset
    stream_buffer.o(.text) refers to setjmp.o(.text) for longjmp
    stream_buffer.o(.text) refers to heap_4.o(.text) for pvPortMalloc
    stream_buffer.o(.text) refers to port.o(.text) for vPortEnterCritical
    stream_buffer.o(.text) refers to memmovea.o(.text) for __aeabi_memcpy
    stream_buffer.o(.text) refers to tasks.o(.text) for vTaskSetTimeOutState
    stream_buffer.o(.text) refers to unity.o(.bss) for Unity
    tasks.o(.text) refers to list.o(.text) for vListInitialise
    tasks.o(.text) refers to port.o(.text) for vPortEnterCritical
    tasks.o(.text) refers to memseta.o(.text) for __aeabi_memset
    tasks.o(.text) refers to setjmp.o(.text) for longjmp
    tasks.o(.text) refers to heap_4.o(.text) for pvPortMalloc
    tasks.o(.text) refers to tasks.o(.bss) for pxReadyTasksLists
    tasks.o(.text) refers to tasks.o(.data) for pxDelayedTaskList
    tasks.o(.text) refers to unity.o(.bss) for Unity
    tasks.o(.text) refers to main.o(.text) for vApplicationTickHook
    tasks.o(.text) refers to iot_test_afr.o(.text) for vApplicationStackOverflowHook
    tasks.o(.text) refers to aws_test.o(.text) for vApplicationGetIdleTaskMemory
    tasks.o(.text) refers to timers.o(.text) for xTimerCreateTimerTask
    timers.o(.text) refers to list.o(.text) for vListInsert
    timers.o(.text) refers to setjmp.o(.text) for longjmp
    timers.o(.text) refers to tasks.o(.text) for xTaskGetSchedulerState
    timers.o(.text) refers to queue.o(.text) for xQueueGenericSend
    timers.o(.text) refers to heap_4.o(.text) for vPortFree
    timers.o(.text) refers to main.o(.text) for vApplicationDaemonTaskStartupHook
    timers.o(.text) refers to port.o(.text) for vPortEnterCritical
    timers.o(.text) refers to aws_test.o(.text) for vApplicationGetTimerTaskMemory
    timers.o(.text) refers to timers.o(.data) for pxOverflowTimerList
    timers.o(.text) refers to unity.o(.bss) for Unity
    timers.o(.text) refers to timers.o(.bss) for xActiveTimerList1
    port.o(.emb_text) refers to tasks.o(.text) for vTaskSwitchContext
    port.o(.emb_text) refers to tasks.o(.data) for pxCurrentTCB
    port.o(.text) refers to setjmp.o(.text) for longjmp
    port.o(.text) refers to port.o(.emb_text) for __asm___6_port_c_39a90d8d__prvEnableVFP
    port.o(.text) refers to tasks.o(.text) for xTaskIncrementTick
    port.o(.text) refers to port.o(.data) for uxCriticalNesting
    port.o(.text) refers to unity.o(.bss) for Unity
    port.o(.text) refers to system_m480.o(.data) for SystemCoreClock
    heap_4.o(.text) refers to tasks.o(.text) for vTaskSuspendAll
    heap_4.o(.text) refers to setjmp.o(.text) for longjmp
    heap_4.o(.text) refers to iot_test_afr.o(.text) for vApplicationMallocFailedHook
    heap_4.o(.text) refers to heap_4.o(.data) for xStart
    heap_4.o(.text) refers to heap_4.o(.bss) for ucHeap
    heap_4.o(.text) refers to unity.o(.bss) for Unity
    retarget.o(.emb_text) refers to retarget.o(.text) for Hard_Fault_Handler
    retarget.o(.text) refers to printfa.o(i.__0printf) for __2printf
    clk.o(.text) refers to system_m480.o(.text) for SystemCoreClockUpdate
    clk.o(.text) refers to system_m480.o(.data) for SystemCoreClock
    clk.o(.text) refers to clk.o(.constdata) for .constdata
    crypto.o(.text) refers to strlen.o(.text) for strlen
    crypto.o(.text) refers to memmovea.o(.text) for __aeabi_memcpy4
    crypto.o(.text) refers to crypto.o(.bss) for g_AES_CTL
    crypto.o(.text) refers to crypto.o(.data) for hex_char_tbl
    crypto.o(.text) refers to crypto.o(.constdata) for _Curve
    uart.o(.text) refers to clk.o(.text) for CLK_GetPLLClockFreq
    uart.o(.text) refers to uart.o(.constdata) for .constdata
    aws_test.o(.text) refers to aws_test.o(.bss) for xIdleTaskTCB
    aws_test_framework.o(.text) refers to aws_logging_task_dynamic_buffers.o(.text) for vLoggingPrint
    aws_test_framework.o(.text) refers to tasks.o(.text) for vTaskDelay
    aws_test_framework.o(.text) refers to memseta.o(.text) for __aeabi_memclr
    aws_test_framework.o(.text) refers to aws_test_framework.o(.data) for xBufferSize
    aws_test_framework.o(.text) refers to aws_test_framework.o(.bss) for pcTestResultBuffer
    aws_test_runner.o(.text) refers to aws_test_tcp.o(.text) for TEST_Full_TCP_GROUP_RUNNER
    aws_test_runner.o(.text) refers to unity.o(.text) for UnityBegin
    aws_test_runner.o(.text) refers to tasks.o(.text) for vTaskDelay
    aws_test_runner.o(.text) refers to unity_fixture.o(.bss) for UnityFixture
    iot_test_afr.o(.text) refers to aws_logging_task_dynamic_buffers.o(.text) for vLoggingPrintf
    iot_tests_network.o(.text) refers to iot_tests_network.o(.data) for _IotTestNetworkType
    iot_tests_network.o(.text) refers to iot_network_afr.o(.constdata) for IotNetworkAfr
    iot_tests_network.o(.text) refers to iot_tests_network.o(.constdata) for _mqttSerializer
    iot_tests_network.o(.constdata) refers to iot_mqtt_serialize.o(.text) for _IotMqtt_GetPacketType
    aws_wifi.o(.text) refers to memseta.o(.text) for __aeabi_memclr4
    aws_wifi.o(.text) refers to queue.o(.text) for xQueueCreateMutexStatic
    aws_wifi.o(.text) refers to esp8266_wifi.o(.text) for ESP_WIFI_Init
    aws_wifi.o(.text) refers to tasks.o(.text) for xTaskGetCurrentTaskHandle
    aws_wifi.o(.text) refers to aws_logging_task_dynamic_buffers.o(.text) for vLoggingPrintf
    aws_wifi.o(.text) refers to aws_wifi.o(.data) for xWIFI_IsInitialized
    aws_wifi.o(.text) refers to aws_wifi.o(.bss) for xNuWiFi
    esp8266_wifi.o(.text) refers to strtok_r.o(.text) for strtok
    esp8266_wifi.o(.text) refers to atoi.o(.text) for atoi
    esp8266_wifi.o(.text) refers to strtol.o(.text) for strtol
    esp8266_wifi.o(.text) refers to strlcpy.o(.text) for strlcpy
    esp8266_wifi.o(.text) refers to strcmp.o(.text) for strcmp
    esp8266_wifi.o(.text) refers to clk.o(.text) for CLK_EnableModuleClock
    esp8266_wifi.o(.text) refers to aws_logging_task_dynamic_buffers.o(.text) for vLoggingPrintf
    esp8266_wifi.o(.text) refers to uart.o(.text) for UART_Open
    esp8266_wifi.o(.text) refers to tasks.o(.text) for xTaskGetTickCount
    esp8266_wifi.o(.text) refers to memseta.o(.text) for __aeabi_memclr
    esp8266_wifi.o(.text) refers to strstr.o(.text) for strstr
    esp8266_wifi.o(.text) refers to esp8266_wifi.o(.data) for rx_buf_widx
    esp8266_wifi.o(.text) refers to esp8266_wifi.o(.bss) for rx_buf
    esp8266_wifi.o(.text) refers to esp8266_wifi.o(.constdata) for __func__
    esp8266_wifi.o(.text) refers to memmovea.o(.text) for __aeabi_memcpy
    esp8266_wifi.o(.text) refers to strlen.o(.text) for strlen
    esp8266_wifi.o(.text) refers to printfa.o(i.__0sprintf) for __2sprintf
    aws_test_wifi.o(.text) refers to strncpy.o(.text) for strncpy
    aws_test_wifi.o(.text) refers to aws_logging_task_dynamic_buffers.o(.text) for vLoggingPrintf
    aws_test_wifi.o(.text) refers to tasks.o(.text) for vTaskDelay
    aws_test_wifi.o(.text) refers to aws_wifi.o(.text) for WIFI_ConnectAP
    aws_test_wifi.o(.text) refers to strrchr.o(.text) for strrchr
    aws_test_wifi.o(.text) refers to aws_secure_sockets.o(.text) for SOCKETS_Socket
    aws_test_wifi.o(.text) refers to aws_test_wifi.o(.conststring) for .conststring
    aws_test_wifi.o(.text) refers to memseta.o(.text) for __aeabi_memclr4
    aws_test_wifi.o(.text) refers to strncmp.o(.text) for strncmp
    aws_test_wifi.o(.text) refers to setjmp.o(.text) for setjmp
    aws_test_wifi.o(.text) refers to unity.o(.text) for UnityAssertEqualNumber
    aws_test_wifi.o(.text) refers to unity_fixture.o(.text) for UnityTestRunner
    aws_test_wifi.o(.text) refers to printfa.o(i.__0sprintf) for __2sprintf
    aws_test_wifi.o(.text) refers to strcpy.o(.text) for strcpy
    aws_test_wifi.o(.text) refers to unity.o(.bss) for Unity
    aws_test_wifi.o(.text) refers to aws_test_wifi.o(.data) for TEST_GROUP_Full_WiFi
    aws_test_wifi.o(.text) refers to printfa.o(i.__0snprintf) for __2snprintf
    aws_test_wifi.o(.text) refers to event_groups.o(.text) for xEventGroupSync
    aws_test_wifi.o(.data) refers to aws_test_wifi.o(.conststring) for .conststring
    aws_test_crypto.o(.text) refers to memmovea.o(.text) for __aeabi_memcpy4
    aws_test_crypto.o(.text) refers to memseta.o(.text) for __aeabi_memclr4
    aws_test_crypto.o(.text) refers to aws_crypto.o(.text) for CRYPTO_SignatureVerificationStart
    aws_test_crypto.o(.text) refers to unity.o(.text) for UnityFail
    aws_test_crypto.o(.text) refers to unity_fixture.o(.text) for UnityTestRunner
    aws_test_crypto.o(.text) refers to aws_test_crypto.o(.conststring) for .conststring
    aws_test_crypto.o(.text) refers to aws_test_crypto.o(.constdata) for .constdata
    aws_test_crypto.o(.text) refers to aws_test_crypto.o(.data) for TEST_GROUP_Full_CRYPTO
    aws_test_crypto.o(.data) refers to aws_test_crypto.o(.conststring) for .conststring
    aws_crypto.o(.text) refers to heap_4.o(.text) for pvPortMalloc
    aws_crypto.o(.text) refers to memseta.o(.text) for __aeabi_memclr
    aws_crypto.o(.text) refers to x509_crt.o(.text) for mbedtls_x509_crt_init
    aws_crypto.o(.text) refers to pk.o(.text) for mbedtls_pk_verify
    aws_crypto.o(.text) refers to platform.o(.text) for mbedtls_platform_set_calloc_free
    aws_crypto.o(.text) refers to sha1.o(.text) for mbedtls_sha1_init
    aws_crypto.o(.text) refers to sha256.o(.text) for mbedtls_sha256_init
    aws_test_mqtt_agent.o(.text) refers to queue.o(.text) for xQueueGenericSend
    aws_test_mqtt_agent.o(.text) refers to memseta.o(.text) for __aeabi_memclr4
    aws_test_mqtt_agent.o(.text) refers to memmovea.o(.text) for __aeabi_memcpy4
    aws_test_mqtt_agent.o(.text) refers to unity.o(.text) for UnityFail
    aws_test_mqtt_agent.o(.text) refers to strlen.o(.text) for strlen
    aws_test_mqtt_agent.o(.text) refers to setjmp.o(.text) for setjmp
    aws_test_mqtt_agent.o(.text) refers to aws_mqtt_agent.o(.text) for MQTT_AGENT_Create
    aws_test_mqtt_agent.o(.text) refers to iot_init.o(.text) for IotSdk_Init
    aws_test_mqtt_agent.o(.text) refers to iot_mqtt_api.o(.text) for IotMqtt_Init
    aws_test_mqtt_agent.o(.text) refers to aws_logging_task_dynamic_buffers.o(.text) for vLoggingPrintf
    aws_test_mqtt_agent.o(.text) refers to unity_fixture.o(.text) for UnityTestRunner
    aws_test_mqtt_agent.o(.text) refers to tasks.o(.text) for vTaskPrioritySet
    aws_test_mqtt_agent.o(.text) refers to event_groups.o(.text) for xEventGroupSync
    aws_test_mqtt_agent.o(.text) refers to aws_test_mqtt_agent.o(.constdata) for xDefaultConnectParameters
    aws_test_mqtt_agent.o(.text) refers to unity.o(.bss) for Unity
    aws_test_mqtt_agent.o(.text) refers to aws_test_mqtt_agent.o(.conststring) for .conststring
    aws_test_mqtt_agent.o(.text) refers to aws_test_mqtt_agent.o(.data) for TEST_GROUP_Full_MQTT_Agent
    aws_test_mqtt_agent.o(.text) refers to aws_test_mqtt_agent.o(.bss) for MQTTtestAgentMultiTestRxParam
    aws_test_mqtt_agent.o(.text) refers to printfa.o(i.__0snprintf) for __2snprintf
    aws_test_mqtt_agent.o(.constdata) refers to aws_test_mqtt_agent.o(.conststring) for .conststring
    aws_test_mqtt_agent.o(.data) refers to aws_test_mqtt_agent.o(.conststring) for .conststring
    iot_tests_mqtt_system.o(.text) refers to strncmp.o(.text) for strncmp
    iot_tests_mqtt_system.o(.text) refers to iot_threads_afr.o(.text) for IotSemaphore_Post
    iot_tests_mqtt_system.o(.text) refers to memseta.o(.text) for __aeabi_memclr4
    iot_tests_mqtt_system.o(.text) refers to strlen.o(.text) for strlen
    iot_tests_mqtt_system.o(.text) refers to iot_mqtt_api.o(.text) for IotMqtt_TimedPublish
    iot_tests_mqtt_system.o(.text) refers to memmovea.o(.text) for __aeabi_memcpy4
    iot_tests_mqtt_system.o(.text) refers to unity.o(.text) for UnityAssertEqualNumber
    iot_tests_mqtt_system.o(.text) refers to setjmp.o(.text) for setjmp
    iot_tests_mqtt_system.o(.text) refers to iot_tests_mqtt_system.o(.data) for _freePacketOverride
    iot_tests_mqtt_system.o(.text) refers to iot_tests_mqtt_system.o(.constdata) for _pSamplePayload
    iot_tests_mqtt_system.o(.text) refers to iot_tests_mqtt_system.o(.bss) for serializer
    iot_tests_mqtt_system.o(.text) refers to unity.o(.bss) for Unity
    iot_tests_mqtt_system.o(.text) refers to iot_init.o(.text) for IotSdk_Init
    iot_tests_mqtt_system.o(.text) refers to iot_clock_afr.o(.text) for IotClock_GetTimeMs
    iot_tests_mqtt_system.o(.text) refers to printfa.o(i.__0snprintf) for __2snprintf
    iot_tests_mqtt_system.o(.text) refers to iot_tests_network.o(.text) for IotTestNetwork_GetSerializer
    iot_tests_mqtt_system.o(.text) refers to unity_fixture.o(.text) for UnityTestRunner
    iot_tests_mqtt_system.o(.text) refers to iot_tests_mqtt_system.o(.conststring) for .conststring
    iot_tests_mqtt_system.o(.constdata) refers to iot_tests_mqtt_system.o(.conststring) for .conststring
    iot_tests_mqtt_system.o(.data) refers to iot_tests_mqtt_system.o(.conststring) for .conststring
    iot_tests_mqtt_api.o(.text) refers to setjmp.o(.text) for longjmp
    iot_tests_mqtt_api.o(.text) refers to iot_clock_afr.o(.text) for IotClock_GetTimeMs
    iot_tests_mqtt_api.o(.text) refers to aws_logging_task_dynamic_buffers.o(.text) for vLoggingPrint
    iot_tests_mqtt_api.o(.text) refers to printfa.o(i.__0snprintf) for __2snprintf
    iot_tests_mqtt_api.o(.text) refers to iot_mqtt_network.o(.text) for IotMqtt_ReceiveCallback
    iot_tests_mqtt_api.o(.text) refers to iot_mqtt_serialize.o(.text) for _IotMqtt_PublishSetDup
    iot_tests_mqtt_api.o(.text) refers to iot_threads_afr.o(.text) for IotSemaphore_Post
    iot_tests_mqtt_api.o(.text) refers to memseta.o(.text) for __aeabi_memclr4
    iot_tests_mqtt_api.o(.text) refers to iot_mqtt_operation.o(.text) for _IotMqtt_DecrementOperationReferences
    iot_tests_mqtt_api.o(.text) refers to iot_init.o(.text) for IotSdk_Init
    iot_tests_mqtt_api.o(.text) refers to unity.o(.text) for UnityAssertEqualNumber
    iot_tests_mqtt_api.o(.text) refers to iot_mqtt_api.o(.text) for IotMqtt_Init
    iot_tests_mqtt_api.o(.text) refers to iot_taskpool.o(.text) for IotTaskPool_GetSystemTaskPool
    iot_tests_mqtt_api.o(.text) refers to unity.o(.bss) for Unity
    iot_tests_mqtt_api.o(.text) refers to iot_tests_mqtt_api.o(.data) for invokeCount
    iot_tests_mqtt_api.o(.text) refers to iot_tests_mqtt_api.o(.bss) for _networkInterface
    iot_tests_mqtt_api.o(.text) refers to unity_fixture.o(.text) for UnityTestRunner
    iot_tests_mqtt_api.o(.text) refers to iot_tests_mqtt_api.o(.conststring) for .conststring
    iot_tests_mqtt_api.o(.text) refers to memmovea.o(.text) for __aeabi_memcpy4
    iot_tests_mqtt_api.o(.text) refers to iot_tests_mqtt_api.o(.constdata) for .constdata
    iot_tests_mqtt_api.o(.data) refers to iot_tests_mqtt_api.o(.conststring) for .conststring
    iot_tests_mqtt_receive.o(.text) refers to setjmp.o(.text) for longjmp
    iot_tests_mqtt_receive.o(.text) refers to iot_mqtt_serialize.o(.text) for _IotMqtt_GetPacketType
    iot_tests_mqtt_receive.o(.text) refers to iot_mqtt_network.o(.text) for IotMqtt_ReceiveCallback
    iot_tests_mqtt_receive.o(.text) refers to iot_threads_afr.o(.text) for IotSemaphore_Create
    iot_tests_mqtt_receive.o(.text) refers to iot_mqtt_validate.o(.text) for _IotMqtt_ValidatePublish
    iot_tests_mqtt_receive.o(.text) refers to strncmp.o(.text) for strncmp
    iot_tests_mqtt_receive.o(.text) refers to unity.o(.text) for UnityFail
    iot_tests_mqtt_receive.o(.text) refers to memmovea.o(.text) for __aeabi_memcpy
    iot_tests_mqtt_receive.o(.text) refers to iot_init.o(.text) for IotSdk_Init
    iot_tests_mqtt_receive.o(.text) refers to iot_mqtt_api.o(.text) for IotMqtt_Init
    iot_tests_mqtt_receive.o(.text) refers to iot_mqtt_subscription.o(.text) for _IotMqtt_AddSubscriptions
    iot_tests_mqtt_receive.o(.text) refers to unity.o(.bss) for Unity
    iot_tests_mqtt_receive.o(.text) refers to iot_tests_mqtt_receive.o(.data) for _getPacketTypeCalled
    iot_tests_mqtt_receive.o(.text) refers to iot_tests_mqtt_receive.o(.constdata) for .constdata
    iot_tests_mqtt_receive.o(.text) refers to iot_tests_mqtt_receive.o(.bss) for serializer
    iot_tests_mqtt_receive.o(.text) refers to unity_fixture.o(.text) for UnityTestRunner
    iot_tests_mqtt_receive.o(.text) refers to iot_tests_mqtt_receive.o(.conststring) for .conststring
    iot_tests_mqtt_receive.o(.text) refers to memseta.o(.text) for __aeabi_memclr4
    iot_tests_mqtt_receive.o(.data) refers to iot_tests_mqtt_receive.o(.conststring) for .conststring
    iot_tests_mqtt_subscription.o(.text) refers to setjmp.o(.text) for longjmp
    iot_tests_mqtt_subscription.o(.text) refers to heap_4.o(.text) for pvPortMalloc
    iot_tests_mqtt_subscription.o(.text) refers to unity.o(.text) for UnityFail
    iot_tests_mqtt_subscription.o(.text) refers to memseta.o(.text) for __aeabi_memclr4
    iot_tests_mqtt_subscription.o(.text) refers to printfa.o(i.__0snprintf) for __2snprintf
    iot_tests_mqtt_subscription.o(.text) refers to iot_threads_afr.o(.text) for IotMutex_Lock
    iot_tests_mqtt_subscription.o(.text) refers to iot_clock_afr.o(.text) for IotClock_SleepMs
    iot_tests_mqtt_subscription.o(.text) refers to iot_mqtt_validate.o(.text) for _IotMqtt_ValidatePublish
    iot_tests_mqtt_subscription.o(.text) refers to iot_mqtt_subscription.o(.text) for _IotMqtt_AddSubscriptions
    iot_tests_mqtt_subscription.o(.text) refers to memmovea.o(.text) for __aeabi_memcpy4
    iot_tests_mqtt_subscription.o(.text) refers to iot_init.o(.text) for IotSdk_Init
    iot_tests_mqtt_subscription.o(.text) refers to iot_mqtt_api.o(.text) for IotMqtt_Init
    iot_tests_mqtt_subscription.o(.text) refers to strlen.o(.text) for strlen
    iot_tests_mqtt_subscription.o(.text) refers to unity.o(.bss) for Unity
    iot_tests_mqtt_subscription.o(.text) refers to iot_tests_mqtt_subscription.o(.data) for _pMqttConnection
    iot_tests_mqtt_subscription.o(.text) refers to iot_tests_mqtt_subscription.o(.bss) for _mtTestStart
    iot_tests_mqtt_subscription.o(.text) refers to iot_tests_mqtt_subscription.o(.constdata) for .constdata
    iot_tests_mqtt_subscription.o(.text) refers to unity_fixture.o(.text) for UnityTestRunner
    iot_tests_mqtt_subscription.o(.text) refers to iot_tests_mqtt_subscription.o(.conststring) for .conststring
    iot_tests_mqtt_subscription.o(.text) refers to iot_taskpool.o(.text) for IotTaskPool_GetSystemTaskPool
    iot_tests_mqtt_subscription.o(.text) refers to iot_mqtt_operation.o(.text) for _IotMqtt_ScheduleOperation
    iot_tests_mqtt_subscription.o(.data) refers to iot_tests_mqtt_subscription.o(.conststring) for .conststring
    iot_tests_mqtt_validate.o(.text) refers to iot_init.o(.text) for IotSdk_Init
    iot_tests_mqtt_validate.o(.text) refers to unity.o(.text) for UnityAssertEqualNumber
    iot_tests_mqtt_validate.o(.text) refers to memseta.o(.text) for __aeabi_memclr4
    iot_tests_mqtt_validate.o(.text) refers to iot_mqtt_validate.o(.text) for _IotMqtt_ValidateSubscriptionList
    iot_tests_mqtt_validate.o(.text) refers to unity_fixture.o(.text) for UnityTestRunner
    iot_tests_mqtt_validate.o(.text) refers to heap_4.o(.text) for pvPortMalloc
    iot_tests_mqtt_validate.o(.text) refers to setjmp.o(.text) for setjmp
    iot_tests_mqtt_validate.o(.text) refers to iot_tests_mqtt_validate.o(.conststring) for .conststring
    iot_tests_mqtt_validate.o(.text) refers to iot_tests_mqtt_validate.o(.data) for TEST_GROUP_MQTT_Unit_Validate
    iot_tests_mqtt_validate.o(.text) refers to unity.o(.bss) for Unity
    iot_tests_mqtt_validate.o(.text) refers to memmovea.o(.text) for __aeabi_memcpy4
    iot_tests_mqtt_validate.o(.text) refers to iot_tests_mqtt_validate.o(.constdata) for .constdata
    iot_tests_mqtt_validate.o(.data) refers to iot_tests_mqtt_validate.o(.conststring) for .conststring
    aws_mqtt_agent.o(.text) refers to strncmp.o(.text) for strncmp
    aws_mqtt_agent.o(.text) refers to memseta.o(.text) for __aeabi_memclr4
    aws_mqtt_agent.o(.text) refers to heap_4.o(.text) for pvPortMalloc
    aws_mqtt_agent.o(.text) refers to memmovea.o(.text) for __aeabi_memcpy
    aws_mqtt_agent.o(.text) refers to setjmp.o(.text) for longjmp
    aws_mqtt_agent.o(.text) refers to queue.o(.text) for xQueueSemaphoreTake
    aws_mqtt_agent.o(.text) refers to strncpy.o(.text) for strncpy
    aws_mqtt_agent.o(.text) refers to iot_mqtt_api.o(.text) for IotMqtt_Init
    aws_mqtt_agent.o(.text) refers to port.o(.text) for vPortEnterCritical
    aws_mqtt_agent.o(.text) refers to aws_mqtt_agent.o(.constdata) for .constdata
    aws_mqtt_agent.o(.text) refers to unity.o(.bss) for Unity
    aws_mqtt_agent.o(.text) refers to aws_mqtt_agent.o(.data) for uxAvailableBrokers
    aws_mqtt_agent.o(.text) refers to iot_network_afr.o(.constdata) for IotNetworkAfr
    aws_mqtt_agent.o(.constdata) refers to aws_mqtt_agent.o(.conststring) for .conststring
    iot_mqtt_api.o(.text) refers to setjmp.o(.text) for longjmp
    iot_mqtt_api.o(.text) refers to heap_4.o(.text) for vPortFree
    iot_mqtt_api.o(.text) refers to iot_taskpool.o(.text) for IotTaskPool_GetSystemTaskPool
    iot_mqtt_api.o(.text) refers to iot_mqtt_operation.o(.text) for _IotMqtt_ProcessIncomingPublish
    iot_mqtt_api.o(.text) refers to memseta.o(.text) for __aeabi_memclr4
    iot_mqtt_api.o(.text) refers to iot_threads_afr.o(.text) for IotMutex_Create
    iot_mqtt_api.o(.text) refers to iot_mqtt_serialize.o(.text) for _IotMqtt_FreePacket
    iot_mqtt_api.o(.text) refers to iot_mqtt_validate.o(.text) for _IotMqtt_ValidateSubscriptionList
    iot_mqtt_api.o(.text) refers to unity.o(.bss) for Unity
    iot_mqtt_api.o(.text) refers to iot_mqtt_subscription.o(.text) for _IotMqtt_RemoveSubscriptionByTopicFilter
    iot_mqtt_api.o(.text) refers to iot_mqtt_network.o(.text) for IotMqtt_ReceiveCallback
    iot_mqtt_network.o(.text) refers to setjmp.o(.text) for longjmp
    iot_mqtt_network.o(.text) refers to heap_4.o(.text) for pvPortMalloc
    iot_mqtt_network.o(.text) refers to iot_mqtt_operation.o(.text) for _IotMqtt_FindOperation
    iot_mqtt_network.o(.text) refers to memseta.o(.text) for __aeabi_memclr4
    iot_mqtt_network.o(.text) refers to iot_threads_afr.o(.text) for IotMutex_Lock
    iot_mqtt_network.o(.text) refers to iot_mqtt_api.o(.text) for _IotMqtt_IncrementConnectionReferences
    iot_mqtt_network.o(.text) refers to iot_mqtt_serialize.o(.text) for _IotMqtt_GetPacketType
    iot_mqtt_network.o(.text) refers to unity.o(.bss) for Unity
    iot_mqtt_network.o(.text) refers to iot_taskpool.o(.text) for IotTaskPool_GetSystemTaskPool
    iot_mqtt_operation.o(.text) refers to setjmp.o(.text) for longjmp
    iot_mqtt_operation.o(.text) refers to iot_threads_afr.o(.text) for IotMutex_Lock
    iot_mqtt_operation.o(.text) refers to heap_4.o(.text) for vPortFree
    iot_mqtt_operation.o(.text) refers to iot_mqtt_api.o(.text) for _IotMqtt_DecrementConnectionReferences
    iot_mqtt_operation.o(.text) refers to iot_taskpool.o(.text) for IotTaskPool_GetSystemTaskPool
    iot_mqtt_operation.o(.text) refers to memseta.o(.text) for __aeabi_memclr4
    iot_mqtt_operation.o(.text) refers to memmovea.o(.text) for __aeabi_memcpy4
    iot_mqtt_operation.o(.text) refers to iot_mqtt_subscription.o(.text) for _IotMqtt_InvokeSubscriptionCallback
    iot_mqtt_operation.o(.text) refers to unity.o(.bss) for Unity
    iot_mqtt_operation.o(.text) refers to iot_mqtt_serialize.o(.text) for _IotMqtt_PublishSetDup
    iot_mqtt_operation.o(.text) refers to iot_mqtt_network.o(.text) for _IotMqtt_CloseNetworkConnection
    iot_mqtt_serialize.o(.text) refers to setjmp.o(.text) for longjmp
    iot_mqtt_serialize.o(.text) refers to memmovea.o(.text) for __aeabi_memcpy
    iot_mqtt_serialize.o(.text) refers to iot_mqtt_network.o(.text) for _IotMqtt_GetNextByte
    iot_mqtt_serialize.o(.text) refers to heap_4.o(.text) for pvPortMalloc
    iot_mqtt_serialize.o(.text) refers to iot_mqtt_serialize.o(.data) for nextPacketIdentifier
    iot_mqtt_serialize.o(.text) refers to unity.o(.bss) for Unity
    iot_mqtt_serialize.o(.text) refers to iot_mqtt_subscription.o(.text) for _IotMqtt_RemoveSubscriptionByPacket
    iot_mqtt_serialize.o(.text) refers to iot_mqtt_serialize.o(.constdata) for pPingreq
    iot_mqtt_subscription.o(.text) refers to setjmp.o(.text) for longjmp
    iot_mqtt_subscription.o(.text) refers to strncmp.o(.text) for strncmp
    iot_mqtt_subscription.o(.text) refers to iot_threads_afr.o(.text) for IotMutex_Lock
    iot_mqtt_subscription.o(.text) refers to heap_4.o(.text) for vPortFree
    iot_mqtt_subscription.o(.text) refers to memseta.o(.text) for __aeabi_memclr4
    iot_mqtt_subscription.o(.text) refers to strncpy.o(.text) for strncpy
    iot_mqtt_subscription.o(.text) refers to unity.o(.bss) for Unity
    iot_mqtt_subscription.o(.text) refers to iot_mqtt_subscription.o(.constdata) for .constdata
    iot_mqtt_subscription.o(.text) refers to iot_mqtt_api.o(.text) for _IotMqtt_DecrementConnectionReferences
    iot_mqtt_validate.o(.text) refers to setjmp.o(.text) for longjmp
    iot_mqtt_validate.o(.text) refers to unity.o(.bss) for Unity
    aws_greengrass_discovery.o(.text) refers to strcmp.o(.text) for strcmp
    aws_greengrass_discovery.o(.text) refers to strlen.o(.text) for strlen
    aws_greengrass_discovery.o(.text) refers to strncmp.o(.text) for strncmp
    aws_greengrass_discovery.o(.text) refers to strtoul.o(.text) for strtoul
    aws_greengrass_discovery.o(.text) refers to setjmp.o(.text) for longjmp
    aws_greengrass_discovery.o(.text) refers to jsmn.o(.text) for jsmn_init
    aws_greengrass_discovery.o(.text) refers to aws_logging_task_dynamic_buffers.o(.text) for vLoggingPrintf
    aws_greengrass_discovery.o(.text) refers to unity.o(.bss) for Unity
    aws_greengrass_discovery.o(.text) refers to aws_helper_secure_connect.o(.text) for GGD_SecureConnect_Connect
    aws_greengrass_discovery.o(.text) refers to heap_4.o(.text) for pvPortMalloc
    aws_greengrass_discovery.o(.text) refers to printfa.o(i.__0snprintf) for __2snprintf
    aws_greengrass_discovery.o(.text) refers to aws_greengrass_discovery.o(.constdata) for clientcredentialMQTT_BROKER_ENDPOINT
    aws_greengrass_discovery.o(.text) refers to aws_greengrass_discovery.o(.conststring) for .conststring
    aws_helper_secure_connect.o(.text) refers to setjmp.o(.text) for longjmp
    aws_helper_secure_connect.o(.text) refers to aws_logging_task_dynamic_buffers.o(.text) for vLoggingPrintf
    aws_helper_secure_connect.o(.text) refers to tasks.o(.text) for vTaskSetTimeOutState
    aws_helper_secure_connect.o(.text) refers to aws_secure_sockets.o(.text) for SOCKETS_Shutdown
    aws_helper_secure_connect.o(.text) refers to strlen.o(.text) for strlen
    aws_helper_secure_connect.o(.text) refers to unity.o(.bss) for Unity
    aws_pkcs11_mbedtls.o(.text) refers to queue.o(.text) for xQueueCreateMutex
    aws_pkcs11_mbedtls.o(.text) refers to aws_logging_task_dynamic_buffers.o(.text) for vLoggingPrintf
    aws_pkcs11_mbedtls.o(.text) refers to aws_crypto.o(.text) for CRYPTO_ConfigureHeap
    aws_pkcs11_mbedtls.o(.text) refers to threading.o(.text) for mbedtls_threading_set_alt
    aws_pkcs11_mbedtls.o(.text) refers to entropy.o(.text) for mbedtls_entropy_init
    aws_pkcs11_mbedtls.o(.text) refers to ctr_drbg.o(.text) for mbedtls_ctr_drbg_init
    aws_pkcs11_mbedtls.o(.text) refers to heap_4.o(.text) for pvPortMalloc
    aws_pkcs11_mbedtls.o(.text) refers to memseta.o(.text) for __aeabi_memclr4
    aws_pkcs11_mbedtls.o(.text) refers to pk.o(.text) for mbedtls_pk_free
    aws_pkcs11_mbedtls.o(.text) refers to sha256.o(.text) for mbedtls_sha256_free
    aws_pkcs11_mbedtls.o(.text) refers to x509_crt.o(.text) for mbedtls_x509_crt_init
    aws_pkcs11_mbedtls.o(.text) refers to aws_pkcs11_pal.o(.text) for PKCS11_PAL_SaveObject
    aws_pkcs11_mbedtls.o(.text) refers to pkparse.o(.text) for mbedtls_pk_parse_key
    aws_pkcs11_mbedtls.o(.text) refers to aws_pkcs11_mbedtls.o(.bss) for xP11Context
    aws_pkcs11_mbedtls.o(.text) refers to aws_pkcs11_mbedtls.o(.data) for prvP11FunctionList
    aws_pkcs11_mbedtls.o(.text) refers to memmovea.o(.text) for __aeabi_memcpy
    aws_pkcs11_mbedtls.o(.text) refers to strcmp.o(.text) for strcmp
    aws_pkcs11_mbedtls.o(.text) refers to ecp.o(.text) for mbedtls_ecp_gen_key
    aws_pkcs11_mbedtls.o(.text) refers to pkwrite.o(.text) for mbedtls_pk_write_key_der
    aws_pkcs11_mbedtls.o(.data) refers to aws_pkcs11_mbedtls.o(.text) for C_Initialize
    aws_pkcs11_pal.o(.text) refers to fmc.o(.text) for FMC_Erase
    aws_pkcs11_pal.o(.text) refers to printfa.o(i.__0printf) for __2printf
    aws_pkcs11_pal.o(.text) refers to memmovea.o(.text) for __aeabi_memcpy
    aws_pkcs11_pal.o(.text) refers to memcmp.o(.text) for memcmp
    aws_pkcs11_pal.o(.text) refers to strcmp.o(.text) for strcmp
    aws_pkcs11_pal.o(.text) refers to aws_pkcs11_pal.o(.conststring) for .conststring
    aws_pkcs11_pal.o(.text) refers to aws_pkcs11_pal.o(.bss) for P11CertDataSave
    aws_pkcs11_pal.o(.text) refers to aws_pkcs11_pal.o(.data) for P11KeyConfig
    aws_test_pkcs11.o(.text) refers to strlen.o(.text) for strlen
    aws_test_pkcs11.o(.text) refers to heap_4.o(.text) for pvPortMalloc
    aws_test_pkcs11.o(.text) refers to aws_dev_mode_key_provisioning.o(.text) for convert_pem_to_der
    aws_test_pkcs11.o(.text) refers to aws_logging_task_dynamic_buffers.o(.text) for vLoggingPrintf
    aws_test_pkcs11.o(.text) refers to memmovea.o(.text) for __aeabi_memcpy4
    aws_test_pkcs11.o(.text) refers to memseta.o(.text) for __aeabi_memclr4
    aws_test_pkcs11.o(.text) refers to aws_test_pkcs11.o(.data) for xGlobalSession
    aws_test_pkcs11.o(.text) refers to aws_pkcs11_mbedtls.o(.text) for C_GetFunctionList
    aws_test_pkcs11.o(.text) refers to aws_test_pkcs11.o(.constdata) for .constdata
    aws_test_pkcs11.o(.text) refers to x509_crt.o(.text) for mbedtls_x509_crt_init
    aws_test_pkcs11.o(.text) refers to sha256.o(.text) for mbedtls_sha256_ret
    aws_test_pkcs11.o(.text) refers to event_groups.o(.text) for xEventGroupSetBits
    aws_test_pkcs11.o(.text) refers to tasks.o(.text) for vTaskDelete
    aws_test_pkcs11.o(.text) refers to unity.o(.text) for UnityAssertEqualNumber
    aws_test_pkcs11.o(.text) refers to unity_fixture.o(.text) for UnityTestRunner
    aws_test_pkcs11.o(.text) refers to aws_test_pkcs11.o(.conststring) for .conststring
    aws_test_pkcs11.o(.text) refers to setjmp.o(.text) for setjmp
    aws_test_pkcs11.o(.text) refers to unity.o(.bss) for Unity
    aws_test_pkcs11.o(.constdata) refers to aws_test_pkcs11.o(.conststring) for .conststring
    aws_test_pkcs11.o(.data) refers to aws_test_pkcs11.o(.conststring) for .conststring
    aws_secure_sockets.o(.text) refers to queue.o(.text) for xQueueSemaphoreTake
    aws_secure_sockets.o(.text) refers to esp8266_wifi.o(.text) for ESP_WIFI_Send
    aws_secure_sockets.o(.text) refers to tasks.o(.text) for vTaskDelay
    aws_secure_sockets.o(.text) refers to setjmp.o(.text) for longjmp
    aws_secure_sockets.o(.text) refers to memseta.o(.text) for __aeabi_memclr4
    aws_secure_sockets.o(.text) refers to aws_logging_task_dynamic_buffers.o(.text) for vLoggingPrintf
    aws_secure_sockets.o(.text) refers to aws_tls.o(.text) for TLS_Init
    aws_secure_sockets.o(.text) refers to aws_secure_sockets.o(.data) for xSSocketSem
    aws_secure_sockets.o(.text) refers to aws_secure_sockets.o(.bss) for xSockets
    aws_secure_sockets.o(.text) refers to aws_wifi.o(.bss) for xNuWiFi
    aws_secure_sockets.o(.text) refers to unity.o(.bss) for Unity
    aws_secure_sockets.o(.text) refers to heap_4.o(.text) for vPortFree
    aws_secure_sockets.o(.text) refers to memmovea.o(.text) for __aeabi_memcpy
    aws_test_tcp.o(.text) refers to setjmp.o(.text) for setjmp
    aws_test_tcp.o(.text) refers to aws_secure_sockets.o(.text) for SOCKETS_Close
    aws_test_tcp.o(.text) refers to unity.o(.text) for UnityAssertEqualNumber
    aws_test_tcp.o(.text) refers to aws_logging_task_dynamic_buffers.o(.text) for vLoggingPrintf
    aws_test_tcp.o(.text) refers to tasks.o(.text) for vTaskDelay
    aws_test_tcp.o(.text) refers to memseta.o(.text) for __aeabi_memset
    aws_test_tcp.o(.text) refers to printfa.o(i.__0snprintf) for __2snprintf
    aws_test_tcp.o(.text) refers to unity.o(.bss) for Unity
    aws_test_tcp.o(.text) refers to aws_test_tcp.o(.data) for xSocketOpen
    aws_test_tcp.o(.text) refers to aws_test_tcp.o(.constdata) for tcptestECHO_HOST_ROOT_CA
    aws_test_tcp.o(.text) refers to aws_test_tcp.o(.conststring) for .conststring
    aws_test_tcp.o(.text) refers to unity_fixture.o(.text) for UnityTestRunner
    aws_test_tcp.o(.text) refers to memmovea.o(.text) for __aeabi_memcpy4
    aws_test_tcp.o(.text) refers to heap_4.o(.text) for pvPortMalloc
    aws_test_tcp.o(.text) refers to strncmp.o(.text) for strncmp
    aws_test_tcp.o(.text) refers to event_groups.o(.text) for xEventGroupSync
    aws_test_tcp.o(.text) refers to queue.o(.text) for xQueueGenericCreate
    aws_test_tcp.o(.constdata) refers to aws_test_tcp.o(.conststring) for .conststring
    aws_test_tcp.o(.data) refers to aws_test_runner.o(.bss) for cBuffer
    aws_test_tcp.o(.data) refers to aws_test_tcp.o(.conststring) for .conststring
    aws_shadow.o(.text) refers to queue.o(.text) for xQueueSemaphoreTake
    aws_shadow.o(.text) refers to heap_4.o(.text) for pvPortMalloc
    aws_shadow.o(.text) refers to memmovea.o(.text) for __aeabi_memcpy
    aws_shadow.o(.text) refers to port.o(.text) for vPortEnterCritical
    aws_shadow.o(.text) refers to memseta.o(.text) for __aeabi_memclr4
    aws_shadow.o(.text) refers to aws_mqtt_agent.o(.text) for MQTT_AGENT_Create
    aws_shadow.o(.text) refers to aws_iot_shadow_api.o(.text) for AwsIotShadow_Init
    aws_shadow.o(.text) refers to strlen.o(.text) for strlen
    aws_shadow.o(.text) refers to aws_shadow.o(.data) for xAvailableShadowClients
    aws_iot_shadow_api.o(.text) refers to setjmp.o(.text) for longjmp
    aws_iot_shadow_api.o(.text) refers to memseta.o(.text) for __aeabi_memclr4
    aws_iot_shadow_api.o(.text) refers to aws_iot_shadow_operation.o(.text) for _AwsIotShadow_GenerateShadowTopic
    aws_iot_shadow_api.o(.text) refers to memmovea.o(.text) for __aeabi_memcpy
    aws_iot_shadow_api.o(.text) refers to iot_threads_afr.o(.text) for IotMutex_Lock
    aws_iot_shadow_api.o(.text) refers to aws_iot_shadow_subscription.o(.text) for _AwsIotShadow_FindSubscription
    aws_iot_shadow_api.o(.text) refers to unity.o(.bss) for Unity
    aws_iot_shadow_api.o(.text) refers to aws_iot_shadow_api.o(.constdata) for .constdata
    aws_iot_shadow_api.o(.text) refers to iot_mqtt_api.o(.text) for IotMqtt_TimedSubscribe
    aws_iot_shadow_api.o(.text) refers to aws_iot_shadow_api.o(.data) for _AwsIotShadowMqttTimeoutMs
    aws_iot_shadow_api.o(.text) refers to aws_iot_shadow_subscription.o(.bss) for _AwsIotShadowSubscriptionsMutex
    aws_iot_shadow_api.o(.text) refers to aws_iot_shadow_operation.o(.bss) for _AwsIotShadowPendingOperationsMutex
    aws_iot_shadow_api.o(.text) refers to aws_iot_shadow_operation.o(.data) for _AwsIotShadowPendingOperations
    aws_iot_shadow_api.o(.text) refers to aws_iot_shadow_subscription.o(.data) for _AwsIotShadowSubscriptions
    aws_iot_shadow_api.o(.text) refers to iot_json_utils.o(.text) for IotJsonUtils_FindJsonValue
    aws_iot_shadow_api.o(.text) refers to heap_4.o(.text) for pvPortMalloc
    aws_iot_shadow_api.o(.constdata) refers to aws_iot_shadow_api.o(.conststring) for .conststring
    aws_iot_shadow_api.o(.constdata) refers to aws_iot_shadow_api.o(.text) for _deltaCallbackWrapper
    aws_iot_shadow_operation.o(.text) refers to setjmp.o(.text) for longjmp
    aws_iot_shadow_operation.o(.text) refers to strncmp.o(.text) for strncmp
    aws_iot_shadow_operation.o(.text) refers to iot_json_utils.o(.text) for IotJsonUtils_FindJsonValue
    aws_iot_shadow_operation.o(.text) refers to iot_threads_afr.o(.text) for IotSemaphore_Destroy
    aws_iot_shadow_operation.o(.text) refers to heap_4.o(.text) for vPortFree
    aws_iot_shadow_operation.o(.text) refers to memseta.o(.text) for __aeabi_memclr4
    aws_iot_shadow_operation.o(.text) refers to aws_iot_shadow_subscription.o(.text) for _AwsIotShadow_DecrementReferences
    aws_iot_shadow_operation.o(.text) refers to memmovea.o(.text) for __aeabi_memcpy
    aws_iot_shadow_operation.o(.text) refers to aws_iot_shadow_parser.o(.text) for _AwsIotShadow_ParseThingName
    aws_iot_shadow_operation.o(.text) refers to unity.o(.bss) for Unity
    aws_iot_shadow_operation.o(.text) refers to aws_iot_shadow_subscription.o(.bss) for _AwsIotShadowSubscriptionsMutex
    aws_iot_shadow_operation.o(.text) refers to aws_iot_shadow_operation.o(.bss) for _AwsIotShadowPendingOperationsMutex
    aws_iot_shadow_operation.o(.text) refers to aws_iot_shadow_operation.o(.data) for _AwsIotShadowPendingOperations
    aws_iot_shadow_operation.o(.text) refers to iot_mqtt_api.o(.text) for IotMqtt_TimedPublish
    aws_iot_shadow_operation.o(.text) refers to aws_iot_shadow_operation.o(.constdata) for .constdata
    aws_iot_shadow_operation.o(.text) refers to aws_iot_shadow_api.o(.data) for _AwsIotShadowMqttTimeoutMs
    aws_iot_shadow_operation.o(.constdata) refers to aws_iot_shadow_operation.o(.conststring) for .conststring
    aws_iot_shadow_operation.o(.constdata) refers to aws_iot_shadow_operation.o(.text) for _deleteCallback
    aws_iot_shadow_parser.o(.text) refers to setjmp.o(.text) for longjmp
    aws_iot_shadow_parser.o(.text) refers to strncmp.o(.text) for strncmp
    aws_iot_shadow_parser.o(.text) refers to iot_json_utils.o(.text) for IotJsonUtils_FindJsonValue
    aws_iot_shadow_parser.o(.text) refers to strtoul.o(.text) for strtoul
    aws_iot_shadow_parser.o(.text) refers to unity.o(.bss) for Unity
    aws_iot_shadow_subscription.o(.text) refers to setjmp.o(.text) for longjmp
    aws_iot_shadow_subscription.o(.text) refers to strncmp.o(.text) for strncmp
    aws_iot_shadow_subscription.o(.text) refers to memseta.o(.text) for __aeabi_memclr4
    aws_iot_shadow_subscription.o(.text) refers to heap_4.o(.text) for pvPortMalloc
    aws_iot_shadow_subscription.o(.text) refers to strncpy.o(.text) for strncpy
    aws_iot_shadow_subscription.o(.text) refers to iot_mqtt_subscription.o(.text) for IotMqtt_IsSubscribed
    aws_iot_shadow_subscription.o(.text) refers to aws_iot_shadow_operation.o(.text) for _AwsIotShadow_GenerateShadowTopic
    aws_iot_shadow_subscription.o(.text) refers to unity.o(.bss) for Unity
    aws_iot_shadow_subscription.o(.text) refers to iot_mqtt_api.o(.text) for IotMqtt_TimedSubscribe
    aws_iot_shadow_subscription.o(.text) refers to aws_iot_shadow_api.o(.data) for _AwsIotShadowMqttTimeoutMs
    aws_iot_shadow_subscription.o(.text) refers to aws_iot_shadow_subscription.o(.data) for _AwsIotShadowSubscriptions
    aws_iot_shadow_subscription.o(.text) refers to iot_threads_afr.o(.text) for IotMutex_Lock
    aws_iot_shadow_subscription.o(.text) refers to aws_iot_shadow_subscription.o(.bss) for _AwsIotShadowSubscriptionsMutex
    aws_test_shadow.o(.text) refers to iot_init.o(.text) for IotSdk_Init
    aws_test_shadow.o(.text) refers to unity.o(.text) for UnityAssertEqualNumber
    aws_test_shadow.o(.text) refers to iot_mqtt_api.o(.text) for IotMqtt_Init
    aws_test_shadow.o(.text) refers to printfa.o(i.__0snprintf) for __2snprintf
    aws_test_shadow.o(.text) refers to queue.o(.text) for xQueueGenericSend
    aws_test_shadow.o(.text) refers to setjmp.o(.text) for setjmp
    aws_test_shadow.o(.text) refers to aws_shadow.o(.text) for SHADOW_ClientCreate
    aws_test_shadow.o(.text) refers to memseta.o(.text) for __aeabi_memclr4
    aws_test_shadow.o(.text) refers to tasks.o(.text) for vTaskDelay
    aws_test_shadow.o(.text) refers to unity_fixture.o(.text) for UnityTestRunner
    aws_test_shadow.o(.text) refers to aws_test_shadow.o(.conststring) for .conststring
    aws_test_shadow.o(.text) refers to aws_test_shadow.o(.bss) for pcUpdateBuffer
    aws_test_shadow.o(.text) refers to aws_test_shadow.o(.data) for xShadowUpdateSemaphore
    aws_test_shadow.o(.text) refers to aws_test_shadow.o(.constdata) for clientcredentialMQTT_BROKER_ENDPOINT
    aws_test_shadow.o(.text) refers to unity.o(.bss) for Unity
    aws_test_shadow.o(.text) refers to memcmp.o(.text) for memcmp
    aws_test_shadow.o(.data) refers to aws_test_shadow.o(.conststring) for .conststring
    aws_iot_tests_shadow_system.o(.text) refers to setjmp.o(.text) for longjmp
    aws_iot_tests_shadow_system.o(.text) refers to strncmp.o(.text) for strncmp
    aws_iot_tests_shadow_system.o(.text) refers to iot_json_utils.o(.text) for IotJsonUtils_FindJsonValue
    aws_iot_tests_shadow_system.o(.text) refers to iot_threads_afr.o(.text) for IotSemaphore_Post
    aws_iot_tests_shadow_system.o(.text) refers to memseta.o(.text) for __aeabi_memclr4
    aws_iot_tests_shadow_system.o(.text) refers to unity.o(.text) for UnityAssertEqualNumber
    aws_iot_tests_shadow_system.o(.text) refers to aws_iot_shadow_api.o(.text) for AwsIotShadow_Update
    aws_iot_tests_shadow_system.o(.text) refers to unity.o(.bss) for Unity
    aws_iot_tests_shadow_system.o(.text) refers to aws_iot_tests_shadow_system.o(.data) for _mqttConnection
    aws_iot_tests_shadow_system.o(.text) refers to aws_iot_tests_shadow_system.o(.conststring) for .conststring
    aws_iot_tests_shadow_system.o(.text) refers to heap_4.o(.text) for vPortFree
    aws_iot_tests_shadow_system.o(.text) refers to memmovea.o(.text) for __aeabi_memcpy4
    aws_iot_tests_shadow_system.o(.text) refers to iot_init.o(.text) for IotSdk_Init
    aws_iot_tests_shadow_system.o(.text) refers to iot_mqtt_api.o(.text) for IotMqtt_Init
    aws_iot_tests_shadow_system.o(.text) refers to iot_tests_network.o(.text) for IotTestNetwork_GetNetworkInterface
    aws_iot_tests_shadow_system.o(.text) refers to unity_fixture.o(.text) for UnityTestRunner
    aws_iot_tests_shadow_system.o(.text) refers to aws_iot_tests_shadow_system.o(.constdata) for .constdata
    aws_iot_tests_shadow_system.o(.text) refers to aws_iot_shadow_subscription.o(.text) for AwsIotShadow_RemovePersistentSubscriptions
    aws_iot_tests_shadow_system.o(.constdata) refers to aws_iot_tests_shadow_system.o(.conststring) for .conststring
    aws_iot_tests_shadow_system.o(.data) refers to aws_iot_tests_shadow_system.o(.conststring) for .conststring
    aws_iot_tests_shadow_api.o(.text) refers to iot_threads_afr.o(.text) for IotMutex_Lock
    aws_iot_tests_shadow_api.o(.text) refers to setjmp.o(.text) for longjmp
    aws_iot_tests_shadow_api.o(.text) refers to iot_mqtt_network.o(.text) for IotMqtt_ReceiveCallback
    aws_iot_tests_shadow_api.o(.text) refers to memseta.o(.text) for __aeabi_memclr4
    aws_iot_tests_shadow_api.o(.text) refers to iot_mqtt_serialize.o(.text) for _IotMqtt_GetRemainingLength
    aws_iot_tests_shadow_api.o(.text) refers to iot_clock_afr.o(.text) for IotClock_TimerArm
    aws_iot_tests_shadow_api.o(.text) refers to memmovea.o(.text) for __aeabi_memcpy
    aws_iot_tests_shadow_api.o(.text) refers to iot_init.o(.text) for IotSdk_Init
    aws_iot_tests_shadow_api.o(.text) refers to unity.o(.text) for UnityAssertEqualNumber
    aws_iot_tests_shadow_api.o(.text) refers to iot_mqtt_api.o(.text) for IotMqtt_Init
    aws_iot_tests_shadow_api.o(.text) refers to aws_iot_shadow_api.o(.text) for AwsIotShadow_Init
    aws_iot_tests_shadow_api.o(.text) refers to unity_fixture.o(.text) for UnityMalloc_MakeMallocFailAfterCount
    aws_iot_tests_shadow_api.o(.text) refers to aws_iot_tests_shadow_api.o(.bss) for _lastPacketMutex
    aws_iot_tests_shadow_api.o(.text) refers to aws_iot_tests_shadow_api.o(.data) for _lastPacketType
    aws_iot_tests_shadow_api.o(.text) refers to unity.o(.bss) for Unity
    aws_iot_tests_shadow_api.o(.text) refers to aws_iot_tests_shadow_api.o(.constdata) for .constdata
    aws_iot_tests_shadow_api.o(.text) refers to aws_iot_shadow_api.o(.data) for _AwsIotShadowMqttTimeoutMs
    aws_iot_tests_shadow_api.o(.text) refers to aws_iot_tests_shadow_api.o(.conststring) for .conststring
    aws_iot_tests_shadow_api.o(.text) refers to heap_4.o(.text) for pvPortMalloc
    aws_iot_tests_shadow_api.o(.data) refers to aws_iot_tests_shadow_api.o(.conststring) for .conststring
    aws_iot_tests_shadow_parser.o(.text) refers to strlen.o(.text) for strlen
    aws_iot_tests_shadow_parser.o(.text) refers to iot_json_utils.o(.text) for IotJsonUtils_FindJsonValue
    aws_iot_tests_shadow_parser.o(.text) refers to unity.o(.text) for UnityAssertEqualNumber
    aws_iot_tests_shadow_parser.o(.text) refers to printfa.o(i.__0vsnprintf) for vsnprintf
    aws_iot_tests_shadow_parser.o(.text) refers to aws_iot_shadow_parser.o(.text) for _AwsIotShadow_ParseErrorDocument
    aws_iot_tests_shadow_parser.o(.text) refers to aws_iot_shadow_api.o(.text) for AwsIotShadow_Init
    aws_iot_tests_shadow_parser.o(.text) refers to unity_fixture.o(.text) for UnityTestRunner
    aws_iot_tests_shadow_parser.o(.text) refers to memseta.o(.text) for __aeabi_memclr4
    aws_iot_tests_shadow_parser.o(.text) refers to memmovea.o(.text) for __aeabi_memcpy4
    aws_iot_tests_shadow_parser.o(.text) refers to aws_iot_tests_shadow_parser.o(.conststring) for .conststring
    aws_iot_tests_shadow_parser.o(.text) refers to aws_iot_tests_shadow_parser.o(.data) for TEST_GROUP_Shadow_Unit_Parser
    aws_iot_tests_shadow_parser.o(.text) refers to aws_iot_tests_shadow_parser.o(.constdata) for .constdata
    aws_iot_tests_shadow_parser.o(.data) refers to aws_iot_tests_shadow_parser.o(.conststring) for .conststring
    aws_tls.o(.text) refers to _scanf_int.o(.text) for _scanf_int
    aws_tls.o(.text) refers to _scanf_str.o(.text) for _scanf_string
    aws_tls.o(.text) refers to ssl_tls.o(.text) for mbedtls_ssl_close_notify
    aws_tls.o(.text) refers to aws_logging_task_dynamic_buffers.o(.text) for vLoggingPrintf
    aws_tls.o(.text) refers to memmovea.o(.text) for __aeabi_memcpy4
    aws_tls.o(.text) refers to __0sscanf.o(.text) for __0sscanf
    aws_tls.o(.text) refers to strstr.o(.text) for strstr
    aws_tls.o(.text) refers to aws_pkcs11_mbedtls.o(.text) for C_SignInit
    aws_tls.o(.text) refers to x509_crt.o(.text) for mbedtls_x509_crt_init
    aws_tls.o(.text) refers to pk.o(.text) for mbedtls_pk_info_from_type
    aws_tls.o(.text) refers to heap_4.o(.text) for pvPortMalloc
    aws_tls.o(.text) refers to strlen.o(.text) for strlen
    aws_tls.o(.text) refers to memseta.o(.text) for __aeabi_memclr4
    aws_tls.o(.text) refers to aws_crypto.o(.text) for CRYPTO_ConfigureHeap
    aws_tls.o(.text) refers to aws_dev_mode_key_provisioning.o(.data) for clientcredentialJITR_DEVICE_CERTIFICATE_AUTHORITY_PEM
    aws_tls.o(.text) refers to aws_tls.o(.conststring) for .conststring
    aws_tls.o(.text) refers to aws_tls.o(.constdata) for tlsVERISIGN_ROOT_CERTIFICATE_PEM
    aws_test_tls.o(.text) refers to setjmp.o(.text) for setjmp
    aws_test_tls.o(.text) refers to aws_dev_mode_key_provisioning.o(.text) for vAlternateKeyProvisioning
    aws_test_tls.o(.text) refers to aws_secure_sockets.o(.text) for SOCKETS_Socket
    aws_test_tls.o(.text) refers to unity.o(.text) for UnityFail
    aws_test_tls.o(.text) refers to strlen.o(.text) for strlen
    aws_test_tls.o(.text) refers to unity_fixture.o(.text) for UnityTestRunner
    aws_test_tls.o(.text) refers to aws_logging_task_dynamic_buffers.o(.text) for vLoggingPrintf
    aws_test_tls.o(.text) refers to aws_test_tls.o(.constdata) for clientcredentialMQTT_BROKER_ENDPOINT
    aws_test_tls.o(.text) refers to unity.o(.bss) for Unity
    aws_test_tls.o(.text) refers to aws_test_tls.o(.conststring) for .conststring
    aws_test_tls.o(.text) refers to aws_test_tls.o(.data) for TEST_GROUP_Full_TLS
    aws_test_tls.o(.text) refers to aws_test_runner.o(.bss) for cBuffer
    aws_test_tls.o(.text) refers to aws_dev_mode_key_provisioning.o(.constdata) for clientcredentialCLIENT_PRIVATE_KEY_PEM
    aws_test_tls.o(.data) refers to aws_test_tls.o(.conststring) for .conststring
    aws_system_init.o(.text) refers to aws_secure_sockets.o(.text) for SOCKETS_Init
    aes.o(.text) refers to memseta.o(.text) for __aeabi_memclr4
    aes.o(.text) refers to platform_util.o(.text) for mbedtls_platform_zeroize
    aes.o(.text) refers to aes.o(.constdata) for RCON
    aes.o(.text) refers to memmovea.o(.text) for __aeabi_memcpy
    aes.o(.text) refers to printfa.o(i.__0printf) for __2printf
    aes.o(.text) refers to memcmp.o(.text) for memcmp
    asn1parse.o(.text) refers to bignum.o(.text) for mbedtls_mpi_read_binary
    asn1parse.o(.text) refers to platform.o(.text) for mbedtls_calloc
    asn1parse.o(.text) refers to platform_util.o(.text) for mbedtls_platform_zeroize
    asn1parse.o(.text) refers to memcmp.o(.text) for memcmp
    asn1write.o(.text) refers to memmovea.o(.text) for __aeabi_memcpy
    asn1write.o(.text) refers to bignum.o(.text) for mbedtls_mpi_size
    asn1write.o(.text) refers to asn1parse.o(.text) for mbedtls_asn1_find_named_data
    asn1write.o(.text) refers to platform.o(.text) for mbedtls_calloc
    base64.o(.text) refers to printfa.o(i.__0printf) for __2printf
    base64.o(.text) refers to memcmp.o(.text) for memcmp
    base64.o(.text) refers to base64.o(.constdata) for base64_enc_map
    bignum.o(.text) refers to platform_util.o(.text) for mbedtls_platform_zeroize
    bignum.o(.text) refers to platform.o(.text) for mbedtls_free
    bignum.o(.text) refers to memmovea.o(.text) for __aeabi_memcpy4
    bignum.o(.text) refers to memseta.o(.text) for __aeabi_memclr4
    bignum.o(.text) refers to strlen.o(.text) for strlen
    bignum.o(.text) refers to uldiv.o(.text) for __aeabi_uldivmod
    bignum.o(.text) refers to bignum.o(.constdata) for small_prime
    bignum.o(.text) refers to printfa.o(i.__0printf) for __2printf
    bignum.o(.text) refers to bignum.o(.conststring) for .conststring
    cipher.o(.text) refers to strcmp.o(.text) for strcmp
    cipher.o(.text) refers to memseta.o(.text) for __aeabi_memclr4
    cipher.o(.text) refers to platform_util.o(.text) for mbedtls_platform_zeroize
    cipher.o(.text) refers to cipher.o(.data) for supported_init
    cipher.o(.text) refers to cipher_wrap.o(.constdata) for mbedtls_cipher_definitions
    cipher.o(.text) refers to cipher_wrap.o(.bss) for mbedtls_cipher_supported
    cipher.o(.text) refers to memmovea.o(.text) for __aeabi_memcpy
    cipher.o(.text) refers to gcm.o(.text) for mbedtls_gcm_starts
    cipher_wrap.o(.text) refers to platform.o(.text) for mbedtls_calloc
    cipher_wrap.o(.text) refers to gcm.o(.text) for mbedtls_gcm_init
    cipher_wrap.o(.text) refers to aes.o(.text) for mbedtls_aes_crypt_ecb
    cipher_wrap.o(.constdata) refers to cipher_wrap.o(.text) for aes_crypt_ecb_wrap
    cipher_wrap.o(.constdata) refers to cipher_wrap.o(.conststring) for .conststring
    ctr_drbg.o(.text) refers to memseta.o(.text) for __aeabi_memclr4
    ctr_drbg.o(.text) refers to aes.o(.text) for mbedtls_aes_crypt_ecb
    ctr_drbg.o(.text) refers to memmovea.o(.text) for __aeabi_memcpy
    ctr_drbg.o(.text) refers to platform_util.o(.text) for mbedtls_platform_zeroize
    ctr_drbg.o(.text) refers to threading.o(.data) for mbedtls_mutex_init
    ctr_drbg.o(.text) refers to printfa.o(i.__0printf) for __2printf
    ctr_drbg.o(.text) refers to memcmp.o(.text) for memcmp
    ctr_drbg.o(.text) refers to ctr_drbg.o(.data) for test_offset
    ctr_drbg.o(.text) refers to ctr_drbg.o(.constdata) for nonce_pers_pr
    ecdh.o(.text) refers to ecp.o(.text) for mbedtls_ecp_gen_keypair
    ecdh.o(.text) refers to bignum.o(.text) for mbedtls_mpi_copy
    ecdh.o(.text) refers to memseta.o(.text) for __aeabi_memclr4
    ecdsa.o(.text) refers to bignum.o(.text) for mbedtls_mpi_read_binary
    ecdsa.o(.text) refers to ecp.o(.text) for mbedtls_ecp_point_init
    ecdsa.o(.text) refers to asn1write.o(.text) for mbedtls_asn1_write_mpi
    ecdsa.o(.text) refers to memmovea.o(.text) for __aeabi_memcpy
    ecdsa.o(.text) refers to asn1parse.o(.text) for mbedtls_asn1_get_tag
    ecdsa.o(.text) refers to ecp_curves.o(.text) for mbedtls_ecp_group_load
    ecp.o(.text) refers to strcmp.o(.text) for strcmp
    ecp.o(.text) refers to bignum.o(.text) for mbedtls_mpi_init
    ecp.o(.text) refers to memseta.o(.text) for __aeabi_memclr4
    ecp.o(.text) refers to platform.o(.text) for mbedtls_free
    ecp.o(.text) refers to platform_util.o(.text) for mbedtls_platform_zeroize
    ecp.o(.text) refers to ecp_curves.o(.text) for mbedtls_ecp_group_load
    ecp.o(.text) refers to ecp.o(.constdata) for ecp_supported_curves
    ecp.o(.text) refers to ecp.o(.data) for init_done
    ecp.o(.text) refers to memmovea.o(.text) for __aeabi_memcpy4
    ecp.o(.text) refers to printfa.o(i.__0printf) for __2printf
    ecp.o(.constdata) refers to ecp.o(.conststring) for .conststring
    ecp_curves.o(.text) refers to bignum.o(.text) for mbedtls_mpi_bitlen
    ecp_curves.o(.text) refers to memseta.o(.text) for __aeabi_memclr4
    ecp_curves.o(.text) refers to ecp_curves.o(.data) for one
    ecp_curves.o(.text) refers to ecp.o(.text) for mbedtls_ecp_group_free
    ecp_curves.o(.text) refers to ecp_curves.o(.constdata) for secp256r1_n
    entropy.o(.text) refers to memseta.o(.text) for __aeabi_memclr4
    entropy.o(.text) refers to sha256.o(.text) for mbedtls_sha256_init
    entropy.o(.text) refers to platform_util.o(.text) for mbedtls_platform_zeroize
    entropy.o(.text) refers to memmovea.o(.text) for __aeabi_memcpy
    entropy.o(.text) refers to threading.o(.data) for mbedtls_mutex_lock
    entropy.o(.text) refers to entropy_hardware_poll.o(.text) for mbedtls_hardware_poll
    entropy.o(.text) refers to printfa.o(i.__0printf) for __2printf
    entropy.o(.text) refers to memcmp.o(.text) for memcmp
    gcm.o(.text) refers to memseta.o(.text) for __aeabi_memclr4
    gcm.o(.text) refers to cipher.o(.text) for mbedtls_cipher_update
    gcm.o(.text) refers to memmovea.o(.text) for __aeabi_memcpy
    gcm.o(.text) refers to platform_util.o(.text) for mbedtls_platform_zeroize
    gcm.o(.text) refers to printfa.o(i.__0printf) for __2printf
    gcm.o(.text) refers to memcmp.o(.text) for memcmp
    gcm.o(.text) refers to gcm.o(.constdata) for last4
    md.o(.text) refers to strcmp.o(.text) for strcmp
    md.o(.text) refers to platform_util.o(.text) for mbedtls_platform_zeroize
    md.o(.text) refers to platform.o(.text) for mbedtls_free
    md.o(.text) refers to memseta.o(.text) for __aeabi_memset
    md.o(.text) refers to md.o(.constdata) for supported_digests
    md.o(.text) refers to md_wrap.o(.constdata) for mbedtls_sha1_info
    md_wrap.o(.text) refers to sha1.o(.text) for mbedtls_sha1_starts_ret
    md_wrap.o(.text) refers to platform.o(.text) for mbedtls_calloc
    md_wrap.o(.text) refers to sha256.o(.text) for mbedtls_sha256_starts_ret
    md_wrap.o(.constdata) refers to md_wrap.o(.conststring) for .conststring
    md_wrap.o(.constdata) refers to md_wrap.o(.text) for sha1_starts_wrap
    md_wrap.o(.constdata) refers to sha1.o(.text) for mbedtls_sha1_ret
    oid.o(.text) refers to memcmp.o(.text) for memcmp
    oid.o(.text) refers to oid.o(.constdata) for oid_x520_attr_type
    oid.o(.text) refers to printfa.o(i.__0snprintf) for __2snprintf
    oid.o(.constdata) refers to oid.o(.conststring) for .conststring
    pem.o(.text) refers to strstr.o(.text) for strstr
    pem.o(.text) refers to strlen.o(.text) for strlen
    pem.o(.text) refers to memcmp.o(.text) for memcmp
    pem.o(.text) refers to base64.o(.text) for mbedtls_base64_decode
    pem.o(.text) refers to platform.o(.text) for mbedtls_calloc
    pem.o(.text) refers to platform_util.o(.text) for mbedtls_platform_zeroize
    pk.o(.text) refers to platform_util.o(.text) for mbedtls_platform_zeroize
    pk.o(.text) refers to md.o(.text) for mbedtls_md_info_from_type
    pk.o(.text) refers to pk_wrap.o(.constdata) for mbedtls_rsa_info
    pk_wrap.o(.text) refers to rsa.o(.text) for mbedtls_rsa_get_len
    pk_wrap.o(.text) refers to platform.o(.text) for mbedtls_calloc
    pk_wrap.o(.text) refers to ecdsa.o(.text) for mbedtls_ecdsa_read_signature
    pk_wrap.o(.text) refers to ecp.o(.text) for mbedtls_ecp_check_pub_priv
    pk_wrap.o(.text) refers to memseta.o(.text) for __aeabi_memset
    pk_wrap.o(.text) refers to platform_util.o(.text) for mbedtls_platform_zeroize
    pk_wrap.o(.constdata) refers to pk_wrap.o(.conststring) for .conststring
    pk_wrap.o(.constdata) refers to pk_wrap.o(.text) for rsa_get_bitlen
    pkparse.o(.text) refers to asn1parse.o(.text) for mbedtls_asn1_get_tag
    pkparse.o(.text) refers to oid.o(.text) for mbedtls_oid_get_ec_grp
    pkparse.o(.text) refers to ecp_curves.o(.text) for mbedtls_ecp_group_load
    pkparse.o(.text) refers to ecp.o(.text) for mbedtls_ecp_point_read_binary
    pkparse.o(.text) refers to rsa.o(.text) for mbedtls_rsa_import_raw
    pkparse.o(.text) refers to pk.o(.text) for mbedtls_pk_info_from_type
    pkparse.o(.text) refers to bignum.o(.text) for mbedtls_mpi_init
    pkparse.o(.text) refers to pem.o(.text) for mbedtls_pem_init
    pkwrite.o(.text) refers to bignum.o(.text) for mbedtls_mpi_init
    pkwrite.o(.text) refers to rsa.o(.text) for mbedtls_rsa_export
    pkwrite.o(.text) refers to asn1write.o(.text) for mbedtls_asn1_write_mpi
    pkwrite.o(.text) refers to ecp.o(.text) for mbedtls_ecp_point_write_binary
    pkwrite.o(.text) refers to memmovea.o(.text) for __aeabi_memcpy
    pkwrite.o(.text) refers to oid.o(.text) for mbedtls_oid_get_oid_by_ec_grp
    pkwrite.o(.text) refers to pk.o(.text) for mbedtls_pk_get_type
    platform.o(.text) refers to platform.o(.data) for mbedtls_calloc_func
    platform.o(.data) refers to calloc.o(.text) for calloc
    platform.o(.data) refers to malloc.o(i.free) for free
    rsa.o(.text) refers to bignum.o(.text) for mbedtls_mpi_copy
    rsa.o(.text) refers to rsa_internal.o(.text) for mbedtls_rsa_deduce_primes
    rsa.o(.text) refers to memseta.o(.text) for __aeabi_memclr4
    rsa.o(.text) refers to threading.o(.data) for mbedtls_mutex_init
    rsa.o(.text) refers to memmovea.o(.text) for __aeabi_memcpy
    rsa.o(.text) refers to platform_util.o(.text) for mbedtls_platform_zeroize
    rsa.o(.text) refers to md.o(.text) for mbedtls_md_info_from_type
    rsa.o(.text) refers to oid.o(.text) for mbedtls_oid_get_oid_by_md
    rsa.o(.text) refers to platform.o(.text) for mbedtls_calloc
    rsa.o(.text) refers to rand.o(.text) for rand
    rsa.o(.text) refers to rsa.o(.conststring) for .conststring
    rsa.o(.text) refers to printfa.o(i.__0printf) for __2printf
    rsa.o(.text) refers to memcmp.o(.text) for memcmp
    rsa.o(.text) refers to sha1.o(.text) for mbedtls_sha1_ret
    rsa_internal.o(.text) refers to memmovea.o(.text) for __aeabi_memcpy4
    rsa_internal.o(.text) refers to bignum.o(.text) for mbedtls_mpi_cmp_int
    sha1.o(.text) refers to memseta.o(.text) for __aeabi_memclr4
    sha1.o(.text) refers to platform_util.o(.text) for mbedtls_platform_zeroize
    sha1.o(.text) refers to memmovea.o(.text) for __aeabi_memcpy4
    sha1.o(.text) refers to printfa.o(i.__0printf) for __2printf
    sha1.o(.text) refers to memcmp.o(.text) for memcmp
    sha1.o(.text) refers to sha1.o(.constdata) for sha1_test_buflen
    sha256.o(.text) refers to memseta.o(.text) for __aeabi_memclr4
    sha256.o(.text) refers to platform_util.o(.text) for mbedtls_platform_zeroize
    sha256.o(.text) refers to memmovea.o(.text) for __aeabi_memcpy4
    sha256.o(.text) refers to sha256.o(.constdata) for K
    sha256.o(.text) refers to platform.o(.text) for mbedtls_calloc
    sha256.o(.text) refers to printfa.o(i.__0printf) for __2printf
    sha256.o(.text) refers to memcmp.o(.text) for memcmp
    ssl_ciphersuites.o(.text) refers to strcmp.o(.text) for strcmp
    ssl_ciphersuites.o(.text) refers to ssl_ciphersuites.o(.constdata) for ciphersuite_definitions
    ssl_ciphersuites.o(.text) refers to ssl_ciphersuites.o(.data) for supported_init
    ssl_ciphersuites.o(.text) refers to ssl_ciphersuites.o(.bss) for supported_ciphersuites
    ssl_ciphersuites.o(.constdata) refers to ssl_ciphersuites.o(.conststring) for .conststring
    ssl_cli.o(.text) refers to strlen.o(.text) for strlen
    ssl_cli.o(.text) refers to memmovea.o(.text) for __aeabi_memcpy
    ssl_cli.o(.text) refers to ssl_tls.o(.text) for mbedtls_ssl_hash_from_md_alg
    ssl_cli.o(.text) refers to ecp.o(.text) for mbedtls_ecp_curve_info_from_grp_id
    ssl_cli.o(.text) refers to ssl_ciphersuites.o(.text) for mbedtls_ssl_ciphersuite_from_id
    ssl_cli.o(.text) refers to memcmp.o(.text) for memcmp
    ssl_cli.o(.text) refers to ecdh.o(.text) for mbedtls_ecdh_read_params
    ssl_cli.o(.text) refers to pk.o(.text) for mbedtls_pk_can_do
    ssl_tls.o(.text) refers to x509_crt.o(.text) for mbedtls_x509_crt_free
    ssl_tls.o(.text) refers to platform.o(.text) for mbedtls_free
    ssl_tls.o(.text) refers to platform_util.o(.text) for mbedtls_platform_zeroize
    ssl_tls.o(.text) refers to memmovea.o(.text) for __aeabi_memcpy4
    ssl_tls.o(.text) refers to md.o(.text) for mbedtls_md_init
    ssl_tls.o(.text) refers to strlen.o(.text) for strlen
    ssl_tls.o(.text) refers to sha256.o(.text) for mbedtls_sha256_init
    ssl_tls.o(.text) refers to cipher.o(.text) for mbedtls_cipher_info_from_type
    ssl_tls.o(.text) refers to pk.o(.text) for mbedtls_pk_can_do
    ssl_tls.o(.text) refers to ecdh.o(.text) for mbedtls_ecdh_free
    ssl_tls.o(.text) refers to memseta.o(.text) for __aeabi_memclr4
    ssl_tls.o(.text) refers to ssl_ciphersuites.o(.text) for mbedtls_ssl_get_ciphersuite_name
    ssl_tls.o(.text) refers to ssl_cli.o(.text) for mbedtls_ssl_handshake_client_step
    ssl_tls.o(.text) refers to ecp.o(.text) for mbedtls_ecp_grp_id_list
    ssl_tls.o(.text) refers to ssl_tls.o(.data) for ssl_preset_suiteb_ciphersuites
    ssl_tls.o(.text) refers to x509_crt.o(.constdata) for mbedtls_x509_crt_profile_suiteb
    threading.o(.text) refers to threading.o(.data) for mbedtls_mutex_init
    threading.o(.data) refers to threading.o(.text) for threading_mutex_dummy
    version.o(.text) refers to memmovea.o(.text) for __aeabi_memcpy
    version_features.o(.text) refers to strcmp.o(.text) for strcmp
    version_features.o(.text) refers to version_features.o(.data) for features
    version_features.o(.data) refers to version_features.o(.conststring) for .conststring
    x509.o(.text) refers to asn1parse.o(.text) for mbedtls_asn1_get_len
    x509.o(.text) refers to platform.o(.text) for mbedtls_calloc
    x509.o(.text) refers to oid.o(.text) for mbedtls_oid_get_sig_alg
    x509.o(.text) refers to memseta.o(.text) for __aeabi_memclr4
    x509.o(.text) refers to printfa.o(i.__0snprintf) for __2snprintf
    x509_crt.o(.text) refers to pk.o(.text) for mbedtls_pk_get_type
    x509_crt.o(.text) refers to asn1parse.o(.text) for mbedtls_asn1_get_tag
    x509_crt.o(.text) refers to x509.o(.text) for mbedtls_x509_get_time
    x509_crt.o(.text) refers to platform.o(.text) for mbedtls_calloc
    x509_crt.o(.text) refers to oid.o(.text) for mbedtls_oid_get_x509_ext_type
    x509_crt.o(.text) refers to platform_util.o(.text) for mbedtls_platform_zeroize
    x509_crt.o(.text) refers to memmovea.o(.text) for __aeabi_memcpy
    x509_crt.o(.text) refers to pkparse.o(.text) for mbedtls_pk_parse_subpubkey
    x509_crt.o(.text) refers to memcmp.o(.text) for memcmp
    x509_crt.o(.text) refers to memseta.o(.text) for __aeabi_memclr4
    x509_crt.o(.text) refers to strstr.o(.text) for strstr
    x509_crt.o(.text) refers to pem.o(.text) for mbedtls_pem_init
    x509_crt.o(.text) refers to printfa.o(i.__0snprintf) for __2snprintf
    x509_crt.o(.text) refers to x509_crt.o(.constdata) for x509_crt_verify_strings
    x509_crt.o(.text) refers to strlen.o(.text) for strlen
    x509_crt.o(.text) refers to md.o(.text) for mbedtls_md_info_from_type
    x509_crt.o(.constdata) refers to x509_crt.o(.conststring) for .conststring
    platform_util.o(.text) refers to platform_util.o(.data) for memset_func
    platform_util.o(.data) refers to memseta.o(.text) for memset
    iot_clock_afr.o(.text) refers to timers.o(.text) for pvTimerGetTimerID
    iot_clock_afr.o(.text) refers to setjmp.o(.text) for longjmp
    iot_clock_afr.o(.text) refers to tasks.o(.text) for vTaskSetTimeOutState
    iot_clock_afr.o(.text) refers to printfa.o(i.__0snprintf) for __2snprintf
    iot_clock_afr.o(.text) refers to unity.o(.bss) for Unity
    iot_network_afr.o(.text) refers to aws_secure_sockets.o(.text) for SOCKETS_Close
    iot_network_afr.o(.text) refers to heap_4.o(.text) for vPortFree
    iot_network_afr.o(.text) refers to setjmp.o(.text) for longjmp
    iot_network_afr.o(.text) refers to event_groups.o(.text) for xEventGroupClearBits
    iot_network_afr.o(.text) refers to tasks.o(.text) for vTaskDelete
    iot_network_afr.o(.text) refers to strlen.o(.text) for strlen
    iot_network_afr.o(.text) refers to memseta.o(.text) for __aeabi_memclr4
    iot_network_afr.o(.text) refers to queue.o(.text) for xQueueCreateMutexStatic
    iot_network_afr.o(.text) refers to unity.o(.bss) for Unity
    iot_network_afr.o(.text) refers to iot_network_afr.o(.constdata) for .constdata
    iot_network_afr.o(.constdata) refers to iot_network_afr.o(.text) for IotNetworkAfr_Create
    iot_network_afr.o(.constdata) refers to iot_network_afr.o(.conststring) for .conststring
    iot_threads_afr.o(.text) refers to heap_4.o(.text) for vPortFree
    iot_threads_afr.o(.text) refers to tasks.o(.text) for vTaskDelete
    iot_threads_afr.o(.text) refers to setjmp.o(.text) for longjmp
    iot_threads_afr.o(.text) refers to queue.o(.text) for xQueueCreateMutexStatic
    iot_threads_afr.o(.text) refers to unity.o(.bss) for Unity
    iot_taskpool.o(.text) refers to setjmp.o(.text) for longjmp
    iot_taskpool.o(.text) refers to iot_clock_afr.o(.text) for IotClock_TimerDestroy
    iot_taskpool.o(.text) refers to iot_threads_afr.o(.text) for IotSemaphore_Destroy
    iot_taskpool.o(.text) refers to heap_4.o(.text) for vPortFree
    iot_taskpool.o(.text) refers to unity.o(.bss) for Unity
    iot_taskpool.o(.text) refers to iot_taskpool.o(.bss) for _IotSystemTaskPool
    iot_taskpool.o(.text) refers to memseta.o(.text) for __aeabi_memclr4
    iot_init.o(.text) refers to iot_taskpool.o(.text) for IotTaskPool_CreateSystemTaskPool
    iot_init.o(.text) refers to iot_init.o(.constdata) for .constdata
    iot_json_utils.o(.text) refers to strncmp.o(.text) for strncmp
    iot_logging.o(.text) refers to heap_4.o(.text) for pvPortMalloc
    iot_logging.o(.text) refers to memmovea.o(.text) for __aeabi_memcpy
    iot_logging.o(.text) refers to strlen.o(.text) for strlen
    iot_logging.o(.text) refers to printfa.o(i.__0snprintf) for __2snprintf
    iot_logging.o(.text) refers to iot_clock_afr.o(.text) for IotClock_GetTimestring
    iot_logging.o(.text) refers to printfa.o(i.__0vsnprintf) for vsnprintf
    iot_logging.o(.text) refers to aws_logging_task_dynamic_buffers.o(.text) for vLoggingPrintf
    iot_logging.o(.text) refers to printfa.o(i.__0sprintf) for __2sprintf
    iot_logging.o(.text) refers to iot_logging.o(.constdata) for _pLogLevelStrings
    iot_logging.o(.constdata) refers to iot_logging.o(.conststring) for .conststring
    aws_logging_task_dynamic_buffers.o(.text) refers to queue.o(.text) for xQueueReceive
    aws_logging_task_dynamic_buffers.o(.text) refers to printfa.o(i.__0printf) for __2printf
    aws_logging_task_dynamic_buffers.o(.text) refers to heap_4.o(.text) for vPortFree
    aws_logging_task_dynamic_buffers.o(.text) refers to tasks.o(.text) for xTaskCreate
    aws_logging_task_dynamic_buffers.o(.text) refers to setjmp.o(.text) for longjmp
    aws_logging_task_dynamic_buffers.o(.text) refers to strcmp.o(.text) for strcmp
    aws_logging_task_dynamic_buffers.o(.text) refers to printfa.o(i.__0snprintf) for __2snprintf
    aws_logging_task_dynamic_buffers.o(.text) refers to printfa.o(i.__0vsnprintf) for vsnprintf
    aws_logging_task_dynamic_buffers.o(.text) refers to strlen.o(.text) for strlen
    aws_logging_task_dynamic_buffers.o(.text) refers to strncpy.o(.text) for strncpy
    aws_logging_task_dynamic_buffers.o(.text) refers to aws_logging_task_dynamic_buffers.o(.data) for xQueue
    aws_logging_task_dynamic_buffers.o(.text) refers to unity.o(.bss) for Unity
    aws_memory_leak.o(.text) refers to aws_logging_task_dynamic_buffers.o(.text) for vLoggingPrintf
    aws_memory_leak.o(.text) refers to unity.o(.text) for UnityAssertEqualNumber
    aws_memory_leak.o(.text) refers to unity_fixture.o(.text) for UnityTestRunner
    aws_memory_leak.o(.text) refers to aws_test_runner.o(.data) for xHeapBefore
    aws_memory_leak.o(.text) refers to aws_memory_leak.o(.conststring) for .conststring
    aws_memory_leak.o(.text) refers to aws_memory_leak.o(.data) for TEST_GROUP_Full_MemoryLeak
    aws_memory_leak.o(.data) refers to aws_memory_leak.o(.conststring) for .conststring
    iot_test_platform_clock.o(.text) refers to iot_clock_afr.o(.text) for IotClock_TimerCreate
    iot_test_platform_clock.o(.text) refers to tasks.o(.text) for vTaskDelay
    iot_test_platform_clock.o(.text) refers to unity.o(.text) for UnityAssertEqualNumber
    iot_test_platform_clock.o(.text) refers to unity_fixture.o(.text) for UnityTestRunner
    iot_test_platform_clock.o(.text) refers to memseta.o(.text) for __aeabi_memclr4
    iot_test_platform_clock.o(.text) refers to strlen.o(.text) for strlen
    iot_test_platform_clock.o(.text) refers to iot_test_platform_clock.o(.conststring) for .conststring
    iot_test_platform_clock.o(.text) refers to iot_test_platform_clock.o(.data) for TEST_GROUP_UTIL_Platform_Clock
    iot_test_platform_clock.o(.data) refers to iot_test_platform_clock.o(.conststring) for .conststring
    iot_test_platform_threads.o(.text) refers to tasks.o(.text) for vTaskDelay
    iot_test_platform_threads.o(.text) refers to iot_threads_afr.o(.text) for IotSemaphore_Post
    iot_test_platform_threads.o(.text) refers to unity.o(.text) for UnityAssertEqualNumber
    iot_test_platform_threads.o(.text) refers to unity_fixture.o(.text) for UnityTestRunner
    iot_test_platform_threads.o(.text) refers to printfa.o(i.__0printf) for __2printf
    iot_test_platform_threads.o(.text) refers to iot_test_platform_threads.o(.conststring) for .conststring
    iot_test_platform_threads.o(.text) refers to iot_test_platform_threads.o(.data) for TEST_GROUP_UTIL_Platform_Threads
    iot_test_platform_threads.o(.data) refers to iot_test_platform_threads.o(.conststring) for .conststring
    unity.o(.text) refers to putc.o(i.putc) for putc
    unity.o(.text) refers to retarget.o(.data) for __stdout
    unity.o(.text) refers to setjmp.o(.text) for longjmp
    unity.o(.text) refers to unity.o(.bss) for Unity
    unity.o(.text) refers to unity.o(.constdata) for UnityStrFail
    unity.o(.text) refers to unity.o(.data) for UnityQuickCompare
    unity.o(.text) refers to unity_fixture.o(.text) for setUp
    unity_fixture.o(.text) refers to unity.o(.text) for UnityPrint
    unity_fixture.o(.text) refers to putc.o(i.putc) for putc
    unity_fixture.o(.text) refers to strcmp.o(.text) for strcmp
    unity_fixture.o(.text) refers to strstr.o(.text) for strstr
    unity_fixture.o(.text) refers to setjmp.o(.text) for setjmp
    unity_fixture.o(.text) refers to malloc.o(i.malloc) for malloc
    unity_fixture.o(.text) refers to malloc.o(i.free) for free
    unity_fixture.o(.text) refers to unity_fixture.o(.bss) for UnityFixture
    unity_fixture.o(.text) refers to retarget.o(.data) for __stdout
    unity_fixture.o(.text) refers to unity.o(.bss) for Unity
    unity_fixture.o(.text) refers to unity_fixture.o(.data) for malloc_fail_countdown
    unity_fixture.o(.text) refers to unity_fixture.o(.constdata) for end
    unity_fixture.o(.text) refers to memseta.o(.text) for __aeabi_memclr
    unity_fixture.o(.text) refers to memmovea.o(.text) for __aeabi_memcpy
    aws_test_posix_clock.o(.text) refers to freertos_posix_clock.o(.text) for clock_gettime
    aws_test_posix_clock.o(.text) refers to unity.o(.text) for UnityAssertEqualNumber
    aws_test_posix_clock.o(.text) refers to freertos_posix_utils.o(.text) for UTILS_ValidateTimespec
    aws_test_posix_clock.o(.text) refers to unity_fixture.o(.text) for UnityTestRunner
    aws_test_posix_clock.o(.text) refers to ldiv.o(.text) for __aeabi_ldivmod
    aws_test_posix_clock.o(.text) refers to aws_test_posix_clock.o(.constdata) for .constdata
    aws_test_posix_clock.o(.text) refers to tasks.o(.data) for FreeRTOS_errno
    aws_test_posix_clock.o(.text) refers to aws_test_posix_clock.o(.conststring) for .conststring
    aws_test_posix_clock.o(.text) refers to aws_test_posix_clock.o(.data) for TEST_GROUP_Full_POSIX_CLOCK
    aws_test_posix_clock.o(.data) refers to aws_test_posix_clock.o(.conststring) for .conststring
    aws_test_posix_mqueue.o(.text) refers to setjmp.o(.text) for setjmp
    aws_test_posix_mqueue.o(.text) refers to freertos_posix_mqueue.o(.text) for mq_open
    aws_test_posix_mqueue.o(.text) refers to unity.o(.text) for UnityFail
    aws_test_posix_mqueue.o(.text) refers to unity_fixture.o(.text) for UnityTestRunner
    aws_test_posix_mqueue.o(.text) refers to memseta.o(.text) for __aeabi_memclr4
    aws_test_posix_mqueue.o(.text) refers to unity.o(.bss) for Unity
    aws_test_posix_mqueue.o(.text) refers to aws_test_posix_mqueue.o(.data) for xDefaultQueueAttr
    aws_test_posix_mqueue.o(.text) refers to tasks.o(.data) for FreeRTOS_errno
    aws_test_posix_mqueue.o(.text) refers to aws_test_posix_mqueue.o(.conststring) for .conststring
    aws_test_posix_mqueue.o(.text) refers to aws_test_posix_mqueue.o(.constdata) for .constdata
    aws_test_posix_mqueue.o(.data) refers to aws_test_posix_mqueue.o(.conststring) for .conststring
    aws_test_posix_pthread.o(.text) refers to freertos_posix_pthread.o(.text) for pthread_exit
    aws_test_posix_pthread.o(.text) refers to freertos_posix_pthread_mutex.o(.text) for pthread_mutex_unlock
    aws_test_posix_pthread.o(.text) refers to freertos_posix_pthread_barrier.o(.text) for pthread_barrier_wait
    aws_test_posix_pthread.o(.text) refers to freertos_posix_pthread_cond.o(.text) for pthread_cond_signal
    aws_test_posix_pthread.o(.text) refers to setjmp.o(.text) for setjmp
    aws_test_posix_pthread.o(.text) refers to unity.o(.text) for UnityAssertEqualNumber
    aws_test_posix_pthread.o(.text) refers to memseta.o(.text) for __aeabi_memclr4
    aws_test_posix_pthread.o(.text) refers to memmovea.o(.text) for __aeabi_memcpy4
    aws_test_posix_pthread.o(.text) refers to tasks.o(.text) for vTaskDelay
    aws_test_posix_pthread.o(.text) refers to unity_fixture.o(.text) for UnityTestRunner
    aws_test_posix_pthread.o(.text) refers to freertos_posix_clock.o(.text) for clock_gettime
    aws_test_posix_pthread.o(.text) refers to freertos_posix_utils.o(.text) for UTILS_TimespecAddNanoseconds
    aws_test_posix_pthread.o(.text) refers to unity.o(.bss) for Unity
    aws_test_posix_pthread.o(.text) refers to aws_test_posix_pthread.o(.constdata) for <Data3>
    aws_test_posix_pthread.o(.text) refers to aws_test_posix_pthread.o(.conststring) for .conststring
    aws_test_posix_pthread.o(.text) refers to aws_test_posix_pthread.o(.data) for TEST_GROUP_Full_POSIX_PTHREAD
    aws_test_posix_pthread.o(.data) refers to aws_test_posix_pthread.o(.conststring) for .conststring
    aws_test_posix_semaphore.o(.text) refers to memseta.o(.text) for __aeabi_memclr4
    aws_test_posix_semaphore.o(.text) refers to freertos_posix_semaphore.o(.text) for sem_init
    aws_test_posix_semaphore.o(.text) refers to unity.o(.text) for UnityAssertEqualNumber
    aws_test_posix_semaphore.o(.text) refers to setjmp.o(.text) for setjmp
    aws_test_posix_semaphore.o(.text) refers to unity_fixture.o(.text) for UnityTestRunner
    aws_test_posix_semaphore.o(.text) refers to tasks.o(.data) for FreeRTOS_errno
    aws_test_posix_semaphore.o(.text) refers to unity.o(.bss) for Unity
    aws_test_posix_semaphore.o(.text) refers to aws_test_posix_semaphore.o(.conststring) for .conststring
    aws_test_posix_semaphore.o(.text) refers to aws_test_posix_semaphore.o(.data) for TEST_GROUP_Full_POSIX_SEMAPHORE
    aws_test_posix_semaphore.o(.data) refers to aws_test_posix_semaphore.o(.conststring) for .conststring
    aws_test_posix_stress.o(.text) refers to freertos_posix_pthread_barrier.o(.text) for pthread_barrier_wait
    aws_test_posix_stress.o(.text) refers to tasks.o(.text) for pcTaskGetName
    aws_test_posix_stress.o(.text) refers to strcmp.o(.text) for strcmp
    aws_test_posix_stress.o(.text) refers to freertos_posix_clock.o(.text) for clock_gettime
    aws_test_posix_stress.o(.text) refers to freertos_posix_mqueue.o(.text) for mq_timedsend
    aws_test_posix_stress.o(.text) refers to freertos_posix_pthread_mutex.o(.text) for pthread_mutex_lock
    aws_test_posix_stress.o(.text) refers to freertos_posix_sched.o(.text) for sched_yield
    aws_test_posix_stress.o(.text) refers to memseta.o(.text) for __aeabi_memclr4
    aws_test_posix_stress.o(.text) refers to unity.o(.text) for UnityAssertEqualNumber
    aws_test_posix_stress.o(.text) refers to setjmp.o(.text) for setjmp
    aws_test_posix_stress.o(.text) refers to freertos_posix_pthread.o(.text) for pthread_create
    aws_test_posix_stress.o(.text) refers to unity_fixture.o(.text) for UnityTestRunner
    aws_test_posix_stress.o(.text) refers to memmovea.o(.text) for __aeabi_memcpy4
    aws_test_posix_stress.o(.text) refers to tasks.o(.data) for FreeRTOS_errno
    aws_test_posix_stress.o(.text) refers to unity.o(.bss) for Unity
    aws_test_posix_stress.o(.text) refers to aws_test_posix_stress.o(.conststring) for .conststring
    aws_test_posix_stress.o(.text) refers to aws_test_posix_stress.o(.data) for TEST_GROUP_Full_POSIX_STRESS
    aws_test_posix_stress.o(.text) refers to aws_test_posix_stress.o(.constdata) for <Data1>
    aws_test_posix_stress.o(.data) refers to aws_test_posix_stress.o(.conststring) for .conststring
    aws_test_posix_timer.o(.text) refers to freertos_posix_clock.o(.text) for clock_gettime
    aws_test_posix_timer.o(.text) refers to freertos_posix_pthread.o(.text) for pthread_self
    aws_test_posix_timer.o(.text) refers to freertos_posix_semaphore.o(.text) for sem_post
    aws_test_posix_timer.o(.text) refers to unity.o(.text) for UnityAssertEqualNumber
    aws_test_posix_timer.o(.text) refers to memseta.o(.text) for __aeabi_memclr4
    aws_test_posix_timer.o(.text) refers to memmovea.o(.text) for __aeabi_memcpy4
    aws_test_posix_timer.o(.text) refers to setjmp.o(.text) for setjmp
    aws_test_posix_timer.o(.text) refers to freertos_posix_timer.o(.text) for timer_create
    aws_test_posix_timer.o(.text) refers to unity_fixture.o(.text) for UnityTestRunner
    aws_test_posix_timer.o(.text) refers to freertos_posix_utils.o(.text) for UTILS_TimespecSubtract
    aws_test_posix_timer.o(.text) refers to aws_test_posix_timer.o(.bss) for xSemaphore
    aws_test_posix_timer.o(.text) refers to aws_test_posix_timer.o(.data) for xDefaultSigevent
    aws_test_posix_timer.o(.text) refers to aws_test_posix_timer.o(.constdata) for .constdata
    aws_test_posix_timer.o(.text) refers to unity.o(.bss) for Unity
    aws_test_posix_timer.o(.text) refers to aws_test_posix_timer.o(.conststring) for .conststring
    aws_test_posix_timer.o(.text) refers to tasks.o(.data) for FreeRTOS_errno
    aws_test_posix_timer.o(.data) refers to aws_test_posix_timer.o(.text) for prvTimerCallback
    aws_test_posix_timer.o(.data) refers to aws_test_posix_timer.o(.conststring) for .conststring
    aws_test_posix_unistd.o(.text) refers to freertos_posix_unistd.o(.text) for usleep
    aws_test_posix_unistd.o(.text) refers to unity.o(.text) for UnityAssertEqualNumber
    aws_test_posix_unistd.o(.text) refers to unity_fixture.o(.text) for UnityTestRunner
    aws_test_posix_unistd.o(.text) refers to aws_test_posix_unistd.o(.conststring) for .conststring
    aws_test_posix_unistd.o(.text) refers to aws_test_posix_unistd.o(.data) for TEST_GROUP_Full_POSIX_UNISTD
    aws_test_posix_unistd.o(.data) refers to aws_test_posix_unistd.o(.conststring) for .conststring
    aws_test_posix_utils.o(.text) refers to freertos_posix_utils.o(.text) for UTILS_AbsoluteTimespecToDeltaTicks
    aws_test_posix_utils.o(.text) refers to unity.o(.text) for UnityAssertEqualNumber
    aws_test_posix_utils.o(.text) refers to unity_fixture.o(.text) for UnityTestRunner
    aws_test_posix_utils.o(.text) refers to strlen.o(.text) for strlen
    aws_test_posix_utils.o(.text) refers to aws_test_posix_utils.o(.conststring) for .conststring
    aws_test_posix_utils.o(.text) refers to aws_test_posix_utils.o(.data) for TEST_GROUP_Full_POSIX_UTILS
    aws_test_posix_utils.o(.text) refers to aws_test_posix_utils.o(.constdata) for pcString
    aws_test_posix_utils.o(.constdata) refers to aws_test_posix_utils.o(.conststring) for .conststring
    aws_test_posix_utils.o(.data) refers to aws_test_posix_utils.o(.conststring) for .conststring
    freertos_posix_clock.o(.text) refers to tasks.o(.text) for vTaskSetTimeOutState
    freertos_posix_clock.o(.text) refers to freertos_posix_utils.o(.text) for UTILS_NanosecondsToTimespec
    freertos_posix_clock.o(.text) refers to tasks.o(.data) for FreeRTOS_errno
    freertos_posix_mqueue.o(.text) refers to freertos_posix_utils.o(.text) for UTILS_ValidateTimespec
    freertos_posix_mqueue.o(.text) refers to freertos_posix_clock.o(.text) for clock_gettime
    freertos_posix_mqueue.o(.text) refers to heap_4.o(.text) for pvPortMalloc
    freertos_posix_mqueue.o(.text) refers to queue.o(.text) for xQueueGenericCreate
    freertos_posix_mqueue.o(.text) refers to strncpy.o(.text) for strncpy
    freertos_posix_mqueue.o(.text) refers to strcmp.o(.text) for strcmp
    freertos_posix_mqueue.o(.text) refers to port.o(.text) for vPortEnterCritical
    freertos_posix_mqueue.o(.text) refers to memmovea.o(.text) for __aeabi_memcpy
    freertos_posix_mqueue.o(.text) refers to freertos_posix_mqueue.o(.data) for xQueueListHead
    freertos_posix_mqueue.o(.text) refers to freertos_posix_mqueue.o(.bss) for xQueueListMutex
    freertos_posix_mqueue.o(.text) refers to tasks.o(.data) for FreeRTOS_errno
    freertos_posix_mqueue.o(.text) refers to freertos_posix_mqueue.o(.constdata) for .constdata
    freertos_posix_pthread.o(.text) refers to tasks.o(.text) for xTaskGetApplicationTaskTag
    freertos_posix_pthread.o(.text) refers to queue.o(.text) for xQueueGenericSend
    freertos_posix_pthread.o(.text) refers to heap_4.o(.text) for vPortFree
    freertos_posix_pthread.o(.text) refers to freertos_posix_sched.o(.text) for sched_get_priority_max
    freertos_posix_pthread.o(.text) refers to freertos_posix_pthread.o(.constdata) for xDefaultThreadAttributes
    freertos_posix_pthread_barrier.o(.text) refers to event_groups.o(.text) for vEventGroupDelete
    freertos_posix_pthread_barrier.o(.text) refers to queue.o(.text) for vQueueDelete
    freertos_posix_pthread_cond.o(.text) refers to port.o(.text) for vPortEnterCritical
    freertos_posix_pthread_cond.o(.text) refers to queue.o(.text) for xQueueCreateCountingSemaphoreStatic
    freertos_posix_pthread_cond.o(.text) refers to freertos_posix_clock.o(.text) for clock_gettime
    freertos_posix_pthread_cond.o(.text) refers to freertos_posix_utils.o(.text) for UTILS_AbsoluteTimespecToDeltaTicks
    freertos_posix_pthread_cond.o(.text) refers to freertos_posix_pthread_mutex.o(.text) for pthread_mutex_unlock
    freertos_posix_pthread_mutex.o(.text) refers to port.o(.text) for vPortEnterCritical
    freertos_posix_pthread_mutex.o(.text) refers to queue.o(.text) for xQueueCreateMutexStatic
    freertos_posix_pthread_mutex.o(.text) refers to memseta.o(.text) for __aeabi_memclr4
    freertos_posix_pthread_mutex.o(.text) refers to memmovea.o(.text) for __aeabi_memcpy4
    freertos_posix_pthread_mutex.o(.text) refers to heap_4.o(.text) for vPortFree
    freertos_posix_pthread_mutex.o(.text) refers to setjmp.o(.text) for longjmp
    freertos_posix_pthread_mutex.o(.text) refers to freertos_posix_clock.o(.text) for clock_gettime
    freertos_posix_pthread_mutex.o(.text) refers to freertos_posix_utils.o(.text) for UTILS_AbsoluteTimespecToDeltaTicks
    freertos_posix_pthread_mutex.o(.text) refers to tasks.o(.text) for xTaskGetCurrentTaskHandle
    freertos_posix_pthread_mutex.o(.text) refers to freertos_posix_pthread_mutex.o(.constdata) for <Data1>
    freertos_posix_pthread_mutex.o(.text) refers to unity.o(.bss) for Unity
    freertos_posix_semaphore.o(.text) refers to queue.o(.text) for vQueueDelete
    freertos_posix_semaphore.o(.text) refers to freertos_posix_utils.o(.text) for UTILS_ValidateTimespec
    freertos_posix_semaphore.o(.text) refers to freertos_posix_clock.o(.text) for clock_gettime
    freertos_posix_semaphore.o(.text) refers to tasks.o(.data) for FreeRTOS_errno
    freertos_posix_timer.o(.text) refers to timers.o(.text) for pvTimerGetTimerID
    freertos_posix_timer.o(.text) refers to setjmp.o(.text) for longjmp
    freertos_posix_timer.o(.text) refers to freertos_posix_pthread.o(.text) for pthread_create
    freertos_posix_timer.o(.text) refers to heap_4.o(.text) for pvPortMalloc
    freertos_posix_timer.o(.text) refers to memmovea.o(.text) for __aeabi_memcpy4
    freertos_posix_timer.o(.text) refers to tasks.o(.text) for vTaskDelay
    freertos_posix_timer.o(.text) refers to freertos_posix_utils.o(.text) for UTILS_ValidateTimespec
    freertos_posix_timer.o(.text) refers to freertos_posix_clock.o(.text) for clock_gettime
    freertos_posix_timer.o(.text) refers to unity.o(.bss) for Unity
    freertos_posix_timer.o(.text) refers to tasks.o(.data) for FreeRTOS_errno
    freertos_posix_unistd.o(.text) refers to tasks.o(.text) for vTaskDelay
    freertos_posix_utils.o(.text) refers to ldiv.o(.text) for __aeabi_ldivmod
    iot_metrics.o(.text) refers to setjmp.o(.text) for longjmp
    iot_metrics.o(.text) refers to unity.o(.text) for UnityFail
    iot_metrics.o(.text) refers to iot_threads_afr.o(.text) for IotMutex_Create
    iot_metrics.o(.text) refers to heap_4.o(.text) for pvPortMalloc
    iot_metrics.o(.text) refers to memmovea.o(.text) for __aeabi_memcpy4
    iot_metrics.o(.text) refers to printfa.o(i.__0sprintf) for __2sprintf
    iot_metrics.o(.text) refers to unity.o(.bss) for Unity
    iot_metrics.o(.text) refers to iot_metrics.o(.bss) for _mutex
    iot_metrics.o(.text) refers to iot_metrics.o(.data) for _connectionsList
    aws_dev_mode_key_provisioning.o(.text) refers to strstr.o(.text) for strstr
    aws_dev_mode_key_provisioning.o(.text) refers to base64.o(.text) for mbedtls_base64_decode
    aws_dev_mode_key_provisioning.o(.text) refers to aws_pkcs11_mbedtls.o(.text) for C_GetFunctionList
    aws_dev_mode_key_provisioning.o(.text) refers to heap_4.o(.text) for pvPortMalloc
    aws_dev_mode_key_provisioning.o(.text) refers to aws_logging_task_dynamic_buffers.o(.text) for vLoggingPrintf
    aws_dev_mode_key_provisioning.o(.text) refers to aws_dev_mode_key_provisioning.o(.constdata) for clientcredentialCLIENT_PRIVATE_KEY_PEM
    entry.o(.ARM.Collect$$$$00000000) refers (Special) to entry10a.o(.ARM.Collect$$$$0000000D) for __rt_final_cpp
    entry.o(.ARM.Collect$$$$00000000) refers (Special) to entry11a.o(.ARM.Collect$$$$0000000F) for __rt_final_exit
    entry.o(.ARM.Collect$$$$00000000) refers (Special) to entry7b.o(.ARM.Collect$$$$00000008) for _main_clock
    entry.o(.ARM.Collect$$$$00000000) refers (Special) to entry8b.o(.ARM.Collect$$$$0000000A) for _main_cpp_init
    entry.o(.ARM.Collect$$$$00000000) refers (Special) to entry9a.o(.ARM.Collect$$$$0000000B) for _main_init
    entry.o(.ARM.Collect$$$$00000000) refers (Special) to entry5.o(.ARM.Collect$$$$00000004) for _main_scatterload
    entry.o(.ARM.Collect$$$$00000000) refers (Special) to entry2.o(.ARM.Collect$$$$00000001) for _main_stk
    putc.o(i.putc) refers to retarget.o(.text) for fputc
    uldiv.o(.text) refers to llushr.o(.text) for __aeabi_llsr
    uldiv.o(.text) refers to llshl.o(.text) for __aeabi_llsl
    ldiv.o(.text) refers to uldiv.o(.text) for __aeabi_uldivmod
    rand.o(.text) refers to rand.o(.data) for .data
    strtok.o(.text) refers to strtok.o(.data) for .data
    strtok_r.o(.text) refers to strtok_r.o(.data) for .data
    printfb.o(i.__0fprintf$bare) refers to printfb.o(i._printf_core) for _printf_core
    printfb.o(i.__0fprintf$bare) refers to retarget.o(.text) for fputc
    printfb.o(i.__0printf$bare) refers to printfb.o(i._printf_core) for _printf_core
    printfb.o(i.__0printf$bare) refers to retarget.o(.text) for fputc
    printfb.o(i.__0printf$bare) refers to retarget.o(.data) for __stdout
    printfb.o(i.__0snprintf$bare) refers to printfb.o(i._printf_core) for _printf_core
    printfb.o(i.__0snprintf$bare) refers to printfb.o(i._snputc) for _snputc
    printfb.o(i.__0sprintf$bare) refers to printfb.o(i._printf_core) for _printf_core
    printfb.o(i.__0sprintf$bare) refers to printfb.o(i._sputc) for _sputc
    printfb.o(i.__0vfprintf$bare) refers to printfb.o(i._printf_core) for _printf_core
    printfb.o(i.__0vfprintf$bare) refers to retarget.o(.text) for fputc
    printfb.o(i.__0vprintf$bare) refers to printfb.o(i._printf_core) for _printf_core
    printfb.o(i.__0vprintf$bare) refers to retarget.o(.text) for fputc
    printfb.o(i.__0vprintf$bare) refers to retarget.o(.data) for __stdout
    printfb.o(i.__0vsnprintf$bare) refers to printfb.o(i._printf_core) for _printf_core
    printfb.o(i.__0vsnprintf$bare) refers to printfb.o(i._snputc) for _snputc
    printfb.o(i.__0vsprintf$bare) refers to printfb.o(i._printf_core) for _printf_core
    printfb.o(i.__0vsprintf$bare) refers to printfb.o(i._sputc) for _sputc
    printf0.o(i.__0fprintf$0) refers to printf0.o(i._printf_core) for _printf_core
    printf0.o(i.__0fprintf$0) refers to retarget.o(.text) for fputc
    printf0.o(i.__0printf$0) refers to printf0.o(i._printf_core) for _printf_core
    printf0.o(i.__0printf$0) refers to retarget.o(.text) for fputc
    printf0.o(i.__0printf$0) refers to retarget.o(.data) for __stdout
    printf0.o(i.__0snprintf$0) refers to printf0.o(i._printf_core) for _printf_core
    printf0.o(i.__0snprintf$0) refers to printf0.o(i._snputc) for _snputc
    printf0.o(i.__0sprintf$0) refers to printf0.o(i._printf_core) for _printf_core
    printf0.o(i.__0sprintf$0) refers to printf0.o(i._sputc) for _sputc
    printf0.o(i.__0vfprintf$0) refers to printf0.o(i._printf_core) for _printf_core
    printf0.o(i.__0vfprintf$0) refers to retarget.o(.text) for fputc
    printf0.o(i.__0vprintf$0) refers to printf0.o(i._printf_core) for _printf_core
    printf0.o(i.__0vprintf$0) refers to retarget.o(.text) for fputc
    printf0.o(i.__0vprintf$0) refers to retarget.o(.data) for __stdout
    printf0.o(i.__0vsnprintf$0) refers to printf0.o(i._printf_core) for _printf_core
    printf0.o(i.__0vsnprintf$0) refers to printf0.o(i._snputc) for _snputc
    printf0.o(i.__0vsprintf$0) refers to printf0.o(i._printf_core) for _printf_core
    printf0.o(i.__0vsprintf$0) refers to printf0.o(i._sputc) for _sputc
    printf1.o(i.__0fprintf$1) refers to printf1.o(i._printf_core) for _printf_core
    printf1.o(i.__0fprintf$1) refers to retarget.o(.text) for fputc
    printf1.o(i.__0printf$1) refers to printf1.o(i._printf_core) for _printf_core
    printf1.o(i.__0printf$1) refers to retarget.o(.text) for fputc
    printf1.o(i.__0printf$1) refers to retarget.o(.data) for __stdout
    printf1.o(i.__0snprintf$1) refers to printf1.o(i._printf_core) for _printf_core
    printf1.o(i.__0snprintf$1) refers to printf1.o(i._snputc) for _snputc
    printf1.o(i.__0sprintf$1) refers to printf1.o(i._printf_core) for _printf_core
    printf1.o(i.__0sprintf$1) refers to printf1.o(i._sputc) for _sputc
    printf1.o(i.__0vfprintf$1) refers to printf1.o(i._printf_core) for _printf_core
    printf1.o(i.__0vfprintf$1) refers to retarget.o(.text) for fputc
    printf1.o(i.__0vprintf$1) refers to printf1.o(i._printf_core) for _printf_core
    printf1.o(i.__0vprintf$1) refers to retarget.o(.text) for fputc
    printf1.o(i.__0vprintf$1) refers to retarget.o(.data) for __stdout
    printf1.o(i.__0vsnprintf$1) refers to printf1.o(i._printf_core) for _printf_core
    printf1.o(i.__0vsnprintf$1) refers to printf1.o(i._snputc) for _snputc
    printf1.o(i.__0vsprintf$1) refers to printf1.o(i._printf_core) for _printf_core
    printf1.o(i.__0vsprintf$1) refers to printf1.o(i._sputc) for _sputc
    printf1.o(i._printf_core) refers to uidiv.o(.text) for __aeabi_uidivmod
    printf2.o(i.__0fprintf$2) refers to printf2.o(i._printf_core) for _printf_core
    printf2.o(i.__0fprintf$2) refers to retarget.o(.text) for fputc
    printf2.o(i.__0printf$2) refers to printf2.o(i._printf_core) for _printf_core
    printf2.o(i.__0printf$2) refers to retarget.o(.text) for fputc
    printf2.o(i.__0printf$2) refers to retarget.o(.data) for __stdout
    printf2.o(i.__0snprintf$2) refers to printf2.o(i._printf_core) for _printf_core
    printf2.o(i.__0snprintf$2) refers to printf2.o(i._snputc) for _snputc
    printf2.o(i.__0sprintf$2) refers to printf2.o(i._printf_core) for _printf_core
    printf2.o(i.__0sprintf$2) refers to printf2.o(i._sputc) for _sputc
    printf2.o(i.__0vfprintf$2) refers to printf2.o(i._printf_core) for _printf_core
    printf2.o(i.__0vfprintf$2) refers to retarget.o(.text) for fputc
    printf2.o(i.__0vprintf$2) refers to printf2.o(i._printf_core) for _printf_core
    printf2.o(i.__0vprintf$2) refers to retarget.o(.text) for fputc
    printf2.o(i.__0vprintf$2) refers to retarget.o(.data) for __stdout
    printf2.o(i.__0vsnprintf$2) refers to printf2.o(i._printf_core) for _printf_core
    printf2.o(i.__0vsnprintf$2) refers to printf2.o(i._snputc) for _snputc
    printf2.o(i.__0vsprintf$2) refers to printf2.o(i._printf_core) for _printf_core
    printf2.o(i.__0vsprintf$2) refers to printf2.o(i._sputc) for _sputc
    printf3.o(i.__0fprintf$3) refers to printf3.o(i._printf_core) for _printf_core
    printf3.o(i.__0fprintf$3) refers to retarget.o(.text) for fputc
    printf3.o(i.__0printf$3) refers to printf3.o(i._printf_core) for _printf_core
    printf3.o(i.__0printf$3) refers to retarget.o(.text) for fputc
    printf3.o(i.__0printf$3) refers to retarget.o(.data) for __stdout
    printf3.o(i.__0snprintf$3) refers to printf3.o(i._printf_core) for _printf_core
    printf3.o(i.__0snprintf$3) refers to printf3.o(i._snputc) for _snputc
    printf3.o(i.__0sprintf$3) refers to printf3.o(i._printf_core) for _printf_core
    printf3.o(i.__0sprintf$3) refers to printf3.o(i._sputc) for _sputc
    printf3.o(i.__0vfprintf$3) refers to printf3.o(i._printf_core) for _printf_core
    printf3.o(i.__0vfprintf$3) refers to retarget.o(.text) for fputc
    printf3.o(i.__0vprintf$3) refers to printf3.o(i._printf_core) for _printf_core
    printf3.o(i.__0vprintf$3) refers to retarget.o(.text) for fputc
    printf3.o(i.__0vprintf$3) refers to retarget.o(.data) for __stdout
    printf3.o(i.__0vsnprintf$3) refers to printf3.o(i._printf_core) for _printf_core
    printf3.o(i.__0vsnprintf$3) refers to printf3.o(i._snputc) for _snputc
    printf3.o(i.__0vsprintf$3) refers to printf3.o(i._printf_core) for _printf_core
    printf3.o(i.__0vsprintf$3) refers to printf3.o(i._sputc) for _sputc
    printf3.o(i._printf_core) refers to uidiv.o(.text) for __aeabi_uidivmod
    printf4.o(i.__0fprintf$4) refers to printf4.o(i._printf_core) for _printf_core
    printf4.o(i.__0fprintf$4) refers to retarget.o(.text) for fputc
    printf4.o(i.__0printf$4) refers to printf4.o(i._printf_core) for _printf_core
    printf4.o(i.__0printf$4) refers to retarget.o(.text) for fputc
    printf4.o(i.__0printf$4) refers to retarget.o(.data) for __stdout
    printf4.o(i.__0snprintf$4) refers to printf4.o(i._printf_core) for _printf_core
    printf4.o(i.__0snprintf$4) refers to printf4.o(i._snputc) for _snputc
    printf4.o(i.__0sprintf$4) refers to printf4.o(i._printf_core) for _printf_core
    printf4.o(i.__0sprintf$4) refers to printf4.o(i._sputc) for _sputc
    printf4.o(i.__0vfprintf$4) refers to printf4.o(i._printf_core) for _printf_core
    printf4.o(i.__0vfprintf$4) refers to retarget.o(.text) for fputc
    printf4.o(i.__0vprintf$4) refers to printf4.o(i._printf_core) for _printf_core
    printf4.o(i.__0vprintf$4) refers to retarget.o(.text) for fputc
    printf4.o(i.__0vprintf$4) refers to retarget.o(.data) for __stdout
    printf4.o(i.__0vsnprintf$4) refers to printf4.o(i._printf_core) for _printf_core
    printf4.o(i.__0vsnprintf$4) refers to printf4.o(i._snputc) for _snputc
    printf4.o(i.__0vsprintf$4) refers to printf4.o(i._printf_core) for _printf_core
    printf4.o(i.__0vsprintf$4) refers to printf4.o(i._sputc) for _sputc
    printf4.o(i._printf_core) refers to uldiv.o(.text) for __aeabi_uldivmod
    printf5.o(i.__0fprintf$5) refers to printf5.o(i._printf_core) for _printf_core
    printf5.o(i.__0fprintf$5) refers to retarget.o(.text) for fputc
    printf5.o(i.__0printf$5) refers to printf5.o(i._printf_core) for _printf_core
    printf5.o(i.__0printf$5) refers to retarget.o(.text) for fputc
    printf5.o(i.__0printf$5) refers to retarget.o(.data) for __stdout
    printf5.o(i.__0snprintf$5) refers to printf5.o(i._printf_core) for _printf_core
    printf5.o(i.__0snprintf$5) refers to printf5.o(i._snputc) for _snputc
    printf5.o(i.__0sprintf$5) refers to printf5.o(i._printf_core) for _printf_core
    printf5.o(i.__0sprintf$5) refers to printf5.o(i._sputc) for _sputc
    printf5.o(i.__0vfprintf$5) refers to printf5.o(i._printf_core) for _printf_core
    printf5.o(i.__0vfprintf$5) refers to retarget.o(.text) for fputc
    printf5.o(i.__0vprintf$5) refers to printf5.o(i._printf_core) for _printf_core
    printf5.o(i.__0vprintf$5) refers to retarget.o(.text) for fputc
    printf5.o(i.__0vprintf$5) refers to retarget.o(.data) for __stdout
    printf5.o(i.__0vsnprintf$5) refers to printf5.o(i._printf_core) for _printf_core
    printf5.o(i.__0vsnprintf$5) refers to printf5.o(i._snputc) for _snputc
    printf5.o(i.__0vsprintf$5) refers to printf5.o(i._printf_core) for _printf_core
    printf5.o(i.__0vsprintf$5) refers to printf5.o(i._sputc) for _sputc
    printf5.o(i._printf_core) refers to uldiv.o(.text) for __aeabi_uldivmod
    printf6.o(i.__0fprintf$6) refers to printf6.o(i._printf_core) for _printf_core
    printf6.o(i.__0fprintf$6) refers to retarget.o(.text) for fputc
    printf6.o(i.__0printf$6) refers to printf6.o(i._printf_core) for _printf_core
    printf6.o(i.__0printf$6) refers to retarget.o(.text) for fputc
    printf6.o(i.__0printf$6) refers to retarget.o(.data) for __stdout
    printf6.o(i.__0snprintf$6) refers to printf6.o(i._printf_core) for _printf_core
    printf6.o(i.__0snprintf$6) refers to printf6.o(i._snputc) for _snputc
    printf6.o(i.__0sprintf$6) refers to printf6.o(i._printf_core) for _printf_core
    printf6.o(i.__0sprintf$6) refers to printf6.o(i._sputc) for _sputc
    printf6.o(i.__0vfprintf$6) refers to printf6.o(i._printf_core) for _printf_core
    printf6.o(i.__0vfprintf$6) refers to retarget.o(.text) for fputc
    printf6.o(i.__0vprintf$6) refers to printf6.o(i._printf_core) for _printf_core
    printf6.o(i.__0vprintf$6) refers to retarget.o(.text) for fputc
    printf6.o(i.__0vprintf$6) refers to retarget.o(.data) for __stdout
    printf6.o(i.__0vsnprintf$6) refers to printf6.o(i._printf_core) for _printf_core
    printf6.o(i.__0vsnprintf$6) refers to printf6.o(i._snputc) for _snputc
    printf6.o(i.__0vsprintf$6) refers to printf6.o(i._printf_core) for _printf_core
    printf6.o(i.__0vsprintf$6) refers to printf6.o(i._sputc) for _sputc
    printf6.o(i._printf_core) refers to printf6.o(i._printf_pre_padding) for _printf_pre_padding
    printf6.o(i._printf_core) refers to uidiv.o(.text) for __aeabi_uidivmod
    printf6.o(i._printf_core) refers to printf6.o(i._printf_post_padding) for _printf_post_padding
    printf7.o(i.__0fprintf$7) refers to printf7.o(i._printf_core) for _printf_core
    printf7.o(i.__0fprintf$7) refers to retarget.o(.text) for fputc
    printf7.o(i.__0printf$7) refers to printf7.o(i._printf_core) for _printf_core
    printf7.o(i.__0printf$7) refers to retarget.o(.text) for fputc
    printf7.o(i.__0printf$7) refers to retarget.o(.data) for __stdout
    printf7.o(i.__0snprintf$7) refers to printf7.o(i._printf_core) for _printf_core
    printf7.o(i.__0snprintf$7) refers to printf7.o(i._snputc) for _snputc
    printf7.o(i.__0sprintf$7) refers to printf7.o(i._printf_core) for _printf_core
    printf7.o(i.__0sprintf$7) refers to printf7.o(i._sputc) for _sputc
    printf7.o(i.__0vfprintf$7) refers to printf7.o(i._printf_core) for _printf_core
    printf7.o(i.__0vfprintf$7) refers to retarget.o(.text) for fputc
    printf7.o(i.__0vprintf$7) refers to printf7.o(i._printf_core) for _printf_core
    printf7.o(i.__0vprintf$7) refers to retarget.o(.text) for fputc
    printf7.o(i.__0vprintf$7) refers to retarget.o(.data) for __stdout
    printf7.o(i.__0vsnprintf$7) refers to printf7.o(i._printf_core) for _printf_core
    printf7.o(i.__0vsnprintf$7) refers to printf7.o(i._snputc) for _snputc
    printf7.o(i.__0vsprintf$7) refers to printf7.o(i._printf_core) for _printf_core
    printf7.o(i.__0vsprintf$7) refers to printf7.o(i._sputc) for _sputc
    printf7.o(i._printf_core) refers to printf7.o(i._printf_pre_padding) for _printf_pre_padding
    printf7.o(i._printf_core) refers to uldiv.o(.text) for __aeabi_uldivmod
    printf7.o(i._printf_core) refers to printf7.o(i._printf_post_padding) for _printf_post_padding
    printf8.o(i.__0fprintf$8) refers to printf8.o(i._printf_core) for _printf_core
    printf8.o(i.__0fprintf$8) refers to retarget.o(.text) for fputc
    printf8.o(i.__0printf$8) refers to printf8.o(i._printf_core) for _printf_core
    printf8.o(i.__0printf$8) refers to retarget.o(.text) for fputc
    printf8.o(i.__0printf$8) refers to retarget.o(.data) for __stdout
    printf8.o(i.__0snprintf$8) refers to printf8.o(i._printf_core) for _printf_core
    printf8.o(i.__0snprintf$8) refers to printf8.o(i._snputc) for _snputc
    printf8.o(i.__0sprintf$8) refers to printf8.o(i._printf_core) for _printf_core
    printf8.o(i.__0sprintf$8) refers to printf8.o(i._sputc) for _sputc
    printf8.o(i.__0vfprintf$8) refers to printf8.o(i._printf_core) for _printf_core
    printf8.o(i.__0vfprintf$8) refers to retarget.o(.text) for fputc
    printf8.o(i.__0vprintf$8) refers to printf8.o(i._printf_core) for _printf_core
    printf8.o(i.__0vprintf$8) refers to retarget.o(.text) for fputc
    printf8.o(i.__0vprintf$8) refers to retarget.o(.data) for __stdout
    printf8.o(i.__0vsnprintf$8) refers to printf8.o(i._printf_core) for _printf_core
    printf8.o(i.__0vsnprintf$8) refers to printf8.o(i._snputc) for _snputc
    printf8.o(i.__0vsprintf$8) refers to printf8.o(i._printf_core) for _printf_core
    printf8.o(i.__0vsprintf$8) refers to printf8.o(i._sputc) for _sputc
    printf8.o(i._printf_core) refers to printf8.o(i._printf_pre_padding) for _printf_pre_padding
    printf8.o(i._printf_core) refers to uldiv.o(.text) for __aeabi_uldivmod
    printf8.o(i._printf_core) refers to printf8.o(i._printf_post_padding) for _printf_post_padding
    printfa.o(i.__0fprintf) refers (Special) to iusefp.o(.text) for __I$use$fp
    printfa.o(i.__0fprintf) refers to printfa.o(i._printf_core) for _printf_core
    printfa.o(i.__0fprintf) refers to retarget.o(.text) for fputc
    printfa.o(i.__0printf) refers (Special) to iusefp.o(.text) for __I$use$fp
    printfa.o(i.__0printf) refers to printfa.o(i._printf_core) for _printf_core
    printfa.o(i.__0printf) refers to retarget.o(.text) for fputc
    printfa.o(i.__0printf) refers to retarget.o(.data) for __stdout
    printfa.o(i.__0snprintf) refers (Special) to iusefp.o(.text) for __I$use$fp
    printfa.o(i.__0snprintf) refers to printfa.o(i._printf_core) for _printf_core
    printfa.o(i.__0snprintf) refers to printfa.o(i._snputc) for _snputc
    printfa.o(i.__0sprintf) refers (Special) to iusefp.o(.text) for __I$use$fp
    printfa.o(i.__0sprintf) refers to printfa.o(i._printf_core) for _printf_core
    printfa.o(i.__0sprintf) refers to printfa.o(i._sputc) for _sputc
    printfa.o(i.__0vfprintf) refers (Special) to iusefp.o(.text) for __I$use$fp
    printfa.o(i.__0vfprintf) refers to printfa.o(i._printf_core) for _printf_core
    printfa.o(i.__0vfprintf) refers to retarget.o(.text) for fputc
    printfa.o(i.__0vprintf) refers (Special) to iusefp.o(.text) for __I$use$fp
    printfa.o(i.__0vprintf) refers to printfa.o(i._printf_core) for _printf_core
    printfa.o(i.__0vprintf) refers to retarget.o(.text) for fputc
    printfa.o(i.__0vprintf) refers to retarget.o(.data) for __stdout
    printfa.o(i.__0vsnprintf) refers (Special) to iusefp.o(.text) for __I$use$fp
    printfa.o(i.__0vsnprintf) refers to printfa.o(i._printf_core) for _printf_core
    printfa.o(i.__0vsnprintf) refers to printfa.o(i._snputc) for _snputc
    printfa.o(i.__0vsprintf) refers (Special) to iusefp.o(.text) for __I$use$fp
    printfa.o(i.__0vsprintf) refers to printfa.o(i._printf_core) for _printf_core
    printfa.o(i.__0vsprintf) refers to printfa.o(i._sputc) for _sputc
    printfa.o(i._fp_digits) refers (Special) to iusefp.o(.text) for __I$use$fp
    printfa.o(i._fp_digits) refers to dmul.o(.text) for __aeabi_dmul
    printfa.o(i._fp_digits) refers to ddiv.o(.text) for __aeabi_ddiv
    printfa.o(i._fp_digits) refers to cdrcmple.o(.text) for __aeabi_cdrcmple
    printfa.o(i._fp_digits) refers to dadd.o(.text) for __aeabi_dadd
    printfa.o(i._fp_digits) refers to dfixul.o(.text) for __aeabi_d2ulz
    printfa.o(i._fp_digits) refers to uldiv.o(.text) for __aeabi_uldivmod
    printfa.o(i._printf_core) refers (Special) to iusefp.o(.text) for __I$use$fp
    printfa.o(i._printf_core) refers to printfa.o(i._printf_pre_padding) for _printf_pre_padding
    printfa.o(i._printf_core) refers to uldiv.o(.text) for __aeabi_uldivmod
    printfa.o(i._printf_core) refers to printfa.o(i._printf_post_padding) for _printf_post_padding
    printfa.o(i._printf_core) refers to printfa.o(i._fp_digits) for _fp_digits
    printfa.o(i._printf_core) refers to uidiv.o(.text) for __aeabi_uidivmod
    printfa.o(i._printf_post_padding) refers (Special) to iusefp.o(.text) for __I$use$fp
    printfa.o(i._printf_pre_padding) refers (Special) to iusefp.o(.text) for __I$use$fp
    printfa.o(i._snputc) refers (Special) to iusefp.o(.text) for __I$use$fp
    printfa.o(i._sputc) refers (Special) to iusefp.o(.text) for __I$use$fp
    malloc.o(i.free) refers to mvars.o(.data) for __microlib_freelist
    malloc.o(i.malloc) refers to mvars.o(.data) for __microlib_freelist_initialised
    malloc.o(i.malloc) refers to mvars.o(.data) for __microlib_freelist
    malloc.o(i.malloc) refers to startup_m480.o(HEAP) for __heap_base
    mallocr.o(i.__free$realloc) refers to mvars.o(.data) for __microlib_freelist
    mallocr.o(i.__malloc$realloc) refers to mallocr.o(i.internal_alloc) for internal_alloc
    mallocr.o(i.__malloc$realloc) refers to mvars.o(.data) for __microlib_freelist_initialised
    mallocr.o(i.__malloc$realloc) refers to startup_m480.o(HEAP) for __heap_base
    mallocr.o(i.__malloc$realloc) refers to mvars.o(.data) for __microlib_freelist
    mallocr.o(i.internal_alloc) refers to memmovea.o(.text) for __aeabi_memcpy
    mallocr.o(i.internal_alloc) refers to mvars.o(.data) for __microlib_freelist
    mallocr.o(i.realloc) refers to mallocr.o(i.__free$realloc) for __free$realloc
    mallocr.o(i.realloc) refers to mallocr.o(i.internal_alloc) for internal_alloc
    mallocr.o(i.realloc) refers to mallocr.o(i.__malloc$realloc) for __malloc$realloc
    mallocr.o(i.realloc) refers to mvars.o(.data) for __microlib_freelist
    malloca.o(i.__aligned_malloc) refers to mvars.o(.data) for __microlib_freelist_initialised
    malloca.o(i.__aligned_malloc) refers to mvars.o(.data) for __microlib_freelist
    malloca.o(i.__aligned_malloc) refers to startup_m480.o(HEAP) for __heap_base
    malloca.o(i.__free$memalign) refers to mvars.o(.data) for __microlib_freelist
    malloca.o(i.__malloc$memalign) refers to malloca.o(i.__aligned_malloc) for __aligned_malloc
    mallocra.o(i.__aligned_malloc$realloc) refers to mallocra.o(i.internal_alloc) for internal_alloc
    mallocra.o(i.__aligned_malloc$realloc) refers to mvars.o(.data) for __microlib_freelist_initialised
    mallocra.o(i.__aligned_malloc$realloc) refers to startup_m480.o(HEAP) for __heap_base
    mallocra.o(i.__aligned_malloc$realloc) refers to mvars.o(.data) for __microlib_freelist
    mallocra.o(i.__free$realloc$memalign) refers to mvars.o(.data) for __microlib_freelist
    mallocra.o(i.__malloc$realloc$memalign) refers to mallocra.o(i.__aligned_malloc$realloc) for __aligned_malloc$realloc
    mallocra.o(i.__realloc$memalign) refers to mallocra.o(i.__free$realloc$memalign) for __free$realloc$memalign
    mallocra.o(i.__realloc$memalign) refers to mallocra.o(i.internal_alloc) for internal_alloc
    mallocra.o(i.__realloc$memalign) refers to mallocra.o(i.__malloc$realloc$memalign) for __malloc$realloc$memalign
    mallocra.o(i.__realloc$memalign) refers to mvars.o(.data) for __microlib_freelist
    mallocra.o(i.internal_alloc) refers to memmovea.o(.text) for __aeabi_memcpy
    mallocra.o(i.internal_alloc) refers to mvars.o(.data) for __microlib_freelist
    calloc.o(.text) refers to malloc.o(i.malloc) for malloc
    __0sscanf.o(.text) refers to scanf_char.o(.text) for __vfscanf_char
    __0sscanf.o(.text) refers to _sgetc.o(.text) for _sgetc
    _scanf_int.o(.text) refers to _chval.o(.text) for _chval
    strtol.o(.text) refers to ctype_o.o(.text) for __rt_ctype_table
    strtol.o(.text) refers to _strtoul.o(.text) for _strtoul
    strtol.o(.text) refers to errno.o(i.__aeabi_errno_addr) for __aeabi_errno_addr
    strtoul.o(.text) refers to errno.o(i.__aeabi_errno_addr) for __aeabi_errno_addr
    strtoul.o(.text) refers to ctype_o.o(.text) for __rt_ctype_table
    strtoul.o(.text) refers to _strtoul.o(.text) for _strtoul
    atoi.o(.text) refers to errno.o(i.__aeabi_errno_addr) for __aeabi_errno_addr
    atoi.o(.text) refers to strtol.o(.text) for strtol
    entry2.o(.ARM.Collect$$$$00000001) refers to entry2.o(.ARM.Collect$$$$00002712) for __lit__00000000
    entry2.o(.ARM.Collect$$$$00002712) refers to startup_m480.o(STACK) for __initial_sp
    entry2.o(__vectab_stack_and_reset_area) refers to startup_m480.o(STACK) for __initial_sp
    entry2.o(__vectab_stack_and_reset_area) refers to entry.o(.ARM.Collect$$$$00000000) for __main
    entry5.o(.ARM.Collect$$$$00000004) refers to init.o(.text) for __scatterload
    entry9a.o(.ARM.Collect$$$$0000000B) refers to main.o(.text) for main
    entry9b.o(.ARM.Collect$$$$0000000C) refers to main.o(.text) for main
    ctype_o.o(.text) refers to ctype_o.o(.constdata) for .constdata
    ctype_o.o(.constdata) refers to ctype_o.o(.constdata) for __ctype_table
    isalnum_o.o(.text) refers to ctype_o.o(.text) for __rt_ctype_table
    isalpha_o.o(.text) refers to ctype_o.o(.text) for __rt_ctype_table
    isblank_o.o(.text) refers to ctype_o.o(.constdata) for __ctype_table
    iscntrl_o.o(.text) refers to ctype_o.o(.text) for __rt_ctype_table
    isdigit_o.o(.text) refers to ctype_o.o(.text) for __rt_ctype_table
    isgraph_o.o(.text) refers to ctype_o.o(.text) for __rt_ctype_table
    islower_o.o(.text) refers to ctype_o.o(.text) for __rt_ctype_table
    isprint_o.o(.text) refers to ctype_o.o(.text) for __rt_ctype_table
    ispunct_o.o(.text) refers to ctype_o.o(.text) for __rt_ctype_table
    isspace_o.o(.text) refers to ctype_o.o(.text) for __rt_ctype_table
    isupper_o.o(.text) refers to ctype_o.o(.text) for __rt_ctype_table
    isxdigit_o.o(.text) refers to ctype_o.o(.text) for __rt_ctype_table
    errno.o(i.__aeabi_errno_addr) refers to errno.o(.data) for .data
    errno.o(i.__read_errno) refers to errno.o(.data) for .data
    errno.o(i.__set_errno) refers to errno.o(.data) for .data
    scanf_char.o(.text) refers to _scanf.o(.text) for __vfscanf
    scanf_char.o(.text) refers to isspace_o.o(.text) for isspace
    _strtoul.o(.text) refers to _chval.o(.text) for _chval
    _strtoul.o(.text) refers to errno.o(i.__aeabi_errno_addr) for __aeabi_errno_addr
    dadd.o(.text) refers to llshl.o(.text) for __aeabi_llsl
    dadd.o(.text) refers to llsshr.o(.text) for __aeabi_lasr
    dadd.o(.text) refers to depilogue.o(.text) for _double_epilogue
    dmul.o(.text) refers to depilogue.o(.text) for _double_epilogue
    ddiv.o(.text) refers to depilogue.o(.text) for _double_round
    dfixul.o(.text) refers to llushr.o(.text) for __aeabi_llsr
    dfixul.o(.text) refers to llshl.o(.text) for __aeabi_llsl
    init.o(.text) refers to entry5.o(.ARM.Collect$$$$00000004) for __main_after_scatterload
    isspace_c.o(.text) refers to ctype_c.o(.text) for __ctype_lookup
    _scanf.o(.text) refers (Weak) to _scanf_int.o(.text) for _scanf_int
    _scanf.o(.text) refers (Weak) to _scanf_str.o(.text) for _scanf_string
    depilogue.o(.text) refers to llshl.o(.text) for __aeabi_llsl
    depilogue.o(.text) refers to llushr.o(.text) for __aeabi_llsr
    ctype_c.o(.text) refers to ctype_c.o(.constdata) for .constdata


==============================================================================

Removing Unused input sections from the image.

    Removing system_m480.o(.rev16_text), (4 bytes).
    Removing system_m480.o(.revsh_text), (4 bytes).
    Removing system_m480.o(.rrx_text), (6 bytes).
    Removing entropy_hardware_poll.o(.rev16_text), (4 bytes).
    Removing entropy_hardware_poll.o(.revsh_text), (4 bytes).
    Removing entropy_hardware_poll.o(.rrx_text), (6 bytes).
    Removing main.o(.rev16_text), (4 bytes).
    Removing main.o(.revsh_text), (4 bytes).
    Removing main.o(.rrx_text), (6 bytes).
    Removing main.o(.constdata), (58 bytes).
    Removing stream_buffer.o(.text), (2240 bytes).
    Removing retarget.o(.rev16_text), (4 bytes).
    Removing retarget.o(.revsh_text), (4 bytes).
    Removing retarget.o(.rrx_text), (6 bytes).
    Removing clk.o(.rev16_text), (4 bytes).
    Removing clk.o(.revsh_text), (4 bytes).
    Removing clk.o(.rrx_text), (6 bytes).
    Removing crypto.o(.rev16_text), (4 bytes).
    Removing crypto.o(.revsh_text), (4 bytes).
    Removing crypto.o(.rrx_text), (6 bytes).
    Removing fmc.o(.rev16_text), (4 bytes).
    Removing fmc.o(.revsh_text), (4 bytes).
    Removing fmc.o(.rrx_text), (6 bytes).
    Removing sys.o(.rev16_text), (4 bytes).
    Removing sys.o(.revsh_text), (4 bytes).
    Removing sys.o(.rrx_text), (6 bytes).
    Removing uart.o(.rev16_text), (4 bytes).
    Removing uart.o(.revsh_text), (4 bytes).
    Removing uart.o(.rrx_text), (6 bytes).
    Removing aws_test_framework.o(.text), (208 bytes).
    Removing aws_test_framework.o(.bss), (1024 bytes).
    Removing aws_test_framework.o(.data), (2 bytes).
    Removing aws_test_runner.o(.constdata), (4 bytes).
    Removing aws_test_runner.o(.data), (8 bytes).
    Removing iot_tests_network.o(.text), (68 bytes).
    Removing iot_tests_network.o(.constdata), (104 bytes).
    Removing iot_tests_network.o(.data), (2 bytes).
    Removing aws_wifi.o(.rev16_text), (4 bytes).
    Removing aws_wifi.o(.revsh_text), (4 bytes).
    Removing aws_wifi.o(.rrx_text), (6 bytes).
    Removing esp8266_wifi.o(.rev16_text), (4 bytes).
    Removing esp8266_wifi.o(.revsh_text), (4 bytes).
    Removing esp8266_wifi.o(.rrx_text), (6 bytes).
    Removing aws_test_wifi.o(.text), (18208 bytes).
    Removing aws_test_wifi.o(.constdata), (64 bytes).
    Removing aws_test_wifi.o(.conststring), (1525 bytes).
    Removing aws_test_wifi.o(.data), (12 bytes).
    Removing aws_test_crypto.o(.text), (804 bytes).
    Removing aws_test_crypto.o(.constdata), (327 bytes).
    Removing aws_test_crypto.o(.conststring), (2511 bytes).
    Removing aws_test_crypto.o(.data), (4 bytes).
    Removing aws_test_mqtt_agent.o(.text), (4000 bytes).
    Removing aws_test_mqtt_agent.o(.bss), (25760 bytes).
    Removing aws_test_mqtt_agent.o(.constdata), (187 bytes).
    Removing aws_test_mqtt_agent.o(.conststring), (251 bytes).
    Removing aws_test_mqtt_agent.o(.data), (12 bytes).
    Removing iot_tests_mqtt_system.o(.text), (5236 bytes).
    Removing iot_tests_mqtt_system.o(.bss), (92 bytes).
    Removing iot_tests_mqtt_system.o(.constdata), (1348 bytes).
    Removing iot_tests_mqtt_system.o(.conststring), (162 bytes).
    Removing iot_tests_mqtt_system.o(.data), (48 bytes).
    Removing iot_tests_mqtt_api.o(.text), (6420 bytes).
    Removing iot_tests_mqtt_api.o(.bss), (92 bytes).
    Removing iot_tests_mqtt_api.o(.constdata), (168 bytes).
    Removing iot_tests_mqtt_api.o(.conststring), (97 bytes).
    Removing iot_tests_mqtt_api.o(.data), (78 bytes).
    Removing iot_tests_mqtt_receive.o(.text), (8688 bytes).
    Removing iot_tests_mqtt_receive.o(.bss), (112 bytes).
    Removing iot_tests_mqtt_receive.o(.constdata), (1704 bytes).
    Removing iot_tests_mqtt_receive.o(.conststring), (105 bytes).
    Removing iot_tests_mqtt_receive.o(.data), (16 bytes).
    Removing iot_tests_mqtt_subscription.o(.text), (8132 bytes).
    Removing iot_tests_mqtt_subscription.o(.bss), (184 bytes).
    Removing iot_tests_mqtt_subscription.o(.constdata), (64 bytes).
    Removing iot_tests_mqtt_subscription.o(.conststring), (114 bytes).
    Removing iot_tests_mqtt_subscription.o(.data), (12 bytes).
    Removing iot_tests_mqtt_validate.o(.text), (2416 bytes).
    Removing iot_tests_mqtt_validate.o(.constdata), (80 bytes).
    Removing iot_tests_mqtt_validate.o(.conststring), (106 bytes).
    Removing iot_tests_mqtt_validate.o(.data), (4 bytes).
    Removing aws_mqtt_agent.o(.text), (1508 bytes).
    Removing aws_mqtt_agent.o(.constdata), (168 bytes).
    Removing aws_mqtt_agent.o(.conststring), (79 bytes).
    Removing aws_mqtt_agent.o(.data), (4 bytes).
    Removing iot_mqtt_api.o(.text), (3680 bytes).
    Removing iot_mqtt_api.o(.constdata), (36 bytes).
    Removing iot_mqtt_network.o(.text), (1548 bytes).
    Removing iot_mqtt_network.o(.constdata), (36 bytes).
    Removing iot_mqtt_operation.o(.text), (2672 bytes).
    Removing iot_mqtt_operation.o(.constdata), (36 bytes).
    Removing iot_mqtt_serialize.o(.text), (2556 bytes).
    Removing iot_mqtt_serialize.o(.constdata), (40 bytes).
    Removing iot_mqtt_serialize.o(.data), (4 bytes).
    Removing iot_mqtt_subscription.o(.text), (1556 bytes).
    Removing iot_mqtt_subscription.o(.constdata), (52 bytes).
    Removing iot_mqtt_validate.o(.text), (496 bytes).
    Removing iot_mqtt_validate.o(.constdata), (36 bytes).
    Removing aws_greengrass_discovery.o(.text), (2776 bytes).
    Removing aws_greengrass_discovery.o(.constdata), (36 bytes).
    Removing aws_greengrass_discovery.o(.conststring), (94 bytes).
    Removing aws_helper_secure_connect.o(.text), (1064 bytes).
    Removing aws_helper_secure_connect.o(.constdata), (36 bytes).
    Removing aws_pkcs11_pal.o(.rev16_text), (4 bytes).
    Removing aws_pkcs11_pal.o(.revsh_text), (4 bytes).
    Removing aws_pkcs11_pal.o(.rrx_text), (6 bytes).
    Removing aws_test_pkcs11.o(.text), (13080 bytes).
    Removing aws_test_pkcs11.o(.constdata), (10192 bytes).
    Removing aws_test_pkcs11.o(.conststring), (1694 bytes).
    Removing aws_test_pkcs11.o(.data), (165 bytes).
    Removing aws_secure_sockets.o(.rev16_text), (4 bytes).
    Removing aws_secure_sockets.o(.revsh_text), (4 bytes).
    Removing aws_secure_sockets.o(.rrx_text), (6 bytes).
    Removing aws_shadow.o(.text), (1268 bytes).
    Removing aws_shadow.o(.constdata), (36 bytes).
    Removing aws_shadow.o(.data), (8 bytes).
    Removing aws_iot_shadow_api.o(.text), (2796 bytes).
    Removing aws_iot_shadow_api.o(.constdata), (56 bytes).
    Removing aws_iot_shadow_api.o(.conststring), (19 bytes).
    Removing aws_iot_shadow_api.o(.data), (4 bytes).
    Removing aws_iot_shadow_operation.o(.text), (1888 bytes).
    Removing aws_iot_shadow_operation.o(.bss), (84 bytes).
    Removing aws_iot_shadow_operation.o(.constdata), (68 bytes).
    Removing aws_iot_shadow_operation.o(.conststring), (43 bytes).
    Removing aws_iot_shadow_operation.o(.data), (8 bytes).
    Removing aws_iot_shadow_parser.o(.text), (508 bytes).
    Removing aws_iot_shadow_parser.o(.constdata), (36 bytes).
    Removing aws_iot_shadow_subscription.o(.text), (1588 bytes).
    Removing aws_iot_shadow_subscription.o(.bss), (84 bytes).
    Removing aws_iot_shadow_subscription.o(.constdata), (36 bytes).
    Removing aws_iot_shadow_subscription.o(.data), (8 bytes).
    Removing aws_test_shadow.o(.text), (2076 bytes).
    Removing aws_test_shadow.o(.bss), (512 bytes).
    Removing aws_test_shadow.o(.constdata), (36 bytes).
    Removing aws_test_shadow.o(.conststring), (194 bytes).
    Removing aws_test_shadow.o(.data), (8 bytes).
    Removing aws_iot_tests_shadow_system.o(.text), (3608 bytes).
    Removing aws_iot_tests_shadow_system.o(.constdata), (120 bytes).
    Removing aws_iot_tests_shadow_system.o(.conststring), (376 bytes).
    Removing aws_iot_tests_shadow_system.o(.data), (36 bytes).
    Removing aws_iot_tests_shadow_api.o(.text), (3132 bytes).
    Removing aws_iot_tests_shadow_api.o(.bss), (168 bytes).
    Removing aws_iot_tests_shadow_api.o(.constdata), (64 bytes).
    Removing aws_iot_tests_shadow_api.o(.conststring), (247 bytes).
    Removing aws_iot_tests_shadow_api.o(.data), (12 bytes).
    Removing aws_iot_tests_shadow_parser.o(.text), (2976 bytes).
    Removing aws_iot_tests_shadow_parser.o(.constdata), (54 bytes).
    Removing aws_iot_tests_shadow_parser.o(.conststring), (361 bytes).
    Removing aws_iot_tests_shadow_parser.o(.data), (4 bytes).
    Removing aws_test_tls.o(.text), (2104 bytes).
    Removing aws_test_tls.o(.constdata), (253 bytes).
    Removing aws_test_tls.o(.conststring), (149 bytes).
    Removing aws_test_tls.o(.data), (4 bytes).
    Removing jsmn.o(.text), (1198 bytes).
    Removing version.o(.text), (64 bytes).
    Removing version_features.o(.text), (56 bytes).
    Removing version_features.o(.conststring), (1545 bytes).
    Removing version_features.o(.data), (252 bytes).
    Removing iot_clock_afr.o(.text), (504 bytes).
    Removing iot_clock_afr.o(.constdata), (36 bytes).
    Removing iot_network_afr.o(.text), (1072 bytes).
    Removing iot_network_afr.o(.constdata), (64 bytes).
    Removing iot_network_afr.o(.conststring), (15 bytes).
    Removing iot_threads_afr.o(.text), (692 bytes).
    Removing iot_threads_afr.o(.constdata), (36 bytes).
    Removing iot_taskpool.o(.text), (4040 bytes).
    Removing iot_taskpool.o(.bss), (356 bytes).
    Removing iot_taskpool.o(.constdata), (36 bytes).
    Removing iot_init.o(.text), (56 bytes).
    Removing iot_init.o(.constdata), (52 bytes).
    Removing iot_json_utils.o(.text), (436 bytes).
    Removing iot_json_utils.o(.constdata), (36 bytes).
    Removing iot_logging.o(.text), (532 bytes).
    Removing iot_logging.o(.constdata), (56 bytes).
    Removing iot_logging.o(.conststring), (34 bytes).
    Removing aws_iot_static_memory_defender.o(.constdata), (36 bytes).
    Removing aws_iot_static_memory_shadow.o(.constdata), (36 bytes).
    Removing iot_static_memory_common.o(.constdata), (36 bytes).
    Removing iot_static_memory_metrics.o(.constdata), (36 bytes).
    Removing iot_static_memory_mqtt.o(.constdata), (36 bytes).
    Removing iot_static_memory_serializer.o(.constdata), (36 bytes).
    Removing iot_static_memory_taskpool.o(.constdata), (36 bytes).
    Removing aws_memory_leak.o(.text), (264 bytes).
    Removing aws_memory_leak.o(.conststring), (91 bytes).
    Removing aws_memory_leak.o(.data), (4 bytes).
    Removing iot_test_platform_clock.o(.text), (844 bytes).
    Removing iot_test_platform_clock.o(.constdata), (36 bytes).
    Removing iot_test_platform_clock.o(.conststring), (103 bytes).
    Removing iot_test_platform_clock.o(.data), (4 bytes).
    Removing iot_test_platform_threads.o(.text), (1476 bytes).
    Removing iot_test_platform_threads.o(.constdata), (36 bytes).
    Removing iot_test_platform_threads.o(.conststring), (109 bytes).
    Removing iot_test_platform_threads.o(.data), (12 bytes).
    Removing aws_test_posix_clock.o(.text), (2284 bytes).
    Removing aws_test_posix_clock.o(.constdata), (48 bytes).
    Removing aws_test_posix_clock.o(.conststring), (113 bytes).
    Removing aws_test_posix_clock.o(.data), (4 bytes).
    Removing aws_test_posix_mqueue.o(.text), (4036 bytes).
    Removing aws_test_posix_mqueue.o(.constdata), (16 bytes).
    Removing aws_test_posix_mqueue.o(.conststring), (114 bytes).
    Removing aws_test_posix_mqueue.o(.data), (20 bytes).
    Removing aws_test_posix_pthread.o(.text), (3300 bytes).
    Removing aws_test_posix_pthread.o(.constdata), (284 bytes).
    Removing aws_test_posix_pthread.o(.conststring), (115 bytes).
    Removing aws_test_posix_pthread.o(.data), (4 bytes).
    Removing aws_test_posix_semaphore.o(.text), (1072 bytes).
    Removing aws_test_posix_semaphore.o(.conststring), (121 bytes).
    Removing aws_test_posix_semaphore.o(.data), (4 bytes).
    Removing aws_test_posix_stress.o(.text), (2120 bytes).
    Removing aws_test_posix_stress.o(.constdata), (108 bytes).
    Removing aws_test_posix_stress.o(.conststring), (114 bytes).
    Removing aws_test_posix_stress.o(.data), (4 bytes).
    Removing aws_test_posix_timer.o(.text), (4132 bytes).
    Removing aws_test_posix_timer.o(.bss), (84 bytes).
    Removing aws_test_posix_timer.o(.constdata), (48 bytes).
    Removing aws_test_posix_timer.o(.conststring), (113 bytes).
    Removing aws_test_posix_timer.o(.data), (24 bytes).
    Removing aws_test_posix_unistd.o(.text), (240 bytes).
    Removing aws_test_posix_unistd.o(.conststring), (114 bytes).
    Removing aws_test_posix_unistd.o(.data), (4 bytes).
    Removing aws_test_posix_utils.o(.text), (3148 bytes).
    Removing aws_test_posix_utils.o(.constdata), (4 bytes).
    Removing aws_test_posix_utils.o(.conststring), (161 bytes).
    Removing aws_test_posix_utils.o(.data), (4 bytes).
    Removing freertos_posix_clock.o(.text), (296 bytes).
    Removing freertos_posix_mqueue.o(.text), (1604 bytes).
    Removing freertos_posix_mqueue.o(.bss), (80 bytes).
    Removing freertos_posix_mqueue.o(.constdata), (16 bytes).
    Removing freertos_posix_mqueue.o(.data), (12 bytes).
    Removing freertos_posix_pthread.o(.text), (728 bytes).
    Removing freertos_posix_pthread.o(.constdata), (4 bytes).
    Removing freertos_posix_pthread_barrier.o(.text), (224 bytes).
    Removing freertos_posix_pthread_cond.o(.text), (592 bytes).
    Removing freertos_posix_pthread_mutex.o(.text), (556 bytes).
    Removing freertos_posix_pthread_mutex.o(.constdata), (96 bytes).
    Removing freertos_posix_sched.o(.text), (36 bytes).
    Removing freertos_posix_semaphore.o(.text), (400 bytes).
    Removing freertos_posix_timer.o(.text), (772 bytes).
    Removing freertos_posix_unistd.o(.text), (82 bytes).
    Removing freertos_posix_utils.o(.text), (904 bytes).
    Removing aws_secure_sockets_wrapper_metrics.o(.constdata), (36 bytes).
    Removing iot_metrics.o(.text), (652 bytes).
    Removing iot_metrics.o(.bss), (84 bytes).
    Removing iot_metrics.o(.constdata), (36 bytes).
    Removing iot_metrics.o(.data), (8 bytes).
    Removing aws_dev_mode_key_provisioning.o(.text), (1024 bytes).
    Removing aws_dev_mode_key_provisioning.o(.constdata), (7776 bytes).

246 unused section(s) (total 214093 bytes) removed from the image.

==============================================================================

Image Symbol Table

    Local Symbols

    Symbol Name                              Value     Ov Type        Size  Object(Section)

    RESET                                    0x00000000   Section      440  startup_m480.o(RESET)
    ../clib/../cmprslib/zerorunl2.c          0x00000000   Number         0  __dczerorl2.o ABSOLUTE
    ../clib/microlib/ctype/ctype.c           0x00000000   Number         0  iscntrl_o.o ABSOLUTE
    ../clib/microlib/ctype/ctype.c           0x00000000   Number         0  isgraph_o.o ABSOLUTE
    ../clib/microlib/ctype/ctype.c           0x00000000   Number         0  isxdigit_o.o ABSOLUTE
    ../clib/microlib/ctype/ctype.c           0x00000000   Number         0  isdigit_o.o ABSOLUTE
    ../clib/microlib/ctype/ctype.c           0x00000000   Number         0  isalpha_o.o ABSOLUTE
    ../clib/microlib/ctype/ctype.c           0x00000000   Number         0  islower_o.o ABSOLUTE
    ../clib/microlib/ctype/ctype.c           0x00000000   Number         0  ctype_o.o ABSOLUTE
    ../clib/microlib/ctype/ctype.c           0x00000000   Number         0  isalnum_o.o ABSOLUTE
    ../clib/microlib/ctype/ctype.c           0x00000000   Number         0  isupper_o.o ABSOLUTE
    ../clib/microlib/ctype/ctype.c           0x00000000   Number         0  isprint_o.o ABSOLUTE
    ../clib/microlib/ctype/ctype.c           0x00000000   Number         0  ctype_c.o ABSOLUTE
    ../clib/microlib/ctype/ctype.c           0x00000000   Number         0  isspace_o.o ABSOLUTE
    ../clib/microlib/ctype/ctype.c           0x00000000   Number         0  ispunct_o.o ABSOLUTE
    ../clib/microlib/ctype/ctype.c           0x00000000   Number         0  isspace_c.o ABSOLUTE
    ../clib/microlib/ctype/ctype.c           0x00000000   Number         0  isblank_o.o ABSOLUTE
    ../clib/microlib/division.c              0x00000000   Number         0  uidiv.o ABSOLUTE
    ../clib/microlib/division.c              0x00000000   Number         0  ldiv.o ABSOLUTE
    ../clib/microlib/division.c              0x00000000   Number         0  uldiv.o ABSOLUTE
    ../clib/microlib/errno.c                 0x00000000   Number         0  errno.o ABSOLUTE
    ../clib/microlib/init/entry.s            0x00000000   Number         0  entry11b.o ABSOLUTE
    ../clib/microlib/init/entry.s            0x00000000   Number         0  entry5.o ABSOLUTE
    ../clib/microlib/init/entry.s            0x00000000   Number         0  entry11a.o ABSOLUTE
    ../clib/microlib/init/entry.s            0x00000000   Number         0  entry10b.o ABSOLUTE
    ../clib/microlib/init/entry.s            0x00000000   Number         0  entry10a.o ABSOLUTE
    ../clib/microlib/init/entry.s            0x00000000   Number         0  entry9b.o ABSOLUTE
    ../clib/microlib/init/entry.s            0x00000000   Number         0  entry9a.o ABSOLUTE
    ../clib/microlib/init/entry.s            0x00000000   Number         0  entry8b.o ABSOLUTE
    ../clib/microlib/init/entry.s            0x00000000   Number         0  entry8a.o ABSOLUTE
    ../clib/microlib/init/entry.s            0x00000000   Number         0  entry7b.o ABSOLUTE
    ../clib/microlib/init/entry.s            0x00000000   Number         0  entry7a.o ABSOLUTE
    ../clib/microlib/init/entry.s            0x00000000   Number         0  entry2.o ABSOLUTE
    ../clib/microlib/init/entry.s            0x00000000   Number         0  entry.o ABSOLUTE
    ../clib/microlib/longlong.c              0x00000000   Number         0  llushr.o ABSOLUTE
    ../clib/microlib/longlong.c              0x00000000   Number         0  llshl.o ABSOLUTE
    ../clib/microlib/longlong.c              0x00000000   Number         0  llsshr.o ABSOLUTE
    ../clib/microlib/malloc/calloc.c         0x00000000   Number         0  calloc.o ABSOLUTE
    ../clib/microlib/malloc/malloc.c         0x00000000   Number         0  malloc.o ABSOLUTE
    ../clib/microlib/malloc/malloc.c         0x00000000   Number         0  mallocr.o ABSOLUTE
    ../clib/microlib/malloc/malloc.c         0x00000000   Number         0  mallocra.o ABSOLUTE
    ../clib/microlib/malloc/malloc.c         0x00000000   Number         0  malloca.o ABSOLUTE
    ../clib/microlib/malloc/mvars.c          0x00000000   Number         0  mvars.o ABSOLUTE
    ../clib/microlib/printf/printf.c         0x00000000   Number         0  printf2.o ABSOLUTE
    ../clib/microlib/printf/printf.c         0x00000000   Number         0  printf7.o ABSOLUTE
    ../clib/microlib/printf/printf.c         0x00000000   Number         0  printf5.o ABSOLUTE
    ../clib/microlib/printf/printf.c         0x00000000   Number         0  printf6.o ABSOLUTE
    ../clib/microlib/printf/printf.c         0x00000000   Number         0  printf3.o ABSOLUTE
    ../clib/microlib/printf/printf.c         0x00000000   Number         0  printf8.o ABSOLUTE
    ../clib/microlib/printf/printf.c         0x00000000   Number         0  printf4.o ABSOLUTE
    ../clib/microlib/printf/printf.c         0x00000000   Number         0  printfa.o ABSOLUTE
    ../clib/microlib/printf/printf.c         0x00000000   Number         0  printfb.o ABSOLUTE
    ../clib/microlib/printf/printf.c         0x00000000   Number         0  printf0.o ABSOLUTE
    ../clib/microlib/printf/printf.c         0x00000000   Number         0  printf1.o ABSOLUTE
    ../clib/microlib/printf/stubs.s          0x00000000   Number         0  stubs.o ABSOLUTE
    ../clib/microlib/stdio/putc.c            0x00000000   Number         0  putc.o ABSOLUTE
    ../clib/microlib/stdlib/rand.c           0x00000000   Number         0  rand.o ABSOLUTE
    ../clib/microlib/string/memcmp.c         0x00000000   Number         0  memcmp.o ABSOLUTE
    ../clib/microlib/string/memcpy.c         0x00000000   Number         0  memmoveb.o ABSOLUTE
    ../clib/microlib/string/memcpy.c         0x00000000   Number         0  memcpyb.o ABSOLUTE
    ../clib/microlib/string/memcpy.c         0x00000000   Number         0  memmovea.o ABSOLUTE
    ../clib/microlib/string/memcpy.c         0x00000000   Number         0  memcpya.o ABSOLUTE
    ../clib/microlib/string/memset.c         0x00000000   Number         0  memseta.o ABSOLUTE
    ../clib/microlib/string/memset.c         0x00000000   Number         0  memset.o ABSOLUTE
    ../clib/microlib/string/strcmp.c         0x00000000   Number         0  strcmp.o ABSOLUTE
    ../clib/microlib/string/strcpy.c         0x00000000   Number         0  strcpy.o ABSOLUTE
    ../clib/microlib/string/strlcpy.c        0x00000000   Number         0  strlcpy.o ABSOLUTE
    ../clib/microlib/string/strlen.c         0x00000000   Number         0  strlen.o ABSOLUTE
    ../clib/microlib/string/strncmp.c        0x00000000   Number         0  strncmp.o ABSOLUTE
    ../clib/microlib/string/strncpy.c        0x00000000   Number         0  strncpy.o ABSOLUTE
    ../clib/microlib/string/strrchr.c        0x00000000   Number         0  strrchr.o ABSOLUTE
    ../clib/microlib/string/strstr.c         0x00000000   Number         0  strstr.o ABSOLUTE
    ../clib/microlib/string/strtok.c         0x00000000   Number         0  strtok_r.o ABSOLUTE
    ../clib/microlib/string/strtok.c         0x00000000   Number         0  strtok.o ABSOLUTE
    ../clib/microlib/stubs.s                 0x00000000   Number         0  iusefp.o ABSOLUTE
    ../clib/scanf.c                          0x00000000   Number         0  strtol.o ABSOLUTE
    ../clib/scanf.c                          0x00000000   Number         0  _scanf_str.o ABSOLUTE
    ../clib/scanf.c                          0x00000000   Number         0  _scanf_int.o ABSOLUTE
    ../clib/scanf.c                          0x00000000   Number         0  _scanf.o ABSOLUTE
    ../clib/scanf.c                          0x00000000   Number         0  _strtoul.o ABSOLUTE
    ../clib/scanf.c                          0x00000000   Number         0  _sgetc.o ABSOLUTE
    ../clib/scanf.c                          0x00000000   Number         0  scanf_char.o ABSOLUTE
    ../clib/scanf.c                          0x00000000   Number         0  _chval.o ABSOLUTE
    ../clib/scanf.c                          0x00000000   Number         0  __0sscanf.o ABSOLUTE
    ../clib/scanf.c                          0x00000000   Number         0  atoi.o ABSOLUTE
    ../clib/scanf.c                          0x00000000   Number         0  strtoul.o ABSOLUTE
    ../fplib/microlib/fpadd.c                0x00000000   Number         0  dadd.o ABSOLUTE
    ../fplib/microlib/fpdiv.c                0x00000000   Number         0  ddiv.o ABSOLUTE
    ../fplib/microlib/fpepilogue.c           0x00000000   Number         0  depilogue.o ABSOLUTE
    ../fplib/microlib/fpfix.c                0x00000000   Number         0  dfixul.o ABSOLUTE
    ../fplib/microlib/fpmul.c                0x00000000   Number         0  dmul.o ABSOLUTE
    ../fplib/setjmp.s                        0x00000000   Number         0  setjmp.o ABSOLUTE
    ..\..\..\..\..\..\freertos_kernel\event_groups.c 0x00000000   Number         0  event_groups.o ABSOLUTE
    ..\..\..\..\..\..\freertos_kernel\list.c 0x00000000   Number         0  list.o ABSOLUTE
    ..\..\..\..\..\..\freertos_kernel\portable\MemMang\heap_4.c 0x00000000   Number         0  heap_4.o ABSOLUTE
    ..\..\..\..\..\..\freertos_kernel\portable\RVDS\ARM_CM4F\port.c 0x00000000   Number         0  port.o ABSOLUTE
    ..\..\..\..\..\..\freertos_kernel\queue.c 0x00000000   Number         0  queue.o ABSOLUTE
    ..\..\..\..\..\..\freertos_kernel\stream_buffer.c 0x00000000   Number         0  stream_buffer.o ABSOLUTE
    ..\..\..\..\..\..\freertos_kernel\tasks.c 0x00000000   Number         0  tasks.o ABSOLUTE
    ..\..\..\..\..\..\freertos_kernel\timers.c 0x00000000   Number         0  timers.o ABSOLUTE
    ..\..\..\..\..\..\modules\libraries\3rdparty\jsmn\jsmn.c 0x00000000   Number         0  jsmn.o ABSOLUTE
    ..\..\..\..\..\..\modules\libraries\3rdparty\mbedtls\library\aes.c 0x00000000   Number         0  aes.o ABSOLUTE
    ..\..\..\..\..\..\modules\libraries\3rdparty\mbedtls\library\aesni.c 0x00000000   Number         0  aesni.o ABSOLUTE
    ..\..\..\..\..\..\modules\libraries\3rdparty\mbedtls\library\arc4.c 0x00000000   Number         0  arc4.o ABSOLUTE
    ..\..\..\..\..\..\modules\libraries\3rdparty\mbedtls\library\asn1parse.c 0x00000000   Number         0  asn1parse.o ABSOLUTE
    ..\..\..\..\..\..\modules\libraries\3rdparty\mbedtls\library\asn1write.c 0x00000000   Number         0  asn1write.o ABSOLUTE
    ..\..\..\..\..\..\modules\libraries\3rdparty\mbedtls\library\base64.c 0x00000000   Number         0  base64.o ABSOLUTE
    ..\..\..\..\..\..\modules\libraries\3rdparty\mbedtls\library\bignum.c 0x00000000   Number         0  bignum.o ABSOLUTE
    ..\..\..\..\..\..\modules\libraries\3rdparty\mbedtls\library\blowfish.c 0x00000000   Number         0  blowfish.o ABSOLUTE
    ..\..\..\..\..\..\modules\libraries\3rdparty\mbedtls\library\camellia.c 0x00000000   Number         0  camellia.o ABSOLUTE
    ..\..\..\..\..\..\modules\libraries\3rdparty\mbedtls\library\ccm.c 0x00000000   Number         0  ccm.o ABSOLUTE
    ..\..\..\..\..\..\modules\libraries\3rdparty\mbedtls\library\certs.c 0x00000000   Number         0  certs.o ABSOLUTE
    ..\..\..\..\..\..\modules\libraries\3rdparty\mbedtls\library\cipher.c 0x00000000   Number         0  cipher.o ABSOLUTE
    ..\..\..\..\..\..\modules\libraries\3rdparty\mbedtls\library\cipher_wrap.c 0x00000000   Number         0  cipher_wrap.o ABSOLUTE
    ..\..\..\..\..\..\modules\libraries\3rdparty\mbedtls\library\cmac.c 0x00000000   Number         0  cmac.o ABSOLUTE
    ..\..\..\..\..\..\modules\libraries\3rdparty\mbedtls\library\ctr_drbg.c 0x00000000   Number         0  ctr_drbg.o ABSOLUTE
    ..\..\..\..\..\..\modules\libraries\3rdparty\mbedtls\library\debug.c 0x00000000   Number         0  debug.o ABSOLUTE
    ..\..\..\..\..\..\modules\libraries\3rdparty\mbedtls\library\des.c 0x00000000   Number         0  des.o ABSOLUTE
    ..\..\..\..\..\..\modules\libraries\3rdparty\mbedtls\library\dhm.c 0x00000000   Number         0  dhm.o ABSOLUTE
    ..\..\..\..\..\..\modules\libraries\3rdparty\mbedtls\library\ecdh.c 0x00000000   Number         0  ecdh.o ABSOLUTE
    ..\..\..\..\..\..\modules\libraries\3rdparty\mbedtls\library\ecdsa.c 0x00000000   Number         0  ecdsa.o ABSOLUTE
    ..\..\..\..\..\..\modules\libraries\3rdparty\mbedtls\library\ecjpake.c 0x00000000   Number         0  ecjpake.o ABSOLUTE
    ..\..\..\..\..\..\modules\libraries\3rdparty\mbedtls\library\ecp.c 0x00000000   Number         0  ecp.o ABSOLUTE
    ..\..\..\..\..\..\modules\libraries\3rdparty\mbedtls\library\ecp_curves.c 0x00000000   Number         0  ecp_curves.o ABSOLUTE
    ..\..\..\..\..\..\modules\libraries\3rdparty\mbedtls\library\entropy.c 0x00000000   Number         0  entropy.o ABSOLUTE
    ..\..\..\..\..\..\modules\libraries\3rdparty\mbedtls\library\entropy_poll.c 0x00000000   Number         0  entropy_poll.o ABSOLUTE
    ..\..\..\..\..\..\modules\libraries\3rdparty\mbedtls\library\error.c 0x00000000   Number         0  error.o ABSOLUTE
    ..\..\..\..\..\..\modules\libraries\3rdparty\mbedtls\library\gcm.c 0x00000000   Number         0  gcm.o ABSOLUTE
    ..\..\..\..\..\..\modules\libraries\3rdparty\mbedtls\library\havege.c 0x00000000   Number         0  havege.o ABSOLUTE
    ..\..\..\..\..\..\modules\libraries\3rdparty\mbedtls\library\hmac_drbg.c 0x00000000   Number         0  hmac_drbg.o ABSOLUTE
    ..\..\..\..\..\..\modules\libraries\3rdparty\mbedtls\library\md.c 0x00000000   Number         0  md.o ABSOLUTE
    ..\..\..\..\..\..\modules\libraries\3rdparty\mbedtls\library\md2.c 0x00000000   Number         0  md2.o ABSOLUTE
    ..\..\..\..\..\..\modules\libraries\3rdparty\mbedtls\library\md4.c 0x00000000   Number         0  md4.o ABSOLUTE
    ..\..\..\..\..\..\modules\libraries\3rdparty\mbedtls\library\md5.c 0x00000000   Number         0  md5.o ABSOLUTE
    ..\..\..\..\..\..\modules\libraries\3rdparty\mbedtls\library\md_wrap.c 0x00000000   Number         0  md_wrap.o ABSOLUTE
    ..\..\..\..\..\..\modules\libraries\3rdparty\mbedtls\library\memory_buffer_alloc.c 0x00000000   Number         0  memory_buffer_alloc.o ABSOLUTE
    ..\..\..\..\..\..\modules\libraries\3rdparty\mbedtls\library\net_sockets.c 0x00000000   Number         0  net_sockets.o ABSOLUTE
    ..\..\..\..\..\..\modules\libraries\3rdparty\mbedtls\library\oid.c 0x00000000   Number         0  oid.o ABSOLUTE
    ..\..\..\..\..\..\modules\libraries\3rdparty\mbedtls\library\padlock.c 0x00000000   Number         0  padlock.o ABSOLUTE
    ..\..\..\..\..\..\modules\libraries\3rdparty\mbedtls\library\pem.c 0x00000000   Number         0  pem.o ABSOLUTE
    ..\..\..\..\..\..\modules\libraries\3rdparty\mbedtls\library\pk.c 0x00000000   Number         0  pk.o ABSOLUTE
    ..\..\..\..\..\..\modules\libraries\3rdparty\mbedtls\library\pk_wrap.c 0x00000000   Number         0  pk_wrap.o ABSOLUTE
    ..\..\..\..\..\..\modules\libraries\3rdparty\mbedtls\library\pkcs12.c 0x00000000   Number         0  pkcs12.o ABSOLUTE
    ..\..\..\..\..\..\modules\libraries\3rdparty\mbedtls\library\pkcs5.c 0x00000000   Number         0  pkcs5.o ABSOLUTE
    ..\..\..\..\..\..\modules\libraries\3rdparty\mbedtls\library\pkparse.c 0x00000000   Number         0  pkparse.o ABSOLUTE
    ..\..\..\..\..\..\modules\libraries\3rdparty\mbedtls\library\pkwrite.c 0x00000000   Number         0  pkwrite.o ABSOLUTE
    ..\..\..\..\..\..\modules\libraries\3rdparty\mbedtls\library\platform.c 0x00000000   Number         0  platform.o ABSOLUTE
    ..\..\..\..\..\..\modules\libraries\3rdparty\mbedtls\library\platform_util.c 0x00000000   Number         0  platform_util.o ABSOLUTE
    ..\..\..\..\..\..\modules\libraries\3rdparty\mbedtls\library\ripemd160.c 0x00000000   Number         0  ripemd160.o ABSOLUTE
    ..\..\..\..\..\..\modules\libraries\3rdparty\mbedtls\library\rsa.c 0x00000000   Number         0  rsa.o ABSOLUTE
    ..\..\..\..\..\..\modules\libraries\3rdparty\mbedtls\library\rsa_internal.c 0x00000000   Number         0  rsa_internal.o ABSOLUTE
    ..\..\..\..\..\..\modules\libraries\3rdparty\mbedtls\library\sha1.c 0x00000000   Number         0  sha1.o ABSOLUTE
    ..\..\..\..\..\..\modules\libraries\3rdparty\mbedtls\library\sha256.c 0x00000000   Number         0  sha256.o ABSOLUTE
    ..\..\..\..\..\..\modules\libraries\3rdparty\mbedtls\library\sha512.c 0x00000000   Number         0  sha512.o ABSOLUTE
    ..\..\..\..\..\..\modules\libraries\3rdparty\mbedtls\library\ssl_cache.c 0x00000000   Number         0  ssl_cache.o ABSOLUTE
    ..\..\..\..\..\..\modules\libraries\3rdparty\mbedtls\library\ssl_ciphersuites.c 0x00000000   Number         0  ssl_ciphersuites.o ABSOLUTE
    ..\..\..\..\..\..\modules\libraries\3rdparty\mbedtls\library\ssl_cli.c 0x00000000   Number         0  ssl_cli.o ABSOLUTE
    ..\..\..\..\..\..\modules\libraries\3rdparty\mbedtls\library\ssl_cookie.c 0x00000000   Number         0  ssl_cookie.o ABSOLUTE
    ..\..\..\..\..\..\modules\libraries\3rdparty\mbedtls\library\ssl_srv.c 0x00000000   Number         0  ssl_srv.o ABSOLUTE
    ..\..\..\..\..\..\modules\libraries\3rdparty\mbedtls\library\ssl_ticket.c 0x00000000   Number         0  ssl_ticket.o ABSOLUTE
    ..\..\..\..\..\..\modules\libraries\3rdparty\mbedtls\library\ssl_tls.c 0x00000000   Number         0  ssl_tls.o ABSOLUTE
    ..\..\..\..\..\..\modules\libraries\3rdparty\mbedtls\library\threading.c 0x00000000   Number         0  threading.o ABSOLUTE
    ..\..\..\..\..\..\modules\libraries\3rdparty\mbedtls\library\timing.c 0x00000000   Number         0  timing.o ABSOLUTE
    ..\..\..\..\..\..\modules\libraries\3rdparty\mbedtls\library\version.c 0x00000000   Number         0  version.o ABSOLUTE
    ..\..\..\..\..\..\modules\libraries\3rdparty\mbedtls\library\version_features.c 0x00000000   Number         0  version_features.o ABSOLUTE
    ..\..\..\..\..\..\modules\libraries\3rdparty\mbedtls\library\x509.c 0x00000000   Number         0  x509.o ABSOLUTE
    ..\..\..\..\..\..\modules\libraries\3rdparty\mbedtls\library\x509_create.c 0x00000000   Number         0  x509_create.o ABSOLUTE
    ..\..\..\..\..\..\modules\libraries\3rdparty\mbedtls\library\x509_crl.c 0x00000000   Number         0  x509_crl.o ABSOLUTE
    ..\..\..\..\..\..\modules\libraries\3rdparty\mbedtls\library\x509_crt.c 0x00000000   Number         0  x509_crt.o ABSOLUTE
    ..\..\..\..\..\..\modules\libraries\3rdparty\mbedtls\library\x509_csr.c 0x00000000   Number         0  x509_csr.o ABSOLUTE
    ..\..\..\..\..\..\modules\libraries\3rdparty\mbedtls\library\x509write_crt.c 0x00000000   Number         0  x509write_crt.o ABSOLUTE
    ..\..\..\..\..\..\modules\libraries\3rdparty\mbedtls\library\x509write_csr.c 0x00000000   Number         0  x509write_csr.o ABSOLUTE
    ..\..\..\..\..\..\modules\libraries\3rdparty\mbedtls\library\xtea.c 0x00000000   Number         0  xtea.o ABSOLUTE
    ..\..\..\..\..\..\modules\libraries\3rdparty\unity\extras\fixture\src\unity_fixture.c 0x00000000   Number         0  unity_fixture.o ABSOLUTE
    ..\..\..\..\..\..\modules\libraries\3rdparty\unity\src\unity.c 0x00000000   Number         0  unity.o ABSOLUTE
    ..\..\..\..\..\..\modules\libraries\aws\greengrass\src\aws_greengrass_discovery.c 0x00000000   Number         0  aws_greengrass_discovery.o ABSOLUTE
    ..\..\..\..\..\..\modules\libraries\aws\greengrass\src\aws_helper_secure_connect.c 0x00000000   Number         0  aws_helper_secure_connect.o ABSOLUTE
    ..\..\..\..\..\..\modules\libraries\aws\shadow\src\aws_iot_shadow_api.c 0x00000000   Number         0  aws_iot_shadow_api.o ABSOLUTE
    ..\..\..\..\..\..\modules\libraries\aws\shadow\src\aws_iot_shadow_operation.c 0x00000000   Number         0  aws_iot_shadow_operation.o ABSOLUTE
    ..\..\..\..\..\..\modules\libraries\aws\shadow\src\aws_iot_shadow_parser.c 0x00000000   Number         0  aws_iot_shadow_parser.o ABSOLUTE
    ..\..\..\..\..\..\modules\libraries\aws\shadow\src\aws_iot_shadow_subscription.c 0x00000000   Number         0  aws_iot_shadow_subscription.o ABSOLUTE
    ..\..\..\..\..\..\modules\libraries\aws\shadow\src\aws_shadow.c 0x00000000   Number         0  aws_shadow.o ABSOLUTE
    ..\..\..\..\..\..\modules\libraries\aws\shadow\test\aws_test_shadow.c 0x00000000   Number         0  aws_test_shadow.o ABSOLUTE
    ..\..\..\..\..\..\modules\libraries\aws\shadow\test\system\aws_iot_tests_shadow_system.c 0x00000000   Number         0  aws_iot_tests_shadow_system.o ABSOLUTE
    ..\..\..\..\..\..\modules\libraries\aws\shadow\test\unit\aws_iot_tests_shadow_api.c 0x00000000   Number         0  aws_iot_tests_shadow_api.o ABSOLUTE
    ..\..\..\..\..\..\modules\libraries\aws\shadow\test\unit\aws_iot_tests_shadow_parser.c 0x00000000   Number         0  aws_iot_tests_shadow_parser.o ABSOLUTE
    ..\..\..\..\..\..\modules\libraries\standard\common\iot_init.c 0x00000000   Number         0  iot_init.o ABSOLUTE
    ..\..\..\..\..\..\modules\libraries\standard\common\iot_json_utils.c 0x00000000   Number         0  iot_json_utils.o ABSOLUTE
    ..\..\..\..\..\..\modules\libraries\standard\common\logging\aws_logging_task_dynamic_buffers.c 0x00000000   Number         0  aws_logging_task_dynamic_buffers.o ABSOLUTE
    ..\..\..\..\..\..\modules\libraries\standard\common\logging\iot_logging.c 0x00000000   Number         0  iot_logging.o ABSOLUTE
    ..\..\..\..\..\..\modules\libraries\standard\common\platform\iot_clock_afr.c 0x00000000   Number         0  iot_clock_afr.o ABSOLUTE
    ..\..\..\..\..\..\modules\libraries\standard\common\platform\iot_network_afr.c 0x00000000   Number         0  iot_network_afr.o ABSOLUTE
    ..\..\..\..\..\..\modules\libraries\standard\common\platform\iot_threads_afr.c 0x00000000   Number         0  iot_threads_afr.o ABSOLUTE
    ..\..\..\..\..\..\modules\libraries\standard\common\static_memory\aws_iot_static_memory_defender.c 0x00000000   Number         0  aws_iot_static_memory_defender.o ABSOLUTE
    ..\..\..\..\..\..\modules\libraries\standard\common\static_memory\aws_iot_static_memory_shadow.c 0x00000000   Number         0  aws_iot_static_memory_shadow.o ABSOLUTE
    ..\..\..\..\..\..\modules\libraries\standard\common\static_memory\iot_static_memory_common.c 0x00000000   Number         0  iot_static_memory_common.o ABSOLUTE
    ..\..\..\..\..\..\modules\libraries\standard\common\static_memory\iot_static_memory_metrics.c 0x00000000   Number         0  iot_static_memory_metrics.o ABSOLUTE
    ..\..\..\..\..\..\modules\libraries\standard\common\static_memory\iot_static_memory_mqtt.c 0x00000000   Number         0  iot_static_memory_mqtt.o ABSOLUTE
    ..\..\..\..\..\..\modules\libraries\standard\common\static_memory\iot_static_memory_serializer.c 0x00000000   Number         0  iot_static_memory_serializer.o ABSOLUTE
    ..\..\..\..\..\..\modules\libraries\standard\common\static_memory\iot_static_memory_taskpool.c 0x00000000   Number         0  iot_static_memory_taskpool.o ABSOLUTE
    ..\..\..\..\..\..\modules\libraries\standard\common\taskpool\iot_taskpool.c 0x00000000   Number         0  iot_taskpool.o ABSOLUTE
    ..\..\..\..\..\..\modules\libraries\standard\common\test\aws_memory_leak.c 0x00000000   Number         0  aws_memory_leak.o ABSOLUTE
    ..\..\..\..\..\..\modules\libraries\standard\common\test\iot_test_platform_clock.c 0x00000000   Number         0  iot_test_platform_clock.o ABSOLUTE
    ..\..\..\..\..\..\modules\libraries\standard\common\test\iot_test_platform_threads.c 0x00000000   Number         0  iot_test_platform_threads.o ABSOLUTE
    ..\..\..\..\..\..\modules\libraries\standard\crypto\src\aws_crypto.c 0x00000000   Number         0  aws_crypto.o ABSOLUTE
    ..\..\..\..\..\..\modules\libraries\standard\crypto\test\aws_test_crypto.c 0x00000000   Number         0  aws_test_crypto.o ABSOLUTE
    ..\..\..\..\..\..\modules\libraries\standard\freertos_plus_posix\source\FreeRTOS_POSIX_clock.c 0x00000000   Number         0  freertos_posix_clock.o ABSOLUTE
    ..\..\..\..\..\..\modules\libraries\standard\freertos_plus_posix\source\FreeRTOS_POSIX_mqueue.c 0x00000000   Number         0  freertos_posix_mqueue.o ABSOLUTE
    ..\..\..\..\..\..\modules\libraries\standard\freertos_plus_posix\source\FreeRTOS_POSIX_pthread.c 0x00000000   Number         0  freertos_posix_pthread.o ABSOLUTE
    ..\..\..\..\..\..\modules\libraries\standard\freertos_plus_posix\source\FreeRTOS_POSIX_pthread_barrier.c 0x00000000   Number         0  freertos_posix_pthread_barrier.o ABSOLUTE
    ..\..\..\..\..\..\modules\libraries\standard\freertos_plus_posix\source\FreeRTOS_POSIX_pthread_cond.c 0x00000000   Number         0  freertos_posix_pthread_cond.o ABSOLUTE
    ..\..\..\..\..\..\modules\libraries\standard\freertos_plus_posix\source\FreeRTOS_POSIX_pthread_mutex.c 0x00000000   Number         0  freertos_posix_pthread_mutex.o ABSOLUTE
    ..\..\..\..\..\..\modules\libraries\standard\freertos_plus_posix\source\FreeRTOS_POSIX_sched.c 0x00000000   Number         0  freertos_posix_sched.o ABSOLUTE
    ..\..\..\..\..\..\modules\libraries\standard\freertos_plus_posix\source\FreeRTOS_POSIX_semaphore.c 0x00000000   Number         0  freertos_posix_semaphore.o ABSOLUTE
    ..\..\..\..\..\..\modules\libraries\standard\freertos_plus_posix\source\FreeRTOS_POSIX_timer.c 0x00000000   Number         0  freertos_posix_timer.o ABSOLUTE
    ..\..\..\..\..\..\modules\libraries\standard\freertos_plus_posix\source\FreeRTOS_POSIX_unistd.c 0x00000000   Number         0  freertos_posix_unistd.o ABSOLUTE
    ..\..\..\..\..\..\modules\libraries\standard\freertos_plus_posix\source\FreeRTOS_POSIX_utils.c 0x00000000   Number         0  freertos_posix_utils.o ABSOLUTE
    ..\..\..\..\..\..\modules\libraries\standard\freertos_plus_posix\test\aws_test_posix_clock.c 0x00000000   Number         0  aws_test_posix_clock.o ABSOLUTE
    ..\..\..\..\..\..\modules\libraries\standard\freertos_plus_posix\test\aws_test_posix_mqueue.c 0x00000000   Number         0  aws_test_posix_mqueue.o ABSOLUTE
    ..\..\..\..\..\..\modules\libraries\standard\freertos_plus_posix\test\aws_test_posix_pthread.c 0x00000000   Number         0  aws_test_posix_pthread.o ABSOLUTE
    ..\..\..\..\..\..\modules\libraries\standard\freertos_plus_posix\test\aws_test_posix_semaphore.c 0x00000000   Number         0  aws_test_posix_semaphore.o ABSOLUTE
    ..\..\..\..\..\..\modules\libraries\standard\freertos_plus_posix\test\aws_test_posix_stress.c 0x00000000   Number         0  aws_test_posix_stress.o ABSOLUTE
    ..\..\..\..\..\..\modules\libraries\standard\freertos_plus_posix\test\aws_test_posix_timer.c 0x00000000   Number         0  aws_test_posix_timer.o ABSOLUTE
    ..\..\..\..\..\..\modules\libraries\standard\freertos_plus_posix\test\aws_test_posix_unistd.c 0x00000000   Number         0  aws_test_posix_unistd.o ABSOLUTE
    ..\..\..\..\..\..\modules\libraries\standard\freertos_plus_posix\test\aws_test_posix_utils.c 0x00000000   Number         0  aws_test_posix_utils.o ABSOLUTE
    ..\..\..\..\..\..\modules\libraries\standard\metrics\src\aws_secure_sockets_wrapper_metrics.c 0x00000000   Number         0  aws_secure_sockets_wrapper_metrics.o ABSOLUTE
    ..\..\..\..\..\..\modules\libraries\standard\metrics\src\iot_metrics.c 0x00000000   Number         0  iot_metrics.o ABSOLUTE
    ..\..\..\..\..\..\modules\libraries\standard\mqtt\src\aws_mqtt_agent.c 0x00000000   Number         0  aws_mqtt_agent.o ABSOLUTE
    ..\..\..\..\..\..\modules\libraries\standard\mqtt\src\iot_mqtt_api.c 0x00000000   Number         0  iot_mqtt_api.o ABSOLUTE
    ..\..\..\..\..\..\modules\libraries\standard\mqtt\src\iot_mqtt_network.c 0x00000000   Number         0  iot_mqtt_network.o ABSOLUTE
    ..\..\..\..\..\..\modules\libraries\standard\mqtt\src\iot_mqtt_operation.c 0x00000000   Number         0  iot_mqtt_operation.o ABSOLUTE
    ..\..\..\..\..\..\modules\libraries\standard\mqtt\src\iot_mqtt_serialize.c 0x00000000   Number         0  iot_mqtt_serialize.o ABSOLUTE
    ..\..\..\..\..\..\modules\libraries\standard\mqtt\src\iot_mqtt_subscription.c 0x00000000   Number         0  iot_mqtt_subscription.o ABSOLUTE
    ..\..\..\..\..\..\modules\libraries\standard\mqtt\src\iot_mqtt_validate.c 0x00000000   Number         0  iot_mqtt_validate.o ABSOLUTE
    ..\..\..\..\..\..\modules\libraries\standard\mqtt\test\aws_test_mqtt_agent.c 0x00000000   Number         0  aws_test_mqtt_agent.o ABSOLUTE
    ..\..\..\..\..\..\modules\libraries\standard\mqtt\test\system\iot_tests_mqtt_system.c 0x00000000   Number         0  iot_tests_mqtt_system.o ABSOLUTE
    ..\..\..\..\..\..\modules\libraries\standard\mqtt\test\unit\iot_tests_mqtt_api.c 0x00000000   Number         0  iot_tests_mqtt_api.o ABSOLUTE
    ..\..\..\..\..\..\modules\libraries\standard\mqtt\test\unit\iot_tests_mqtt_receive.c 0x00000000   Number         0  iot_tests_mqtt_receive.o ABSOLUTE
    ..\..\..\..\..\..\modules\libraries\standard\mqtt\test\unit\iot_tests_mqtt_subscription.c 0x00000000   Number         0  iot_tests_mqtt_subscription.o ABSOLUTE
    ..\..\..\..\..\..\modules\libraries\standard\mqtt\test\unit\iot_tests_mqtt_validate.c 0x00000000   Number         0  iot_tests_mqtt_validate.o ABSOLUTE
    ..\..\..\..\..\..\modules\libraries\standard\provisioning\src\aws_dev_mode_key_provisioning.c 0x00000000   Number         0  aws_dev_mode_key_provisioning.o ABSOLUTE
    ..\..\..\..\..\..\modules\libraries\standard\tls\src\aws_tls.c 0x00000000   Number         0  aws_tls.o ABSOLUTE
    ..\..\..\..\..\..\modules\libraries\standard\tls\test\aws_test_tls.c 0x00000000   Number         0  aws_test_tls.o ABSOLUTE
    ..\..\..\..\..\..\modules\libraries\standard\utils\src\aws_system_init.c 0x00000000   Number         0  aws_system_init.o ABSOLUTE
    ..\..\..\..\..\..\modules\ports\pkcs11\mbedtls\aws_pkcs11_mbedtls.c 0x00000000   Number         0  aws_pkcs11_mbedtls.o ABSOLUTE
    ..\..\..\..\..\..\modules\ports\pkcs11\test\aws_test_pkcs11.c 0x00000000   Number         0  aws_test_pkcs11.o ABSOLUTE
    ..\..\..\..\..\..\modules\ports\secure_sockets\test\aws_test_tcp.c 0x00000000   Number         0  aws_test_tcp.o ABSOLUTE
    ..\..\..\..\..\..\modules\ports\wifi\test\aws_test_wifi.c 0x00000000   Number         0  aws_test_wifi.o ABSOLUTE
    ..\..\..\..\..\..\test\src\aws_test.c    0x00000000   Number         0  aws_test.o ABSOLUTE
    ..\..\..\..\..\..\test\src\aws_test_framework.c 0x00000000   Number         0  aws_test_framework.o ABSOLUTE
    ..\..\..\..\..\..\test\src\aws_test_runner.c 0x00000000   Number         0  aws_test_runner.o ABSOLUTE
    ..\..\..\..\..\..\test\src\iot_test_afr.c 0x00000000   Number         0  iot_test_afr.o ABSOLUTE
    ..\..\..\..\..\..\test\src\iot_tests_network.c 0x00000000   Number         0  iot_tests_network.o ABSOLUTE
    ..\..\..\..\..\..\vendors\nuvoton\boards\numaker_iot_m487_wifi\ports\pkcs11\aws_pkcs11_pal.c 0x00000000   Number         0  aws_pkcs11_pal.o ABSOLUTE
    ..\..\..\..\..\..\vendors\nuvoton\boards\numaker_iot_m487_wifi\ports\wifi\aws_wifi.c 0x00000000   Number         0  aws_wifi.o ABSOLUTE
    ..\..\..\..\..\..\vendors\nuvoton\sdk\Device\Nuvoton\numaker_iot_m487_wifi\Source\ARM\startup_M480.s 0x00000000   Number         0  startup_m480.o ABSOLUTE
    ..\..\..\..\..\..\vendors\nuvoton\sdk\Device\Nuvoton\numaker_iot_m487_wifi\Source\system_M480.c 0x00000000   Number         0  system_m480.o ABSOLUTE
    ..\..\..\..\..\..\vendors\nuvoton\sdk\StdDriver\src\clk.c 0x00000000   Number         0  clk.o ABSOLUTE
    ..\..\..\..\..\..\vendors\nuvoton\sdk\StdDriver\src\crypto.c 0x00000000   Number         0  crypto.o ABSOLUTE
    ..\..\..\..\..\..\vendors\nuvoton\sdk\StdDriver\src\fmc.c 0x00000000   Number         0  fmc.o ABSOLUTE
    ..\..\..\..\..\..\vendors\nuvoton\sdk\StdDriver\src\retarget.c 0x00000000   Number         0  retarget.o ABSOLUTE
    ..\..\..\..\..\..\vendors\nuvoton\sdk\StdDriver\src\sys.c 0x00000000   Number         0  sys.o ABSOLUTE
    ..\..\..\..\..\..\vendors\nuvoton\sdk\StdDriver\src\uart.c 0x00000000   Number         0  uart.o ABSOLUTE
    ..\..\..\..\..\..\vendors\nuvoton\sdk\middleware\wifi_esp8266\esp8266_wifi.c 0x00000000   Number         0  esp8266_wifi.o ABSOLUTE
    ..\..\ports\secure_sockets\aws_secure_sockets.c 0x00000000   Number         0  aws_secure_sockets.o ABSOLUTE
    ..\\..\\..\\..\\..\\..\\freertos_kernel\\portable\\RVDS\\ARM_CM4F\\port.c 0x00000000   Number         0  port.o ABSOLUTE
    ..\\..\\..\\..\\..\\..\\vendors\\nuvoton\\boards\\numaker_iot_m487_wifi\\ports\\pkcs11\\aws_pkcs11_pal.c 0x00000000   Number         0  aws_pkcs11_pal.o ABSOLUTE
    ..\\..\\..\\..\\..\\..\\vendors\\nuvoton\\boards\\numaker_iot_m487_wifi\\ports\\wifi\\aws_wifi.c 0x00000000   Number         0  aws_wifi.o ABSOLUTE
    ..\\..\\..\\..\\..\\..\\vendors\\nuvoton\\sdk\\Device\\Nuvoton\\numaker_iot_m487_wifi\\Source\\system_M480.c 0x00000000   Number         0  system_m480.o ABSOLUTE
    ..\\..\\..\\..\\..\\..\\vendors\\nuvoton\\sdk\\StdDriver\\src\\clk.c 0x00000000   Number         0  clk.o ABSOLUTE
    ..\\..\\..\\..\\..\\..\\vendors\\nuvoton\\sdk\\StdDriver\\src\\crypto.c 0x00000000   Number         0  crypto.o ABSOLUTE
    ..\\..\\..\\..\\..\\..\\vendors\\nuvoton\\sdk\\StdDriver\\src\\fmc.c 0x00000000   Number         0  fmc.o ABSOLUTE
    ..\\..\\..\\..\\..\\..\\vendors\\nuvoton\\sdk\\StdDriver\\src\\retarget.c 0x00000000   Number         0  retarget.o ABSOLUTE
    ..\\..\\..\\..\\..\\..\\vendors\\nuvoton\\sdk\\StdDriver\\src\\sys.c 0x00000000   Number         0  sys.o ABSOLUTE
    ..\\..\\..\\..\\..\\..\\vendors\\nuvoton\\sdk\\StdDriver\\src\\uart.c 0x00000000   Number         0  uart.o ABSOLUTE
    ..\\..\\..\\..\\..\\..\\vendors\\nuvoton\\sdk\\middleware\\wifi_esp8266\\esp8266_wifi.c 0x00000000   Number         0  esp8266_wifi.o ABSOLUTE
    ..\\..\\ports\\secure_sockets\\aws_secure_sockets.c 0x00000000   Number         0  aws_secure_sockets.o ABSOLUTE
    ..\\common\\application_code\\main.c     0x00000000   Number         0  main.o ABSOLUTE
    ..\\common\\application_code\\nuvoton_code\\entropy_hardware_poll.c 0x00000000   Number         0  entropy_hardware_poll.o ABSOLUTE
    ..\common\application_code\main.c        0x00000000   Number         0  main.o ABSOLUTE
    ..\common\application_code\nuvoton_code\entropy_hardware_poll.c 0x00000000   Number         0  entropy_hardware_poll.o ABSOLUTE
    cdrcmple.s                               0x00000000   Number         0  cdrcmple.o ABSOLUTE
    dc.s                                     0x00000000   Number         0  dc.o ABSOLUTE
    handlers.s                               0x00000000   Number         0  handlers.o ABSOLUTE
    init.s                                   0x00000000   Number         0  init.o ABSOLUTE
    .ARM.Collect$$$$00000000                 0x000001b8   Section        0  entry.o(.ARM.Collect$$$$00000000)
    .ARM.Collect$$$$00000001                 0x000001b8   Section        4  entry2.o(.ARM.Collect$$$$00000001)
    .ARM.Collect$$$$00000004                 0x000001bc   Section        4  entry5.o(.ARM.Collect$$$$00000004)
    .ARM.Collect$$$$00000008                 0x000001c0   Section        0  entry7b.o(.ARM.Collect$$$$00000008)
    .ARM.Collect$$$$0000000A                 0x000001c0   Section        0  entry8b.o(.ARM.Collect$$$$0000000A)
    .ARM.Collect$$$$0000000B                 0x000001c0   Section        8  entry9a.o(.ARM.Collect$$$$0000000B)
    .ARM.Collect$$$$0000000D                 0x000001c8   Section        0  entry10a.o(.ARM.Collect$$$$0000000D)
    .ARM.Collect$$$$0000000F                 0x000001c8   Section        0  entry11a.o(.ARM.Collect$$$$0000000F)
    .ARM.Collect$$$$00002712                 0x000001c8   Section        4  entry2.o(.ARM.Collect$$$$00002712)
    __lit__00000000                          0x000001c8   Data           4  entry2.o(.ARM.Collect$$$$00002712)
    .emb_text                                0x000001cc   Section      190  port.o(.emb_text)
    $v0                                      0x000001cc   Number         0  port.o(.emb_text)
    .emb_text                                0x0000028c   Section       28  retarget.o(.emb_text)
    $v0                                      0x0000028c   Number         0  retarget.o(.emb_text)
    .text                                    0x000002a8   Section      104  startup_m480.o(.text)
    $v0                                      0x000002a8   Number         0  startup_m480.o(.text)
    Default_Handler                          0x000002fb   Thumb Code     2  startup_m480.o(.text)
    .text                                    0x00000310   Section        0  system_m480.o(.text)
    .text                                    0x00000438   Section        0  entropy_hardware_poll.o(.text)
    trng_get                                 0x00000585   Thumb Code   152  entropy_hardware_poll.o(.text)
    get_adc_bg_val                           0x00000675   Thumb Code    34  entropy_hardware_poll.o(.text)
    .text                                    0x000006c4   Section        0  main.o(.text)
    prvSetupHardware                         0x000006c5   Thumb Code   222  main.o(.text)
    prvMiscInitialization                    0x000007a3   Thumb Code    20  main.o(.text)
    prvWifiConnect                           0x000007cb   Thumb Code   130  main.o(.text)
    .text                                    0x00000a4c   Section        0  event_groups.o(.text)
    prvTestWaitCondition                     0x00000c3d   Thumb Code    30  event_groups.o(.text)
    .text                                    0x00000e62   Section        0  list.o(.text)
    .text                                    0x00000ef8   Section        0  queue.o(.text)
    prvInitialiseNewQueue                    0x00000f7d   Thumb Code    42  queue.o(.text)
    prvUnlockQueue                           0x00001093   Thumb Code   126  queue.o(.text)
    prvIsQueueFull                           0x00001111   Thumb Code    30  queue.o(.text)
    prvCopyDataToQueue                       0x0000112f   Thumb Code   126  queue.o(.text)
    prvInitialiseMutex                       0x00001323   Thumb Code    30  queue.o(.text)
    prvGetDisinheritPriorityAfterTimeout     0x000013ff   Thumb Code    20  queue.o(.text)
    prvIsQueueEmpty                          0x00001413   Thumb Code    26  queue.o(.text)
    prvCopyDataFromQueue                     0x000017fd   Thumb Code    42  queue.o(.text)
    .text                                    0x00001d70   Section        0  tasks.o(.text)
    prvInitialiseTaskLists                   0x00001d71   Thumb Code    70  tasks.o(.text)
    prvAddNewTaskToReadyList                 0x00001db7   Thumb Code   156  tasks.o(.text)
    prvInitialiseNewTask                     0x00001e53   Thumb Code   178  tasks.o(.text)
    prvResetNextTaskUnblockTime              0x00001ff7   Thumb Code    42  tasks.o(.text)
    prvDeleteTCB                             0x00002021   Thumb Code    66  tasks.o(.text)
    prvAddCurrentTaskToDelayedList           0x00002361   Thumb Code   124  tasks.o(.text)
    prvTaskIsTaskSuspended                   0x00002845   Thumb Code    68  tasks.o(.text)
    prvCheckTasksWaitingTermination          0x0000298b   Thumb Code    60  tasks.o(.text)
    prvIdleTask                              0x000029c7   Thumb Code    94  tasks.o(.text)
    prvTaskCheckFreeStackSpace               0x00002b0f   Thumb Code    22  tasks.o(.text)
    prvListTasksWithinSingleList             0x00002ba3   Thumb Code   106  tasks.o(.text)
    .text                                    0x0000367c   Section        0  timers.o(.text)
    prvInsertTimerInActiveList               0x0000367d   Thumb Code    80  timers.o(.text)
    prvSwitchTimerLists                      0x0000373d   Thumb Code   140  timers.o(.text)
    prvSampleTimeNow                         0x000037c9   Thumb Code    40  timers.o(.text)
    prvProcessReceivedCommands               0x000037f1   Thumb Code   278  timers.o(.text)
    prvProcessExpiredTimer                   0x00003907   Thumb Code    96  timers.o(.text)
    prvProcessTimerOrBlockTask               0x00003967   Thumb Code   102  timers.o(.text)
    prvGetNextExpireTime                     0x000039cd   Thumb Code    36  timers.o(.text)
    prvTimerTask                             0x000039f1   Thumb Code    30  timers.o(.text)
    prvCheckForValidListAndQueue             0x00003a0f   Thumb Code    78  timers.o(.text)
    prvInitialiseNewTimer                    0x00003af7   Thumb Code    76  timers.o(.text)
    .text                                    0x00003cdc   Section        0  port.o(.text)
    prvTaskExitError                         0x00003cdd   Thumb Code    46  port.o(.text)
    .text                                    0x00003f9c   Section        0  heap_4.o(.text)
    prvInsertBlockIntoFreeList               0x00003f9d   Thumb Code    96  heap_4.o(.text)
    prvHeapInit                              0x00003ffd   Thumb Code    98  heap_4.o(.text)
    .text                                    0x00004200   Section        0  retarget.o(.text)
    stackDump                                0x00004201   Thumb Code    70  retarget.o(.text)
    __tagsym$$used                           0x00004247   Number         0  retarget.o(.text)
    SendChar_ToUART                          0x00004259   Thumb Code    44  retarget.o(.text)
    SendChar                                 0x00004285   Thumb Code    12  retarget.o(.text)
    GetChar                                  0x00004291   Thumb Code    22  retarget.o(.text)
    .text                                    0x00004364   Section        0  clk.o(.text)
    .text                                    0x00004b14   Section        0  crypto.o(.text)
    dump_ecc_reg                             0x00004d75   Thumb Code     2  crypto.o(.text)
    ch2hex                                   0x00004d77   Thumb Code    36  crypto.o(.text)
    Hex2Reg                                  0x00004d9b   Thumb Code    78  crypto.o(.text)
    Hex2RegEx                                0x00004de9   Thumb Code   106  crypto.o(.text)
    get_Nth_nibble_char                      0x00004e53   Thumb Code    18  crypto.o(.text)
    Reg2Hex                                  0x00004e65   Thumb Code    60  crypto.o(.text)
    get_curve                                0x00004ea1   Thumb Code    70  crypto.o(.text)
    ecc_init_curve                           0x00004ee7   Thumb Code   594  crypto.o(.text)
    get_nibble_value                         0x00005139   Thumb Code    44  crypto.o(.text)
    ecc_strcmp                               0x00005165   Thumb Code    98  crypto.o(.text)
    run_ecc_codec                            0x000055b1   Thumb Code   116  crypto.o(.text)
    .text                                    0x00005c08   Section        0  fmc.o(.text)
    .text                                    0x000063b8   Section        0  sys.o(.text)
    .text                                    0x00006494   Section        0  uart.o(.text)
    .text                                    0x00006958   Section        0  aws_test.o(.text)
    .text                                    0x00006988   Section        0  aws_test_runner.o(.text)
    RunTests                                 0x00006989   Thumb Code     8  aws_test_runner.o(.text)
    .text                                    0x000069f8   Section        0  iot_test_afr.o(.text)
    .text                                    0x00006a58   Section        0  aws_wifi.o(.text)
    .text                                    0x00006e08   Section        0  esp8266_wifi.o(.text)
    ParseIpAddr                              0x00006ea5   Thumb Code    54  esp8266_wifi.o(.text)
    ParseMacAddr                             0x00006edb   Thumb Code    58  esp8266_wifi.o(.text)
    ParseApDetail                            0x00006f15   Thumb Code   168  esp8266_wifi.o(.text)
    AT_ParseAddress                          0x00006fbd   Thumb Code   174  esp8266_wifi.o(.text)
    AT_ParseAccessPoint                      0x0000706b   Thumb Code    98  esp8266_wifi.o(.text)
    ESP_AT_Command                           0x00007527   Thumb Code   128  esp8266_wifi.o(.text)
    .text                                    0x000082e4   Section        0  aws_crypto.o(.text)
    prvCalloc                                0x000082e5   Thumb Code    32  aws_crypto.o(.text)
    prvVerifySignature                       0x00008305   Thumb Code   112  aws_crypto.o(.text)
    .text                                    0x00008490   Section        0  aws_pkcs11_mbedtls.o(.text)
    .text                                    0x00008ffc   Section        0  aws_pkcs11_pal.o(.text)
    prvFLASH_update                          0x00008ffd   Thumb Code   118  aws_pkcs11_pal.o(.text)
    prvLabelToFilenameHandle                 0x00009073   Thumb Code   108  aws_pkcs11_pal.o(.text)
    prvFLASH_SaveFile                        0x000090df   Thumb Code   188  aws_pkcs11_pal.o(.text)
    prvFLASH_ReadFile                        0x0000919b   Thumb Code   102  aws_pkcs11_pal.o(.text)
    .text                                    0x00009374   Section        0  aws_secure_sockets.o(.text)
    prvGetFreeSocket                         0x00009375   Thumb Code    96  aws_secure_sockets.o(.text)
    prvReturnSocket                          0x000093d5   Thumb Code    54  aws_secure_sockets.o(.text)
    prvIsValidSocket                         0x0000940b   Thumb Code    66  aws_secure_sockets.o(.text)
    prvNetworkSend                           0x0000944d   Thumb Code   148  aws_secure_sockets.o(.text)
    prvNetworkRecv                           0x000094e1   Thumb Code   166  aws_secure_sockets.o(.text)
    .text                                    0x00009ba8   Section        0  aws_test_tcp.o(.text)
    prvTcpSocketHelper                       0x00009bdf   Thumb Code    28  aws_test_tcp.o(.text)
    prvSecureConnectHelper                   0x00009bfb   Thumb Code    88  aws_test_tcp.o(.text)
    prvNonSecureConnectHelper                0x00009c53   Thumb Code    24  aws_test_tcp.o(.text)
    prvAwsIotBrokerConnectHelper             0x00009c6b   Thumb Code    68  aws_test_tcp.o(.text)
    prvConnectHelper                         0x00009caf   Thumb Code   172  aws_test_tcp.o(.text)
    prvSetSockOptHelper                      0x00009d5b   Thumb Code    70  aws_test_tcp.o(.text)
    prvConnectHelperWithRetry                0x00009da1   Thumb Code   190  aws_test_tcp.o(.text)
    prvSendHelper                            0x00009e5f   Thumb Code    72  aws_test_tcp.o(.text)
    prvRecvHelper                            0x00009ea7   Thumb Code    86  aws_test_tcp.o(.text)
    prvShutdownHelper                        0x00009efd   Thumb Code    46  aws_test_tcp.o(.text)
    prvCloseHelper                           0x00009f2b   Thumb Code    22  aws_test_tcp.o(.text)
    prvCreateTxData                          0x00009f41   Thumb Code    68  aws_test_tcp.o(.text)
    prvCheckRxTxBuffers                      0x00009f85   Thumb Code   666  aws_test_tcp.o(.text)
    prvCheckBufferUnmodified                 0x0000a21f   Thumb Code    48  aws_test_tcp.o(.text)
    prvCheckTimeout                          0x0000a24f   Thumb Code    64  aws_test_tcp.o(.text)
    prvTwoSecureConnections                  0x0000a3c7   Thumb Code  1316  aws_test_tcp.o(.text)
    prvNonBlockingConnect                    0x0000a91d   Thumb Code    78  aws_test_tcp.o(.text)
    prvTriggerWrongRootCA                    0x0000a99d   Thumb Code   222  aws_test_tcp.o(.text)
    prvRecv_Invalid                          0x0000aaad   Thumb Code   148  aws_test_tcp.o(.text)
    prvSend_Invalid                          0x0000ab75   Thumb Code  1156  aws_test_tcp.o(.text)
    prvSOCKETS_SendRecv_VaryLength           0x0000b029   Thumb Code   302  aws_test_tcp.o(.text)
    prvTestSOCKETS_Recv_ByteByByte           0x0000b187   Thumb Code   278  aws_test_tcp.o(.text)
    prvTestSOCKETS_Close                     0x0000b2cd   Thumb Code   980  aws_test_tcp.o(.text)
    prvSOCKETS_Shutdown                      0x0000b6d1   Thumb Code   388  aws_test_tcp.o(.text)
    prvSetSockOpt_InvalidParams              0x0000b885   Thumb Code   480  aws_test_tcp.o(.text)
    prvSOCKETS_NonBlocking_Test              0x0000ba95   Thumb Code   424  aws_test_tcp.o(.text)
    prvSOCKETS_SetSockOpt_RCVTIMEO           0x0000bc6d   Thumb Code   290  aws_test_tcp.o(.text)
    prvThreadSafeDifferentSocketsDifferentTasks 0x0000bdbf   Thumb Code   802  aws_test_tcp.o(.text)
    prvConnect_InvalidAddressLength          0x0000c219   Thumb Code   194  aws_test_tcp.o(.text)
    prvSOCKETS_Connect_InvalidParams         0x0000c315   Thumb Code   852  aws_test_tcp.o(.text)
    prvServerDomainName                      0x0000c699   Thumb Code   408  aws_test_tcp.o(.text)
    prvTrustedServerCertificate              0x0000c85f   Thumb Code   258  aws_test_tcp.o(.text)
    prvEchoClientTxTask                      0x0000c98f   Thumb Code   682  aws_test_tcp.o(.text)
    prvSOCKETS_Threadsafe_SameSocketDifferentTasks 0x0000cc39   Thumb Code   524  aws_test_tcp.o(.text)
    prvSOCKETS_Recv_On_Unconnected_Socket    0x0000ce75   Thumb Code   618  aws_test_tcp.o(.text)
    prvSOCKETS_ShutdownWithoutReceiving      0x0000d10f   Thumb Code   146  aws_test_tcp.o(.text)
    prvSOCKETS_ShutdownInvalidParams         0x0000d1d1   Thumb Code   190  aws_test_tcp.o(.text)
    prvSOCKETS_CloseWithoutReceiving         0x0000d2bf   Thumb Code   114  aws_test_tcp.o(.text)
    prvSOCKETS_CloseInvalidParams            0x0000d361   Thumb Code    38  aws_test_tcp.o(.text)
    prvSOCKETS_Socket_InvalidInputParams     0x0000d83d   Thumb Code   358  aws_test_tcp.o(.text)
    prvSOCKETS_Socket_InvalidTooManySockets  0x0000d9d3   Thumb Code   114  aws_test_tcp.o(.text)
    prvSOCKETS_Socket_TCP                    0x0000dfd5   Thumb Code    68  aws_test_tcp.o(.text)
    prvSOCKETS_SetSockOpt_SNDTIMEO           0x0000e6b3   Thumb Code    16  aws_test_tcp.o(.text)
    .text                                    0x0000e86c   Section        0  aws_tls.o(.text)
    prvFreeContext                           0x0000e86d   Thumb Code    62  aws_tls.o(.text)
    prvNetworkSend                           0x0000e8ab   Thumb Code    26  aws_tls.o(.text)
    prvNetworkRecv                           0x0000e8c5   Thumb Code    26  aws_tls.o(.text)
    prvGenerateRandomBytes                   0x0000e8df   Thumb Code    50  aws_tls.o(.text)
    prvCheckCertificate                      0x0000e911   Thumb Code   156  aws_tls.o(.text)
    prvPrivateKeySigningCallback             0x0000e9ad   Thumb Code    94  aws_tls.o(.text)
    prvInitializeClientCredential            0x0000ea0b   Thumb Code   516  aws_tls.o(.text)
    .text                                    0x0000f094   Section        0  aws_system_init.o(.text)
    .text                                    0x0000f0a4   Section        0  aes.o(.text)
    .text                                    0x00010454   Section        0  asn1parse.o(.text)
    .text                                    0x000108dc   Section        0  asn1write.o(.text)
    .text                                    0x00010f38   Section        0  base64.o(.text)
    .text                                    0x000112ac   Section        0  bignum.o(.text)
    mbedtls_mpi_zeroize                      0x000112ad   Thumb Code    16  bignum.o(.text)
    mbedtls_clz                              0x0001168d   Thumb Code    30  bignum.o(.text)
    mpi_get_digit                            0x000116f3   Thumb Code    64  bignum.o(.text)
    mpi_sub_hlp                              0x00011825   Thumb Code    98  bignum.o(.text)
    mpi_mul_hlp                              0x00011afd   Thumb Code  1584  bignum.o(.text)
    mbedtls_int_div_int                      0x000125f5   Thumb Code   104  bignum.o(.text)
    mpi_write_hlp                            0x00012ae9   Thumb Code   136  bignum.o(.text)
    mpi_montg_init                           0x00012e29   Thumb Code    50  bignum.o(.text)
    mpi_montmul                              0x00012e5b   Thumb Code   204  bignum.o(.text)
    mpi_montred                              0x00012f27   Thumb Code    44  bignum.o(.text)
    mpi_check_small_factors                  0x0001399f   Thumb Code    98  bignum.o(.text)
    mpi_miller_rabin                         0x00013a01   Thumb Code   606  bignum.o(.text)
    .text                                    0x00014224   Section        0  cipher.o(.text)
    mbedtls_constant_time_memcmp             0x00014225   Thumb Code    36  cipher.o(.text)
    get_no_padding                           0x00014317   Thumb Code    16  cipher.o(.text)
    get_zeros_padding                        0x00014327   Thumb Code    68  cipher.o(.text)
    add_zeros_padding                        0x0001436b   Thumb Code    20  cipher.o(.text)
    get_zeros_and_len_padding                0x0001437f   Thumb Code   102  cipher.o(.text)
    add_zeros_and_len_padding                0x000143e5   Thumb Code    32  cipher.o(.text)
    get_one_and_zeros_padding                0x00014405   Thumb Code   122  cipher.o(.text)
    add_one_and_zeros_padding                0x0001447f   Thumb Code    32  cipher.o(.text)
    get_pkcs_padding                         0x0001449f   Thumb Code   102  cipher.o(.text)
    add_pkcs_padding                         0x00014505   Thumb Code    24  cipher.o(.text)
    mbedtls_cipher_get_block_size            0x00014bf3   Thumb Code    18  cipher.o(.text)
    .text                                    0x00014c0c   Section        0  cipher_wrap.o(.text)
    gcm_ctx_alloc                            0x00014c0d   Thumb Code    26  cipher_wrap.o(.text)
    gcm_ctx_free                             0x00014c27   Thumb Code    18  cipher_wrap.o(.text)
    aes_crypt_ecb_wrap                       0x00014c39   Thumb Code    28  cipher_wrap.o(.text)
    aes_crypt_cbc_wrap                       0x00014c55   Thumb Code    36  cipher_wrap.o(.text)
    aes_crypt_cfb128_wrap                    0x00014c79   Thumb Code    40  cipher_wrap.o(.text)
    aes_crypt_ctr_wrap                       0x00014ca1   Thumb Code    40  cipher_wrap.o(.text)
    aes_setkey_dec_wrap                      0x00014cc9   Thumb Code    20  cipher_wrap.o(.text)
    aes_setkey_enc_wrap                      0x00014cdd   Thumb Code    20  cipher_wrap.o(.text)
    aes_ctx_alloc                            0x00014cf1   Thumb Code    30  cipher_wrap.o(.text)
    aes_ctx_free                             0x00014d0f   Thumb Code    18  cipher_wrap.o(.text)
    gcm_aes_setkey_wrap                      0x00014d21   Thumb Code    22  cipher_wrap.o(.text)
    .text                                    0x00014d38   Section        0  ctr_drbg.o(.text)
    ctr_drbg_update_internal                 0x00014d53   Thumb Code   154  ctr_drbg.o(.text)
    block_cipher_df                          0x00014ded   Thumb Code   368  ctr_drbg.o(.text)
    ctr_drbg_self_test_entropy               0x0001521f   Thumb Code    42  ctr_drbg.o(.text)
    .text                                    0x00015408   Section        0  ecdh.o(.text)
    .text                                    0x0001570c   Section        0  ecdsa.o(.text)
    derive_mpi                               0x0001570d   Thumb Code   132  ecdsa.o(.text)
    ecdsa_signature_to_asn1                  0x00015aff   Thumb Code   154  ecdsa.o(.text)
    .text                                    0x00015d30   Section        0  ecp.o(.text)
    ecp_get_type                             0x00015dd3   Thumb Code    22  ecp.o(.text)
    ecp_modp                                 0x000162bd   Thumb Code   152  ecp.o(.text)
    ecp_normalize_jac                        0x00016355   Thumb Code   314  ecp.o(.text)
    ecp_normalize_jac_many                   0x0001648f   Thumb Code   774  ecp.o(.text)
    ecp_safe_invert_jac                      0x00016795   Thumb Code   100  ecp.o(.text)
    ecp_double_jac                           0x000167f9   Thumb Code  1532  ecp.o(.text)
    ecp_add_mixed                            0x00016df5   Thumb Code  1378  ecp.o(.text)
    ecp_randomize_jac                        0x00017357   Thumb Code   434  ecp.o(.text)
    ecp_comb_fixed                           0x00017509   Thumb Code   150  ecp.o(.text)
    ecp_precompute_comb                      0x0001759f   Thumb Code   294  ecp.o(.text)
    ecp_select_comb                          0x000176c5   Thumb Code   146  ecp.o(.text)
    ecp_mul_comb_core                        0x00017757   Thumb Code   202  ecp.o(.text)
    ecp_mul_comb                             0x00017821   Thumb Code   472  ecp.o(.text)
    ecp_check_pubkey_sw                      0x000179f9   Thumb Code   444  ecp.o(.text)
    mbedtls_ecp_mul_shortcuts                0x00017c91   Thumb Code   140  ecp.o(.text)
    .text                                    0x00018280   Section        0  ecp_curves.o(.text)
    ecp_group_load                           0x00018281   Thumb Code   136  ecp_curves.o(.text)
    sub32                                    0x00018309   Thumb Code    32  ecp_curves.o(.text)
    add32                                    0x00018329   Thumb Code    32  ecp_curves.o(.text)
    ecp_mod_p256                             0x00018349   Thumb Code  1232  ecp_curves.o(.text)
    ecp_mpi_load                             0x00018869   Thumb Code    12  ecp_curves.o(.text)
    .text                                    0x00018890   Section        0  entropy.o(.text)
    entropy_update                           0x0001897f   Thumb Code   134  entropy.o(.text)
    entropy_gather_internal                  0x00018a47   Thumb Code   172  entropy.o(.text)
    entropy_dummy_source                     0x00018c5d   Thumb Code    30  entropy.o(.text)
    mbedtls_entropy_source_self_test_gather  0x00018c7b   Thumb Code    90  entropy.o(.text)
    mbedtls_entropy_source_self_test_check_bits 0x00018cd5   Thumb Code    42  entropy.o(.text)
    .text                                    0x00018eb0   Section        0  gcm.o(.text)
    gcm_gen_table                            0x00018ec1   Thumb Code   404  gcm.o(.text)
    gcm_mult                                 0x000190c5   Thumb Code   448  gcm.o(.text)
    .text                                    0x00019c94   Section        0  md.o(.text)
    .text                                    0x0001a0ac   Section        0  md_wrap.o(.text)
    sha1_starts_wrap                         0x0001a0ad   Thumb Code    12  md_wrap.o(.text)
    sha1_update_wrap                         0x0001a0b9   Thumb Code    20  md_wrap.o(.text)
    sha1_finish_wrap                         0x0001a0cd   Thumb Code    16  md_wrap.o(.text)
    sha1_ctx_alloc                           0x0001a0dd   Thumb Code    24  md_wrap.o(.text)
    sha1_clone_wrap                          0x0001a0f5   Thumb Code    16  md_wrap.o(.text)
    sha1_ctx_free                            0x0001a105   Thumb Code    18  md_wrap.o(.text)
    sha1_process_wrap                        0x0001a117   Thumb Code    16  md_wrap.o(.text)
    sha224_starts_wrap                       0x0001a127   Thumb Code    14  md_wrap.o(.text)
    sha224_update_wrap                       0x0001a135   Thumb Code    20  md_wrap.o(.text)
    sha224_finish_wrap                       0x0001a149   Thumb Code    16  md_wrap.o(.text)
    sha224_wrap                              0x0001a159   Thumb Code    22  md_wrap.o(.text)
    sha224_ctx_alloc                         0x0001a16f   Thumb Code    24  md_wrap.o(.text)
    sha224_ctx_free                          0x0001a187   Thumb Code    18  md_wrap.o(.text)
    sha224_clone_wrap                        0x0001a199   Thumb Code    16  md_wrap.o(.text)
    sha224_process_wrap                      0x0001a1a9   Thumb Code    16  md_wrap.o(.text)
    sha256_starts_wrap                       0x0001a1b9   Thumb Code    14  md_wrap.o(.text)
    sha256_wrap                              0x0001a1c7   Thumb Code    22  md_wrap.o(.text)
    .text                                    0x0001a1dc   Section        0  oid.o(.text)
    oid_x520_attr_from_asn1                  0x0001a1dd   Thumb Code    56  oid.o(.text)
    oid_x509_ext_from_asn1                   0x0001a233   Thumb Code    56  oid.o(.text)
    oid_ext_key_usage_from_asn1              0x0001a289   Thumb Code    56  oid.o(.text)
    oid_sig_alg_from_asn1                    0x0001a2df   Thumb Code    56  oid.o(.text)
    oid_pk_alg_from_asn1                     0x0001a38d   Thumb Code    56  oid.o(.text)
    oid_grp_id_from_asn1                     0x0001a40d   Thumb Code    56  oid.o(.text)
    oid_cipher_alg_from_asn1                 0x0001a48d   Thumb Code    56  oid.o(.text)
    oid_md_alg_from_asn1                     0x0001a4e3   Thumb Code    56  oid.o(.text)
    oid_md_hmac_from_asn1                    0x0001a563   Thumb Code    56  oid.o(.text)
    .text                                    0x0001a6a8   Section        0  pem.o(.text)
    .text                                    0x0001a830   Section        0  pk.o(.text)
    pk_hashlen_helper                        0x0001a909   Thumb Code    40  pk.o(.text)
    .text                                    0x0001ab7c   Section        0  pk_wrap.o(.text)
    rsa_can_do                               0x0001ab7d   Thumb Code    18  pk_wrap.o(.text)
    rsa_get_bitlen                           0x0001ab8f   Thumb Code    16  pk_wrap.o(.text)
    rsa_verify_wrap                          0x0001ab9f   Thumb Code    82  pk_wrap.o(.text)
    rsa_sign_wrap                            0x0001abf1   Thumb Code    60  pk_wrap.o(.text)
    rsa_decrypt_wrap                         0x0001ac2d   Thumb Code    64  pk_wrap.o(.text)
    rsa_encrypt_wrap                         0x0001ac6d   Thumb Code    70  pk_wrap.o(.text)
    rsa_check_pair_wrap                      0x0001acb3   Thumb Code    16  pk_wrap.o(.text)
    rsa_alloc_wrap                           0x0001acc3   Thumb Code    28  pk_wrap.o(.text)
    rsa_free_wrap                            0x0001acdf   Thumb Code    18  pk_wrap.o(.text)
    rsa_debug                                0x0001acf1   Thumb Code    32  pk_wrap.o(.text)
    eckey_can_do                             0x0001ad11   Thumb Code    22  pk_wrap.o(.text)
    eckey_get_bitlen                         0x0001ad27   Thumb Code     6  pk_wrap.o(.text)
    ecdsa_verify_wrap                        0x0001ad2d   Thumb Code    50  pk_wrap.o(.text)
    eckey_verify_wrap                        0x0001ad5f   Thumb Code    70  pk_wrap.o(.text)
    ecdsa_sign_wrap                          0x0001ada5   Thumb Code    42  pk_wrap.o(.text)
    eckey_sign_wrap                          0x0001adcf   Thumb Code    72  pk_wrap.o(.text)
    eckey_check_pair                         0x0001ae17   Thumb Code    16  pk_wrap.o(.text)
    eckey_alloc_wrap                         0x0001ae27   Thumb Code    24  pk_wrap.o(.text)
    eckey_free_wrap                          0x0001ae3f   Thumb Code    18  pk_wrap.o(.text)
    eckey_debug                              0x0001ae51   Thumb Code    16  pk_wrap.o(.text)
    eckeydh_can_do                           0x0001ae61   Thumb Code    18  pk_wrap.o(.text)
    ecdsa_can_do                             0x0001ae73   Thumb Code    14  pk_wrap.o(.text)
    ecdsa_alloc_wrap                         0x0001ae81   Thumb Code    24  pk_wrap.o(.text)
    ecdsa_free_wrap                          0x0001ae99   Thumb Code    18  pk_wrap.o(.text)
    rsa_alt_can_do                           0x0001aeab   Thumb Code    12  pk_wrap.o(.text)
    rsa_alt_get_bitlen                       0x0001aeb7   Thumb Code    16  pk_wrap.o(.text)
    rsa_alt_sign_wrap                        0x0001aec7   Thumb Code    60  pk_wrap.o(.text)
    rsa_alt_decrypt_wrap                     0x0001af03   Thumb Code    56  pk_wrap.o(.text)
    rsa_alt_check_pair                       0x0001af3b   Thumb Code   154  pk_wrap.o(.text)
    rsa_alt_alloc_wrap                       0x0001afd5   Thumb Code    26  pk_wrap.o(.text)
    rsa_alt_free_wrap                        0x0001afef   Thumb Code    20  pk_wrap.o(.text)
    .text                                    0x0001b004   Section        0  pkparse.o(.text)
    pk_get_ecparams                          0x0001b005   Thumb Code    92  pkparse.o(.text)
    pk_use_ecparams                          0x0001b061   Thumb Code    74  pkparse.o(.text)
    pk_get_ecpubkey                          0x0001b0ab   Thumb Code    50  pkparse.o(.text)
    pk_get_rsapubkey                         0x0001b0dd   Thumb Code   222  pkparse.o(.text)
    pk_get_pk_alg                            0x0001b1bb   Thumb Code    92  pkparse.o(.text)
    pk_parse_key_pkcs1_der                   0x0001b31f   Thumb Code   496  pkparse.o(.text)
    pk_parse_key_sec1_der                    0x0001b50f   Thumb Code   414  pkparse.o(.text)
    pk_parse_key_pkcs8_unencrypted_der       0x0001b6ad   Thumb Code   304  pkparse.o(.text)
    .text                                    0x0001bc80   Section        0  pkwrite.o(.text)
    pk_write_rsa_pubkey                      0x0001bc81   Thumb Code   172  pkwrite.o(.text)
    pk_write_ec_pubkey                       0x0001bd2d   Thumb Code    90  pkwrite.o(.text)
    pk_write_ec_param                        0x0001bd87   Thumb Code    62  pkwrite.o(.text)
    .text                                    0x0001c280   Section        0  platform.o(.text)
    .text                                    0x0001c2c0   Section        0  rsa.o(.text)
    mbedtls_safer_memcmp                     0x0001c2c1   Thumb Code    36  rsa.o(.text)
    rsa_check_context                        0x0001c431   Thumb Code   198  rsa.o(.text)
    rsa_prepare_blinding                     0x0001cdc5   Thumb Code   266  rsa.o(.text)
    rsa_rsassa_pkcs1_v15_encode              0x0001d4cf   Thumb Code   336  rsa.o(.text)
    myrand                                   0x0001d96d   Thumb Code    36  rsa.o(.text)
    .text                                    0x0001dcdc   Section        0  rsa_internal.o(.text)
    .text                                    0x0001e414   Section        0  sha1.o(.text)
    .text                                    0x0001fd54   Section        0  sha256.o(.text)
    .text                                    0x00020fd8   Section        0  ssl_ciphersuites.o(.text)
    .text                                    0x00021120   Section        0  ssl_cli.o(.text)
    mbedtls_ssl_own_key                      0x00021121   Thumb Code    36  ssl_cli.o(.text)
    ssl_write_hostname_ext                   0x00021145   Thumb Code   146  ssl_cli.o(.text)
    ssl_write_signature_algorithms_ext       0x000211d7   Thumb Code   196  ssl_cli.o(.text)
    ssl_write_supported_elliptic_curves_ext  0x0002129b   Thumb Code   190  ssl_cli.o(.text)
    ssl_write_supported_point_formats_ext    0x00021359   Thumb Code    82  ssl_cli.o(.text)
    ssl_write_max_fragment_length_ext        0x000213ab   Thumb Code    98  ssl_cli.o(.text)
    ssl_write_encrypt_then_mac_ext           0x0002140d   Thumb Code    90  ssl_cli.o(.text)
    ssl_write_extended_ms_ext                0x00021467   Thumb Code    90  ssl_cli.o(.text)
    ssl_write_alpn_ext                       0x000214c1   Thumb Code   184  ssl_cli.o(.text)
    ssl_generate_random                      0x00021579   Thumb Code    56  ssl_cli.o(.text)
    ssl_validate_ciphersuite                 0x000215b1   Thumb Code    30  ssl_cli.o(.text)
    ssl_write_client_hello                   0x000215cf   Thumb Code   610  ssl_cli.o(.text)
    ssl_parse_renegotiation_info             0x00021831   Thumb Code    44  ssl_cli.o(.text)
    ssl_parse_max_fragment_length_ext        0x0002185d   Thumb Code    62  ssl_cli.o(.text)
    ssl_parse_encrypt_then_mac_ext           0x0002189b   Thumb Code    54  ssl_cli.o(.text)
    ssl_parse_extended_ms_ext                0x000218d1   Thumb Code    56  ssl_cli.o(.text)
    ssl_parse_supported_point_formats_ext    0x00021909   Thumb Code   100  ssl_cli.o(.text)
    ssl_parse_alpn_ext                       0x0002196d   Thumb Code   188  ssl_cli.o(.text)
    ssl_parse_server_hello                   0x00021a29   Thumb Code  1106  ssl_cli.o(.text)
    ssl_check_server_ecdh_params             0x00021e7b   Thumb Code    54  ssl_cli.o(.text)
    ssl_parse_server_ecdh_params             0x00021eb1   Thumb Code    58  ssl_cli.o(.text)
    ssl_parse_signature_algorithm            0x00021eeb   Thumb Code   126  ssl_cli.o(.text)
    ssl_parse_server_key_exchange            0x00021f69   Thumb Code   578  ssl_cli.o(.text)
    ssl_parse_certificate_request            0x000221ab   Thumb Code   402  ssl_cli.o(.text)
    ssl_parse_server_hello_done              0x0002233d   Thumb Code    92  ssl_cli.o(.text)
    ssl_write_client_key_exchange            0x00022399   Thumb Code   196  ssl_cli.o(.text)
    ssl_write_certificate_verify             0x0002245d   Thumb Code   398  ssl_cli.o(.text)
    .text                                    0x000226f4   Section        0  ssl_tls.o(.text)
    mbedtls_ssl_safer_memcmp                 0x000226fb   Thumb Code    54  ssl_tls.o(.text)
    ssl_set_timer                            0x00022731   Thumb Code    30  ssl_tls.o(.text)
    ssl_check_timer                          0x0002274f   Thumb Code    34  ssl_tls.o(.text)
    ssl_mfl_code_to_length                   0x00022771   Thumb Code    52  ssl_tls.o(.text)
    ssl_session_copy                         0x000227c9   Thumb Code    88  ssl_tls.o(.text)
    tls_prf_generic                          0x00022821   Thumb Code   278  ssl_tls.o(.text)
    tls_prf_sha256                           0x00022937   Thumb Code    42  ssl_tls.o(.text)
    ssl_calc_finished_tls_sha256             0x00022961   Thumb Code   118  ssl_tls.o(.text)
    ssl_calc_verify_tls_sha256               0x000229d7   Thumb Code    56  ssl_tls.o(.text)
    ssl_read_memory                          0x00022e31   Thumb Code    26  ssl_tls.o(.text)
    ssl_encrypt_buf                          0x00022e53   Thumb Code   964  ssl_tls.o(.text)
    ssl_decrypt_buf                          0x00023217   Thumb Code  1474  ssl_tls.o(.text)
    ssl_update_out_pointers                  0x00023893   Thumb Code    58  ssl_tls.o(.text)
    ssl_get_hs_total_len                     0x00023b23   Thumb Code    24  ssl_tls.o(.text)
    ssl_parse_record_header                  0x00023bf1   Thumb Code   232  ssl_tls.o(.text)
    ssl_prepare_record_content               0x00023cd9   Thumb Code    58  ssl_tls.o(.text)
    ssl_get_next_record                      0x00023dad   Thumb Code   110  ssl_tls.o(.text)
    ssl_record_is_in_progress                0x00023e1b   Thumb Code    38  ssl_tls.o(.text)
    ssl_consume_current_message              0x00023e41   Thumb Code    80  ssl_tls.o(.text)
    ssl_update_in_pointers                   0x00024517   Thumb Code    46  ssl_tls.o(.text)
    ssl_update_checksum_sha256               0x000245a5   Thumb Code    24  ssl_tls.o(.text)
    ssl_update_checksum_start                0x000245e9   Thumb Code    24  ssl_tls.o(.text)
    ssl_handshake_wrapup_free_hs_transform   0x00024691   Thumb Code    54  ssl_tls.o(.text)
    ssl_handshake_params_init                0x00024881   Thumb Code    64  ssl_tls.o(.text)
    ssl_transform_init                       0x000248c1   Thumb Code    46  ssl_tls.o(.text)
    ssl_handshake_init                       0x000248fd   Thumb Code   148  ssl_tls.o(.text)
    ssl_reset_in_out_pointers                0x0002499f   Thumb Code    38  ssl_tls.o(.text)
    ssl_session_reset_int                    0x00024a53   Thumb Code   164  ssl_tls.o(.text)
    ssl_append_key_cert                      0x00024bc5   Thumb Code    84  ssl_tls.o(.text)
    ssl_write_real                           0x0002512d   Thumb Code   108  ssl_tls.o(.text)
    ssl_key_cert_free                        0x00025223   Thumb Code    24  ssl_tls.o(.text)
    mbedtls_cipher_get_cipher_mode           0x000255a1   Thumb Code    18  ssl_tls.o(.text)
    .text                                    0x000255bc   Section        0  threading.o(.text)
    threading_mutex_fail                     0x000255bd   Thumb Code     8  threading.o(.text)
    threading_mutex_dummy                    0x000255c5   Thumb Code     2  threading.o(.text)
    .text                                    0x000255ec   Section        0  x509.o(.text)
    x509_get_attr_type_value                 0x00025697   Thumb Code   226  x509.o(.text)
    x509_parse_int                           0x000257fd   Thumb Code    68  x509.o(.text)
    x509_date_is_valid                       0x00025841   Thumb Code   206  x509.o(.text)
    x509_parse_time                          0x0002590f   Thumb Code   262  x509.o(.text)
    .text                                    0x00025e04   Section        0  x509_crt.o(.text)
    x509_profile_check_md_alg                0x00025e05   Thumb Code    34  x509_crt.o(.text)
    x509_profile_check_pk_alg                0x00025e27   Thumb Code    34  x509_crt.o(.text)
    x509_profile_check_key                   0x00025e49   Thumb Code   104  x509_crt.o(.text)
    x509_get_version                         0x00025eb1   Thumb Code    80  x509_crt.o(.text)
    x509_get_dates                           0x00025f01   Thumb Code    92  x509_crt.o(.text)
    x509_get_uid                             0x00025f5d   Thumb Code    78  x509_crt.o(.text)
    x509_get_basic_constraints               0x00025fab   Thumb Code   156  x509_crt.o(.text)
    x509_get_ns_cert_type                    0x00026047   Thumb Code    58  x509_crt.o(.text)
    x509_get_key_usage                       0x00026081   Thumb Code    90  x509_crt.o(.text)
    x509_get_ext_key_usage                   0x000260db   Thumb Code    48  x509_crt.o(.text)
    x509_get_subject_alt_name                0x0002610b   Thumb Code   216  x509_crt.o(.text)
    x509_get_crt_ext                         0x000261e3   Thumb Code   434  x509_crt.o(.text)
    x509_crt_parse_der_core                  0x0002645d   Thumb Code   816  x509_crt.o(.text)
    x509_info_subject_alt_name               0x0002691d   Thumb Code   110  x509_crt.o(.text)
    x509_info_cert_type                      0x0002698b   Thumb Code   388  x509_crt.o(.text)
    x509_info_key_usage                      0x00026b0f   Thumb Code   650  x509_crt.o(.text)
    x509_info_ext_key_usage                  0x00026d99   Thumb Code   102  x509_crt.o(.text)
    x509_memcasecmp                          0x00027567   Thumb Code   360  x509_crt.o(.text)
    x509_check_wildcard                      0x000276cf   Thumb Code   116  x509_crt.o(.text)
    x509_string_cmp                          0x00027743   Thumb Code    92  x509_crt.o(.text)
    x509_name_cmp                            0x0002779f   Thumb Code   102  x509_crt.o(.text)
    x509_crt_check_signature                 0x00027805   Thumb Code   102  x509_crt.o(.text)
    x509_crt_check_parent                    0x0002786b   Thumb Code    80  x509_crt.o(.text)
    x509_crt_find_parent_in                  0x000278bb   Thumb Code   128  x509_crt.o(.text)
    x509_crt_find_parent                     0x0002793b   Thumb Code    64  x509_crt.o(.text)
    x509_crt_check_ee_locally_trusted        0x0002797b   Thumb Code    66  x509_crt.o(.text)
    x509_crt_verify_chain                    0x000279bd   Thumb Code   280  x509_crt.o(.text)
    x509_crt_check_cn                        0x00027ad5   Thumb Code    50  x509_crt.o(.text)
    x509_crt_verify_name                     0x00027b07   Thumb Code   138  x509_crt.o(.text)
    x509_crt_merge_flags_with_cb             0x00027b91   Thumb Code    76  x509_crt.o(.text)
    .text                                    0x00027cdc   Section        0  platform_util.o(.text)
    .text                                    0x00027cf4   Section        0  aws_logging_task_dynamic_buffers.o(.text)
    prvLoggingTask                           0x00027cf5   Thumb Code    40  aws_logging_task_dynamic_buffers.o(.text)
    .text                                    0x00027eb0   Section        0  unity.o(.text)
    UnityTestResultsBegin                    0x000282e5   Thumb Code    52  unity.o(.text)
    UnityTestResultsFailBegin                0x00028319   Thumb Code    30  unity.o(.text)
    UnityAddMsgIfSpecified                   0x0002837f   Thumb Code    66  unity.o(.text)
    UnityPrintExpectedAndActualStrings       0x000283c1   Thumb Code    84  unity.o(.text)
    UnityPrintExpectedAndActualStringsLen    0x00028415   Thumb Code    90  unity.o(.text)
    UnityIsOneArrayNull                      0x0002846f   Thumb Code    74  unity.o(.text)
    UnityFloatsWithin                        0x000287a1   Thumb Code   184  unity.o(.text)
    __ARM_isinff                             0x000290d9   Thumb Code    20  unity.o(.text)
    __ARM_isnanf                             0x000290ed   Thumb Code    14  unity.o(.text)
    .text                                    0x0002912c   Section        0  unity_fixture.o(.text)
    announceTestRun                          0x00029131   Thumb Code    40  unity_fixture.o(.text)
    selected                                 0x0002929f   Thumb Code    30  unity_fixture.o(.text)
    testSelected                             0x000292bd   Thumb Code    16  unity_fixture.o(.text)
    groupSelected                            0x000292cd   Thumb Code    16  unity_fixture.o(.text)
    isOverrun                                0x000294d7   Thumb Code    34  unity_fixture.o(.text)
    release_memory                           0x000294f9   Thumb Code   128  unity_fixture.o(.text)
    .text                                    0x000296e4   Section        0  uldiv.o(.text)
    .text                                    0x00029748   Section        0  rand.o(.text)
    .text                                    0x0002976c   Section        0  memmovea.o(.text)
    .text                                    0x000297ac   Section        0  memseta.o(.text)
    .text                                    0x000297d0   Section        0  strstr.o(.text)
    .text                                    0x000297f4   Section        0  strncpy.o(.text)
    .text                                    0x0002980c   Section        0  strlen.o(.text)
    .text                                    0x0002981a   Section        0  strcmp.o(.text)
    .text                                    0x00029836   Section        0  memcmp.o(.text)
    .text                                    0x00029850   Section        0  strncmp.o(.text)
    .text                                    0x00029870   Section        0  strtok_r.o(.text)
    .text                                    0x000298b4   Section        0  strlcpy.o(.text)
    .text                                    0x000298e4   Section        0  calloc.o(.text)
    .text                                    0x00029900   Section        0  __0sscanf.o(.text)
    .text                                    0x00029938   Section        0  _scanf_int.o(.text)
    .text                                    0x00029a84   Section        0  _scanf_str.o(.text)
    .text                                    0x00029b64   Section        0  strtol.o(.text)
    .text                                    0x00029bd4   Section        0  atoi.o(.text)
    .text                                    0x00029bee   Section       62  setjmp.o(.text)
    .text                                    0x00029c2c   Section        0  uidiv.o(.text)
    .text                                    0x00029c58   Section        0  llshl.o(.text)
    .text                                    0x00029c76   Section        0  llushr.o(.text)
    .text                                    0x00029c98   Section        0  ctype_o.o(.text)
    .text                                    0x00029ca0   Section        0  isspace_o.o(.text)
    .text                                    0x00029cb2   Section        0  _chval.o(.text)
    .text                                    0x00029cd0   Section        0  scanf_char.o(.text)
    _scanf_char_input                        0x00029cd1   Thumb Code    12  scanf_char.o(.text)
    .text                                    0x00029cf8   Section        0  _sgetc.o(.text)
    .text                                    0x00029d38   Section        0  _strtoul.o(.text)
    .text                                    0x00029dd6   Section        0  dadd.o(.text)
    .text                                    0x00029dd6   Section        0  iusefp.o(.text)
    .text                                    0x00029f24   Section        0  dmul.o(.text)
    .text                                    0x0002a008   Section        0  ddiv.o(.text)
    .text                                    0x0002a0e6   Section        0  dfixul.o(.text)
    .text                                    0x0002a118   Section       48  cdrcmple.o(.text)
    .text                                    0x0002a148   Section       36  init.o(.text)
    .text                                    0x0002a16c   Section        0  llsshr.o(.text)
    .text                                    0x0002a190   Section        0  _scanf.o(.text)
    .text                                    0x0002a4bc   Section        0  depilogue.o(.text)
    .text                                    0x0002a576   Section        0  __dczerorl2.o(.text)
    i.__0printf                              0x0002a5cc   Section        0  printfa.o(i.__0printf)
    i.__0snprintf                            0x0002a5ec   Section        0  printfa.o(i.__0snprintf)
    i.__0sprintf                             0x0002a61c   Section        0  printfa.o(i.__0sprintf)
    i.__0vsnprintf                           0x0002a644   Section        0  printfa.o(i.__0vsnprintf)
    i.__aeabi_errno_addr                     0x0002a670   Section        0  errno.o(i.__aeabi_errno_addr)
    i.__scatterload_copy                     0x0002a678   Section       14  handlers.o(i.__scatterload_copy)
    i.__scatterload_null                     0x0002a686   Section        2  handlers.o(i.__scatterload_null)
    i.__scatterload_zeroinit                 0x0002a688   Section       14  handlers.o(i.__scatterload_zeroinit)
    i._fp_digits                             0x0002a698   Section        0  printfa.o(i._fp_digits)
    _fp_digits                               0x0002a699   Thumb Code   366  printfa.o(i._fp_digits)
    i._printf_core                           0x0002a81c   Section        0  printfa.o(i._printf_core)
    _printf_core                             0x0002a81d   Thumb Code  1744  printfa.o(i._printf_core)
    i._printf_post_padding                   0x0002aef8   Section        0  printfa.o(i._printf_post_padding)
    _printf_post_padding                     0x0002aef9   Thumb Code    36  printfa.o(i._printf_post_padding)
    i._printf_pre_padding                    0x0002af1c   Section        0  printfa.o(i._printf_pre_padding)
    _printf_pre_padding                      0x0002af1d   Thumb Code    46  printfa.o(i._printf_pre_padding)
    i._snputc                                0x0002af4a   Section        0  printfa.o(i._snputc)
    _snputc                                  0x0002af4b   Thumb Code    22  printfa.o(i._snputc)
    i._sputc                                 0x0002af60   Section        0  printfa.o(i._sputc)
    _sputc                                   0x0002af61   Thumb Code    10  printfa.o(i._sputc)
    i.free                                   0x0002af6c   Section        0  malloc.o(i.free)
    i.malloc                                 0x0002afbc   Section        0  malloc.o(i.malloc)
    i.putc                                   0x0002b028   Section        0  putc.o(i.putc)
    .constdata                               0x0002b02c   Section       32  clk.o(.constdata)
    .constdata                               0x0002b04c   Section    20244  crypto.o(.constdata)
    .constdata                               0x0002ff60   Section       48  uart.o(.constdata)
    .constdata                               0x0002ff90   Section       50  esp8266_wifi.o(.constdata)
    __func__                                 0x0002ff90   Data          17  esp8266_wifi.o(.constdata)
    __func__                                 0x0002ffa1   Data          12  esp8266_wifi.o(.constdata)
    __func__                                 0x0002ffad   Data          21  esp8266_wifi.o(.constdata)
    .constdata                               0x0002ffc4   Section     5044  aws_test_tcp.o(.constdata)
    tcptestECHO_HOST_ROOT_CA                 0x0002ffc4   Data          28  aws_test_tcp.o(.constdata)
    clientcredentialMQTT_BROKER_ENDPOINT     0x0002ffe0   Data          36  aws_test_tcp.o(.constdata)
    xReceiveTimeOut                          0x00030004   Data           4  aws_test_tcp.o(.constdata)
    cTransmittedString                       0x00030008   Data        4608  aws_test_tcp.o(.constdata)
    __FUNCTION__                             0x00031208   Data          23  aws_test_tcp.o(.constdata)
    __FUNCTION__                             0x0003121f   Data          29  aws_test_tcp.o(.constdata)
    __FUNCTION__                             0x0003123c   Data          17  aws_test_tcp.o(.constdata)
    __FUNCTION__                             0x0003124d   Data          20  aws_test_tcp.o(.constdata)
    __FUNCTION__                             0x00031261   Data          26  aws_test_tcp.o(.constdata)
    __FUNCTION__                             0x000312bc   Data          44  aws_test_tcp.o(.constdata)
    cMessageAWS                              0x000312e8   Data          71  aws_test_tcp.o(.constdata)
    cMessageSecServer                        0x0003132f   Data          67  aws_test_tcp.o(.constdata)
    .constdata                               0x00031378   Section     7706  aws_tls.o(.constdata)
    clientcredentialMQTT_BROKER_ENDPOINT     0x00031378   Data          36  aws_tls.o(.constdata)
    tlsATS1_ROOT_CERTIFICATE_PEM             0x0003139c   Data        1189  aws_tls.o(.constdata)
    tlsATS2_ROOT_CERTIFICATE_PEM             0x00031841   Data        1884  aws_tls.o(.constdata)
    tlsATS3_ROOT_CERTIFICATE_PEM             0x00031f9d   Data         657  aws_tls.o(.constdata)
    tlsATS4_ROOT_CERTIFICATE_PEM             0x0003222e   Data         738  aws_tls.o(.constdata)
    tlsSTARFIELD_ROOT_CERTIFICATE_PEM        0x00032510   Data        1469  aws_tls.o(.constdata)
    tlsVERISIGN_ROOT_CERTIFICATE_PEM         0x00032acd   Data        1733  aws_tls.o(.constdata)
    .constdata                               0x00033194   Section     9700  aes.o(.constdata)
    FSb                                      0x00033194   Data         256  aes.o(.constdata)
    FT0                                      0x00033294   Data        1024  aes.o(.constdata)
    FT1                                      0x00033694   Data        1024  aes.o(.constdata)
    FT2                                      0x00033a94   Data        1024  aes.o(.constdata)
    FT3                                      0x00033e94   Data        1024  aes.o(.constdata)
    RSb                                      0x00034294   Data         256  aes.o(.constdata)
    RT0                                      0x00034394   Data        1024  aes.o(.constdata)
    RT1                                      0x00034794   Data        1024  aes.o(.constdata)
    RT2                                      0x00034b94   Data        1024  aes.o(.constdata)
    RT3                                      0x00034f94   Data        1024  aes.o(.constdata)
    RCON                                     0x00035394   Data          40  aes.o(.constdata)
    aes_test_ecb_dec                         0x000353bc   Data          48  aes.o(.constdata)
    aes_test_ecb_enc                         0x000353ec   Data          48  aes.o(.constdata)
    aes_test_cbc_dec                         0x0003541c   Data          48  aes.o(.constdata)
    aes_test_cbc_enc                         0x0003544c   Data          48  aes.o(.constdata)
    aes_test_cfb128_key                      0x0003547c   Data          96  aes.o(.constdata)
    aes_test_cfb128_iv                       0x000354dc   Data          16  aes.o(.constdata)
    aes_test_cfb128_pt                       0x000354ec   Data          64  aes.o(.constdata)
    aes_test_cfb128_ct                       0x0003552c   Data         192  aes.o(.constdata)
    aes_test_ctr_key                         0x000355ec   Data          48  aes.o(.constdata)
    aes_test_ctr_nonce_counter               0x0003561c   Data          48  aes.o(.constdata)
    aes_test_ctr_pt                          0x0003564c   Data         144  aes.o(.constdata)
    aes_test_ctr_ct                          0x000356dc   Data         144  aes.o(.constdata)
    aes_test_ctr_len                         0x0003576c   Data          12  aes.o(.constdata)
    .constdata                               0x00035778   Section      345  base64.o(.constdata)
    base64_enc_map                           0x00035778   Data          64  base64.o(.constdata)
    base64_dec_map                           0x000357b8   Data         128  base64.o(.constdata)
    base64_test_dec                          0x00035838   Data          64  base64.o(.constdata)
    base64_test_enc                          0x00035878   Data          89  base64.o(.constdata)
    .constdata                               0x000358d4   Section      708  bignum.o(.constdata)
    small_prime                              0x000358d4   Data         672  bignum.o(.constdata)
    gcd_pairs                                0x00035b74   Data          36  bignum.o(.constdata)
    .constdata                               0x00035b98   Section      620  cipher_wrap.o(.constdata)
    aes_info                                 0x00035b98   Data          36  cipher_wrap.o(.constdata)
    aes_128_ecb_info                         0x00035bbc   Data          28  cipher_wrap.o(.constdata)
    aes_192_ecb_info                         0x00035bd8   Data          28  cipher_wrap.o(.constdata)
    aes_256_ecb_info                         0x00035bf4   Data          28  cipher_wrap.o(.constdata)
    aes_128_cbc_info                         0x00035c10   Data          28  cipher_wrap.o(.constdata)
    aes_192_cbc_info                         0x00035c2c   Data          28  cipher_wrap.o(.constdata)
    aes_256_cbc_info                         0x00035c48   Data          28  cipher_wrap.o(.constdata)
    aes_128_cfb128_info                      0x00035c64   Data          28  cipher_wrap.o(.constdata)
    aes_192_cfb128_info                      0x00035c80   Data          28  cipher_wrap.o(.constdata)
    aes_256_cfb128_info                      0x00035c9c   Data          28  cipher_wrap.o(.constdata)
    aes_128_ctr_info                         0x00035cb8   Data          28  cipher_wrap.o(.constdata)
    aes_192_ctr_info                         0x00035cd4   Data          28  cipher_wrap.o(.constdata)
    aes_256_ctr_info                         0x00035cf0   Data          28  cipher_wrap.o(.constdata)
    gcm_aes_info                             0x00035d0c   Data          36  cipher_wrap.o(.constdata)
    aes_128_gcm_info                         0x00035d30   Data          28  cipher_wrap.o(.constdata)
    aes_192_gcm_info                         0x00035d4c   Data          28  cipher_wrap.o(.constdata)
    aes_256_gcm_info                         0x00035d68   Data          28  cipher_wrap.o(.constdata)
    .constdata                               0x00035e04   Section      224  ctr_drbg.o(.constdata)
    entropy_source_pr                        0x00035e04   Data          96  ctr_drbg.o(.constdata)
    entropy_source_nopr                      0x00035e64   Data          64  ctr_drbg.o(.constdata)
    nonce_pers_pr                            0x00035ea4   Data          16  ctr_drbg.o(.constdata)
    nonce_pers_nopr                          0x00035eb4   Data          16  ctr_drbg.o(.constdata)
    result_pr                                0x00035ec4   Data          16  ctr_drbg.o(.constdata)
    result_nopr                              0x00035ed4   Data          16  ctr_drbg.o(.constdata)
    .constdata                               0x00035ee4   Section       48  ecp.o(.constdata)
    ecp_supported_curves                     0x00035ee4   Data          24  ecp.o(.constdata)
    .constdata                               0x00035f14   Section      160  ecp_curves.o(.constdata)
    secp256r1_p                              0x00035f14   Data          32  ecp_curves.o(.constdata)
    secp256r1_b                              0x00035f34   Data          32  ecp_curves.o(.constdata)
    secp256r1_gx                             0x00035f54   Data          32  ecp_curves.o(.constdata)
    secp256r1_gy                             0x00035f74   Data          32  ecp_curves.o(.constdata)
    secp256r1_n                              0x00035f94   Data          32  ecp_curves.o(.constdata)
    .constdata                               0x00035fb8   Section     3080  gcm.o(.constdata)
    last4                                    0x00035fb8   Data         128  gcm.o(.constdata)
    key_index                                0x00036038   Data          24  gcm.o(.constdata)
    key                                      0x00036050   Data         192  gcm.o(.constdata)
    iv_len                                   0x00036110   Data          24  gcm.o(.constdata)
    iv_index                                 0x00036128   Data          24  gcm.o(.constdata)
    iv                                       0x00036140   Data         384  gcm.o(.constdata)
    add_len                                  0x000362c0   Data          24  gcm.o(.constdata)
    add_index                                0x000362d8   Data          24  gcm.o(.constdata)
    additional                               0x000362f0   Data         384  gcm.o(.constdata)
    pt_len                                   0x00036470   Data          24  gcm.o(.constdata)
    pt_index                                 0x00036488   Data          24  gcm.o(.constdata)
    pt                                       0x000364a0   Data         384  gcm.o(.constdata)
    ct                                       0x00036620   Data        1152  gcm.o(.constdata)
    tag                                      0x00036aa0   Data         288  gcm.o(.constdata)
    .constdata                               0x00036bc0   Section       16  md.o(.constdata)
    supported_digests                        0x00036bc0   Data          16  md.o(.constdata)
    .constdata                               0x00036bd0   Section      144  md_wrap.o(.constdata)
    .constdata                               0x00036c60   Section     1152  oid.o(.constdata)
    oid_x520_attr_type                       0x00036c60   Data         400  oid.o(.constdata)
    oid_x509_ext                             0x00036df0   Data         120  oid.o(.constdata)
    oid_ext_key_usage                        0x00036e68   Data         112  oid.o(.constdata)
    oid_sig_alg                              0x00036ed8   Data         180  oid.o(.constdata)
    oid_pk_alg                               0x00036f8c   Data          80  oid.o(.constdata)
    oid_ecp_grp                              0x00036fdc   Data          40  oid.o(.constdata)
    oid_cipher_alg                           0x00037004   Data          60  oid.o(.constdata)
    oid_md_alg                               0x00037040   Data          80  oid.o(.constdata)
    oid_md_hmac                              0x00037090   Data          80  oid.o(.constdata)
    .constdata                               0x000370e0   Section      240  pk_wrap.o(.constdata)
    .constdata                               0x000371d0   Section      244  sha1.o(.constdata)
    sha1_test_buf                            0x000371d0   Data         171  sha1.o(.constdata)
    sha1_test_buflen                         0x0003727c   Data          12  sha1.o(.constdata)
    sha1_test_sum                            0x00037288   Data          60  sha1.o(.constdata)
    .constdata                               0x000372c4   Section      632  sha256.o(.constdata)
    K                                        0x000372c4   Data         256  sha256.o(.constdata)
    sha256_test_buf                          0x000373c4   Data         171  sha256.o(.constdata)
    sha256_test_buflen                       0x00037470   Data          12  sha256.o(.constdata)
    sha256_test_sum                          0x0003747c   Data         192  sha256.o(.constdata)
    .constdata                               0x0003753c   Section     1120  ssl_ciphersuites.o(.constdata)
    ciphersuite_preference                   0x0003753c   Data         832  ssl_ciphersuites.o(.constdata)
    ciphersuite_definitions                  0x0003787c   Data         288  ssl_ciphersuites.o(.constdata)
    .constdata                               0x0003799c   Section      216  x509_crt.o(.constdata)
    x509_crt_verify_strings                  0x000379cc   Data         168  x509_crt.o(.constdata)
    .constdata                               0x00037a74   Section      504  unity.o(.constdata)
    UnityStrOk                               0x00037a74   Data           3  unity.o(.constdata)
    UnityStrPass                             0x00037a77   Data           5  unity.o(.constdata)
    UnityStrFail                             0x00037a7c   Data           5  unity.o(.constdata)
    UnityStrIgnore                           0x00037a81   Data           7  unity.o(.constdata)
    UnityStrNull                             0x00037a88   Data           5  unity.o(.constdata)
    UnityStrSpacer                           0x00037a8d   Data           3  unity.o(.constdata)
    UnityStrExpected                         0x00037a90   Data          11  unity.o(.constdata)
    UnityStrWas                              0x00037a9b   Data           6  unity.o(.constdata)
    UnityStrGt                               0x00037aa1   Data          21  unity.o(.constdata)
    UnityStrLt                               0x00037ab6   Data          18  unity.o(.constdata)
    UnityStrElement                          0x00037ac8   Data          10  unity.o(.constdata)
    UnityStrByte                             0x00037ad2   Data           7  unity.o(.constdata)
    UnityStrMemory                           0x00037ad9   Data          18  unity.o(.constdata)
    UnityStrDelta                            0x00037aeb   Data          26  unity.o(.constdata)
    UnityStrPointless                        0x00037b05   Data          55  unity.o(.constdata)
    UnityStrNullPointerForExpected           0x00037b3c   Data          29  unity.o(.constdata)
    UnityStrNullPointerForActual             0x00037b59   Data          25  unity.o(.constdata)
    UnityStrNot                              0x00037b72   Data           5  unity.o(.constdata)
    UnityStrInf                              0x00037b77   Data           9  unity.o(.constdata)
    UnityStrNegInf                           0x00037b80   Data          18  unity.o(.constdata)
    UnityStrNaN                              0x00037b92   Data           4  unity.o(.constdata)
    UnityStrDet                              0x00037b96   Data          12  unity.o(.constdata)
    UnityStrInvalidFloatTrait                0x00037ba2   Data          20  unity.o(.constdata)
    UnityStrBreaker                          0x00037c12   Data          24  unity.o(.constdata)
    UnityStrResultsTests                     0x00037c2a   Data           8  unity.o(.constdata)
    UnityStrResultsFailures                  0x00037c32   Data          11  unity.o(.constdata)
    UnityStrResultsIgnored                   0x00037c3d   Data          10  unity.o(.constdata)
    UnityStrDetail1Name                      0x00037c47   Data          10  unity.o(.constdata)
    UnityStrDetail2Name                      0x00037c51   Data          11  unity.o(.constdata)
    .constdata                               0x00037c6c   Section        4  unity_fixture.o(.constdata)
    end                                      0x00037c6c   Data           4  unity_fixture.o(.constdata)
    .constdata                               0x00037c70   Section      129  ctype_o.o(.constdata)
    .constdata                               0x00037cf4   Section        4  ctype_o.o(.constdata)
    table                                    0x00037cf4   Data           4  ctype_o.o(.constdata)
    .conststring                             0x00037cf8   Section       70  aws_pkcs11_pal.o(.conststring)
    .conststring                             0x00037d40   Section     1300  aws_test_tcp.o(.conststring)
    .conststring                             0x00038254   Section       79  aws_tls.o(.conststring)
    .conststring                             0x000382a4   Section      877  bignum.o(.conststring)
    .conststring                             0x00038614   Section      192  cipher_wrap.o(.conststring)
    .conststring                             0x000386d4   Section      321  ecp.o(.conststring)
    .conststring                             0x00038818   Section     2191  oid.o(.conststring)
    .conststring                             0x000390a8   Section       28  pk_wrap.o(.conststring)
    .conststring                             0x000390c4   Section      781  rsa.o(.conststring)
    .conststring                             0x000393d4   Section      313  ssl_ciphersuites.o(.conststring)
    .conststring                             0x00039510   Section     1030  x509_crt.o(.conststring)
    .data                                    0x20000000   Section       44  system_m480.o(.data)
    .data                                    0x2000002c   Section       17  entropy_hardware_poll.o(.data)
    g_PRNG_done                              0x2000002c   Data           4  entropy_hardware_poll.o(.data)
    val_sum                                  0x20000034   Data           4  entropy_hardware_poll.o(.data)
    oldest                                   0x20000038   Data           4  entropy_hardware_poll.o(.data)
    init_flag                                0x2000003c   Data           1  entropy_hardware_poll.o(.data)
    .data                                    0x20000040   Section       12  main.o(.data)
    xTimeNow                                 0x20000040   Data           4  main.o(.data)
    xLastTimeCheck                           0x20000044   Data           4  main.o(.data)
    tickHookCnt                              0x20000048   Data           4  main.o(.data)
    .data                                    0x2000004c   Section       64  tasks.o(.data)
    pxDelayedTaskList                        0x20000050   Data           4  tasks.o(.data)
    pxOverflowDelayedTaskList                0x20000054   Data           4  tasks.o(.data)
    uxDeletedTasksWaitingCleanUp             0x20000058   Data           4  tasks.o(.data)
    uxCurrentNumberOfTasks                   0x20000060   Data           4  tasks.o(.data)
    xTickCount                               0x20000064   Data           4  tasks.o(.data)
    uxTopReadyPriority                       0x20000068   Data           4  tasks.o(.data)
    xSchedulerRunning                        0x2000006c   Data           4  tasks.o(.data)
    uxPendedTicks                            0x20000070   Data           4  tasks.o(.data)
    xYieldPending                            0x20000074   Data           4  tasks.o(.data)
    xNumOfOverflows                          0x20000078   Data           4  tasks.o(.data)
    uxTaskNumber                             0x2000007c   Data           4  tasks.o(.data)
    xNextTaskUnblockTime                     0x20000080   Data           4  tasks.o(.data)
    xIdleTaskHandle                          0x20000084   Data           4  tasks.o(.data)
    uxSchedulerSuspended                     0x20000088   Data           4  tasks.o(.data)
    .data                                    0x2000008c   Section       20  timers.o(.data)
    pxCurrentTimerList                       0x2000008c   Data           4  timers.o(.data)
    pxOverflowTimerList                      0x20000090   Data           4  timers.o(.data)
    xTimerQueue                              0x20000094   Data           4  timers.o(.data)
    xTimerTaskHandle                         0x20000098   Data           4  timers.o(.data)
    xLastTime                                0x2000009c   Data           4  timers.o(.data)
    .data                                    0x200000a0   Section       12  port.o(.data)
    uxCriticalNesting                        0x200000a0   Data           4  port.o(.data)
    ucMaxSysCallPriority                     0x200000a4   Data           1  port.o(.data)
    ulMaxPRIGROUPValue                       0x200000a8   Data           4  port.o(.data)
    .data                                    0x200000ac   Section       24  heap_4.o(.data)
    xStart                                   0x200000ac   Data           8  heap_4.o(.data)
    pxEnd                                    0x200000b4   Data           4  heap_4.o(.data)
    xFreeBytesRemaining                      0x200000b8   Data           4  heap_4.o(.data)
    xMinimumEverFreeBytesRemaining           0x200000bc   Data           4  heap_4.o(.data)
    xBlockAllocatedBit                       0x200000c0   Data           4  heap_4.o(.data)
    .data                                    0x200000c4   Section        8  retarget.o(.data)
    .data                                    0x200000cc   Section       32  crypto.o(.data)
    hex_char_tbl                             0x200000cc   Data          17  crypto.o(.data)
    pCurve                                   0x200000e0   Data           4  crypto.o(.data)
    .data                                    0x200000ec   Section        4  aws_wifi.o(.data)
    xWIFI_IsInitialized                      0x200000ec   Data           4  aws_wifi.o(.data)
    .data                                    0x200000f0   Section        4  esp8266_wifi.o(.data)
    rx_buf_ridx                              0x200000f0   Data           2  esp8266_wifi.o(.data)
    rx_buf_widx                              0x200000f2   Data           2  esp8266_wifi.o(.data)
    .data                                    0x200000f4   Section      276  aws_pkcs11_mbedtls.o(.data)
    prvP11FunctionList                       0x200000f4   Data         276  aws_pkcs11_mbedtls.o(.data)
    .data                                    0x20000208   Section       16  aws_pkcs11_pal.o(.data)
    P11KeyConfig                             0x20000208   Data          16  aws_pkcs11_pal.o(.data)
    .data                                    0x20000218   Section        4  aws_secure_sockets.o(.data)
    xSSocketSem                              0x20000218   Data           4  aws_secure_sockets.o(.data)
    .data                                    0x2000021c   Section       36  aws_test_tcp.o(.data)
    xSocketPassingQueue                      0x2000022c   Data           4  aws_test_tcp.o(.data)
    xSyncEventGroup                          0x20000230   Data           4  aws_test_tcp.o(.data)
    TEST_GROUP_Full_TCP                      0x2000023c   Data           4  aws_test_tcp.o(.data)
    .data                                    0x20000240   Section        4  cipher.o(.data)
    supported_init                           0x20000240   Data           4  cipher.o(.data)
    .data                                    0x20000244   Section        4  ctr_drbg.o(.data)
    test_offset                              0x20000244   Data           4  ctr_drbg.o(.data)
    .data                                    0x20000248   Section       20  ecp.o(.data)
    add_count                                0x20000248   Data           4  ecp.o(.data)
    dbl_count                                0x2000024c   Data           4  ecp.o(.data)
    mul_count                                0x20000250   Data           4  ecp.o(.data)
    ecp_supported_grp_id                     0x20000254   Data           2  ecp.o(.data)
    init_done                                0x20000258   Data           4  ecp.o(.data)
    .data                                    0x2000025c   Section        4  ecp_curves.o(.data)
    one                                      0x2000025c   Data           4  ecp_curves.o(.data)
    .data                                    0x20000260   Section        8  platform.o(.data)
    mbedtls_calloc_func                      0x20000260   Data           4  platform.o(.data)
    mbedtls_free_func                        0x20000264   Data           4  platform.o(.data)
    .data                                    0x20000268   Section        4  ssl_ciphersuites.o(.data)
    supported_init                           0x20000268   Data           4  ssl_ciphersuites.o(.data)
    .data                                    0x2000026c   Section       39  ssl_tls.o(.data)
    ssl_preset_default_hashes                0x2000026c   Data          12  ssl_tls.o(.data)
    ssl_preset_suiteb_ciphersuites           0x20000278   Data          12  ssl_tls.o(.data)
    ssl_preset_suiteb_hashes                 0x20000284   Data          12  ssl_tls.o(.data)
    ssl_preset_suiteb_curves                 0x20000290   Data           3  ssl_tls.o(.data)
    .data                                    0x20000294   Section       16  threading.o(.data)
    .data                                    0x200002a4   Section        4  platform_util.o(.data)
    memset_func                              0x200002a4   Data           4  platform_util.o(.data)
    .data                                    0x200002a8   Section        8  aws_logging_task_dynamic_buffers.o(.data)
    xQueue                                   0x200002a8   Data           4  aws_logging_task_dynamic_buffers.o(.data)
    xMessageNumber                           0x200002ac   Data           4  aws_logging_task_dynamic_buffers.o(.data)
    .data                                    0x200002b0   Section        4  unity.o(.data)
    UnityQuickCompare                        0x200002b0   Data           4  unity.o(.data)
    .data                                    0x200002b4   Section       12  unity_fixture.o(.data)
    malloc_count                             0x200002b4   Data           4  unity_fixture.o(.data)
    malloc_fail_countdown                    0x200002b8   Data           4  unity_fixture.o(.data)
    pointer_index                            0x200002bc   Data           4  unity_fixture.o(.data)
    .data                                    0x200002c0   Section        4  aws_dev_mode_key_provisioning.o(.data)
    .data                                    0x200002c4   Section        4  rand.o(.data)
    _rand_state                              0x200002c4   Data           4  rand.o(.data)
    .data                                    0x200002c8   Section        4  strtok_r.o(.data)
    state                                    0x200002c8   Data           4  strtok_r.o(.data)
    .data                                    0x200002cc   Section        4  mvars.o(.data)
    .data                                    0x200002d0   Section        4  mvars.o(.data)
    .data                                    0x200002d4   Section        4  errno.o(.data)
    _errno                                   0x200002d4   Data           4  errno.o(.data)
    .bss                                     0x200002d8   Section      128  entropy_hardware_poll.o(.bss)
    adc_val                                  0x200002d8   Data         128  entropy_hardware_poll.o(.bss)
    .bss                                     0x20000358   Section       64  queue.o(.bss)
    .bss                                     0x20000398   Section      240  tasks.o(.bss)
    pxReadyTasksLists                        0x20000398   Data         140  tasks.o(.bss)
    xDelayedTaskList1                        0x20000424   Data          20  tasks.o(.bss)
    xDelayedTaskList2                        0x20000438   Data          20  tasks.o(.bss)
    xPendingReadyList                        0x2000044c   Data          20  tasks.o(.bss)
    xTasksWaitingTermination                 0x20000460   Data          20  tasks.o(.bss)
    xSuspendedTaskList                       0x20000474   Data          20  tasks.o(.bss)
    .bss                                     0x20000488   Section      240  timers.o(.bss)
    xActiveTimerList1                        0x20000488   Data          20  timers.o(.bss)
    xActiveTimerList2                        0x2000049c   Data          20  timers.o(.bss)
    xStaticTimerQueue                        0x200004b0   Data          80  timers.o(.bss)
    ucStaticTimerQueueStorage                0x20000500   Data         120  timers.o(.bss)
    .bss                                     0x20000578   Section    108544  heap_4.o(.bss)
    ucHeap                                   0x20000578   Data       108544  heap_4.o(.bss)
    .bss                                     0x2001ad78   Section     1156  crypto.o(.bss)
    g_AES_CTL                                0x2001ad78   Data          16  crypto.o(.bss)
    g_TDES_CTL                               0x2001ad88   Data          16  crypto.o(.bss)
    Curve_Copy                               0x2001ad98   Data         964  crypto.o(.bss)
    temp_hex_str                             0x2001b15c   Data         160  crypto.o(.bss)
    .bss                                     0x2001b1fc   Section     3272  aws_test.o(.bss)
    xIdleTaskTCB                             0x2001b1fc   Data         100  aws_test.o(.bss)
    uxIdleTaskStack                          0x2001b260   Data        1024  aws_test.o(.bss)
    xTimerTaskTCB                            0x2001b660   Data         100  aws_test.o(.bss)
    uxTimerTaskStack                         0x2001b6c4   Data        2048  aws_test.o(.bss)
    .bss                                     0x2001bec4   Section     4000  aws_test_runner.o(.bss)
    .bss                                     0x2001ce64   Section     3208  aws_wifi.o(.bss)
    xSemaphoreBuffer                         0x2001da9c   Data          80  aws_wifi.o(.bss)
    .bss                                     0x2001daec   Section    16396  esp8266_wifi.o(.bss)
    rx_buf                                   0x20020af8   Data        4096  esp8266_wifi.o(.bss)
    .bss                                     0x20021af8   Section      856  aws_pkcs11_mbedtls.o(.bss)
    xP11Context                              0x20021af8   Data         856  aws_pkcs11_mbedtls.o(.bss)
    .bss                                     0x20021e50   Section     2056  aws_pkcs11_pal.o(.bss)
    P11CertDataSave                          0x20021e50   Data        2056  aws_pkcs11_pal.o(.bss)
    .bss                                     0x20022658   Section      104  aws_secure_sockets.o(.bss)
    xSockets                                 0x20022658   Data         104  aws_secure_sockets.o(.bss)
    .bss                                     0x200226c0   Section       64  cipher_wrap.o(.bss)
    .bss                                     0x20022700   Section       36  ssl_ciphersuites.o(.bss)
    supported_ciphersuites                   0x20022700   Data          36  ssl_ciphersuites.o(.bss)
    .bss                                     0x20022728   Section      200  unity.o(.bss)
    .bss                                     0x200227f0   Section       56  unity_fixture.o(.bss)
    pointer_store                            0x20022800   Data          40  unity_fixture.o(.bss)
    HEAP                                     0x20022828   Section      256  startup_m480.o(HEAP)
    STACK                                    0x20022928   Section     2048  startup_m480.o(STACK)

    Global Symbols

    Symbol Name                              Value     Ov Type        Size  Object(Section)

    BuildAttributes$$THM_ISAv4$E$P$D$K$B$S$7EM$VFPi3$EXTD16$VFPS$VFMA$PE$A:L22UL41UL21$X:L11$S22US41US21$IEEE1$IW$USESV6$~STKCKD$USESV7$~SHL$OSPACE$ROPI$EBA8$MICROLIB$REQ8$PRES8$EABIv2 0x00000000   Number         0  anon$$obj.o ABSOLUTE
    __ARM_use_no_argv                        0x00000000   Number         0  main.o ABSOLUTE
    __Vectors                                0x00000000   Data           4  startup_m480.o(RESET)
    _printf_a                                0x00000000   Number         0  stubs.o ABSOLUTE
    _printf_c                                0x00000000   Number         0  stubs.o ABSOLUTE
    _printf_charcount                        0x00000000   Number         0  stubs.o ABSOLUTE
    _printf_d                                0x00000000   Number         0  stubs.o ABSOLUTE
    _printf_e                                0x00000000   Number         0  stubs.o ABSOLUTE
    _printf_f                                0x00000000   Number         0  stubs.o ABSOLUTE
    _printf_flags                            0x00000000   Number         0  stubs.o ABSOLUTE
    _printf_fp_dec                           0x00000000   Number         0  stubs.o ABSOLUTE
    _printf_fp_hex                           0x00000000   Number         0  stubs.o ABSOLUTE
    _printf_g                                0x00000000   Number         0  stubs.o ABSOLUTE
    _printf_i                                0x00000000   Number         0  stubs.o ABSOLUTE
    _printf_int_dec                          0x00000000   Number         0  stubs.o ABSOLUTE
    _printf_l                                0x00000000   Number         0  stubs.o ABSOLUTE
    _printf_lc                               0x00000000   Number         0  stubs.o ABSOLUTE
    _printf_ll                               0x00000000   Number         0  stubs.o ABSOLUTE
    _printf_lld                              0x00000000   Number         0  stubs.o ABSOLUTE
    _printf_lli                              0x00000000   Number         0  stubs.o ABSOLUTE
    _printf_llo                              0x00000000   Number         0  stubs.o ABSOLUTE
    _printf_llu                              0x00000000   Number         0  stubs.o ABSOLUTE
    _printf_llx                              0x00000000   Number         0  stubs.o ABSOLUTE
    _printf_longlong_dec                     0x00000000   Number         0  stubs.o ABSOLUTE
    _printf_longlong_hex                     0x00000000   Number         0  stubs.o ABSOLUTE
    _printf_longlong_oct                     0x00000000   Number         0  stubs.o ABSOLUTE
    _printf_ls                               0x00000000   Number         0  stubs.o ABSOLUTE
    _printf_mbtowc                           0x00000000   Number         0  stubs.o ABSOLUTE
    _printf_n                                0x00000000   Number         0  stubs.o ABSOLUTE
    _printf_o                                0x00000000   Number         0  stubs.o ABSOLUTE
    _printf_p                                0x00000000   Number         0  stubs.o ABSOLUTE
    _printf_percent                          0x00000000   Number         0  stubs.o ABSOLUTE
    _printf_pre_padding                      0x00000000   Number         0  stubs.o ABSOLUTE
    _printf_return_value                     0x00000000   Number         0  stubs.o ABSOLUTE
    _printf_s                                0x00000000   Number         0  stubs.o ABSOLUTE
    _printf_sizespec                         0x00000000   Number         0  stubs.o ABSOLUTE
    _printf_str                              0x00000000   Number         0  stubs.o ABSOLUTE
    _printf_truncate_signed                  0x00000000   Number         0  stubs.o ABSOLUTE
    _printf_truncate_unsigned                0x00000000   Number         0  stubs.o ABSOLUTE
    _printf_u                                0x00000000   Number         0  stubs.o ABSOLUTE
    _printf_wc                               0x00000000   Number         0  stubs.o ABSOLUTE
    _printf_wctomb                           0x00000000   Number         0  stubs.o ABSOLUTE
    _printf_widthprec                        0x00000000   Number         0  stubs.o ABSOLUTE
    _printf_x                                0x00000000   Number         0  stubs.o ABSOLUTE
    __alloca_longjmp                          - Undefined Weak Reference
    __alloca_setjmp                           - Undefined Weak Reference
    __cpp_initialize__aeabi_                  - Undefined Weak Reference
    __cxa_finalize                            - Undefined Weak Reference
    _clock_init                               - Undefined Weak Reference
    _microlib_exit                            - Undefined Weak Reference
    _scanf_longlong                           - Undefined Weak Reference
    _scanf_real                               - Undefined Weak Reference
    __Vectors_End                            0x000001b8   Data           0  startup_m480.o(RESET)
    __Vectors_Size                           0x000001b8   Number         0  startup_m480.o ABSOLUTE
    __main                                   0x000001b9   Thumb Code     0  entry.o(.ARM.Collect$$$$00000000)
    _main_stk                                0x000001b9   Thumb Code     0  entry2.o(.ARM.Collect$$$$00000001)
    _main_scatterload                        0x000001bd   Thumb Code     0  entry5.o(.ARM.Collect$$$$00000004)
    __main_after_scatterload                 0x000001c1   Thumb Code     0  entry5.o(.ARM.Collect$$$$00000004)
    _main_clock                              0x000001c1   Thumb Code     0  entry7b.o(.ARM.Collect$$$$00000008)
    _main_cpp_init                           0x000001c1   Thumb Code     0  entry8b.o(.ARM.Collect$$$$0000000A)
    _main_init                               0x000001c1   Thumb Code     0  entry9a.o(.ARM.Collect$$$$0000000B)
    __rt_final_cpp                           0x000001c9   Thumb Code     0  entry10a.o(.ARM.Collect$$$$0000000D)
    __rt_final_exit                          0x000001c9   Thumb Code     0  entry11a.o(.ARM.Collect$$$$0000000F)
    SVC_Handler                              0x000001cd   Thumb Code    28  port.o(.emb_text)
    __asm___6_port_c_39a90d8d__prvStartFirstTask 0x000001ed   Thumb Code    36  port.o(.emb_text)
    __asm___6_port_c_39a90d8d__prvEnableVFP  0x00000215   Thumb Code    16  port.o(.emb_text)
    PendSV_Handler                           0x00000229   Thumb Code    88  port.o(.emb_text)
    vPortGetIPSR                             0x00000285   Thumb Code     6  port.o(.emb_text)
    HardFault_Handler                        0x0000028d   Thumb Code    24  retarget.o(.emb_text)
    Reset_Handler                            0x000002a9   Thumb Code    64  startup_m480.o(.text)
    NMI_Handler                              0x000002e9   Thumb Code     2  startup_m480.o(.text)
    MemManage_Handler                        0x000002ed   Thumb Code     2  startup_m480.o(.text)
    BusFault_Handler                         0x000002ef   Thumb Code     2  startup_m480.o(.text)
    UsageFault_Handler                       0x000002f1   Thumb Code     2  startup_m480.o(.text)
    DebugMon_Handler                         0x000002f5   Thumb Code     2  startup_m480.o(.text)
    ACMP01_IRQHandler                        0x000002fb   Thumb Code     0  startup_m480.o(.text)
    ADC00_IRQHandler                         0x000002fb   Thumb Code     0  startup_m480.o(.text)
    ADC01_IRQHandler                         0x000002fb   Thumb Code     0  startup_m480.o(.text)
    ADC02_IRQHandler                         0x000002fb   Thumb Code     0  startup_m480.o(.text)
    ADC03_IRQHandler                         0x000002fb   Thumb Code     0  startup_m480.o(.text)
    BOD_IRQHandler                           0x000002fb   Thumb Code     0  startup_m480.o(.text)
    BPWM0_IRQHandler                         0x000002fb   Thumb Code     0  startup_m480.o(.text)
    BPWM1_IRQHandler                         0x000002fb   Thumb Code     0  startup_m480.o(.text)
    BRAKE0_IRQHandler                        0x000002fb   Thumb Code     0  startup_m480.o(.text)
    BRAKE1_IRQHandler                        0x000002fb   Thumb Code     0  startup_m480.o(.text)
    CAN0_IRQHandler                          0x000002fb   Thumb Code     0  startup_m480.o(.text)
    CAN1_IRQHandler                          0x000002fb   Thumb Code     0  startup_m480.o(.text)
    CKFAIL_IRQHandler                        0x000002fb   Thumb Code     0  startup_m480.o(.text)
    DAC_IRQHandler                           0x000002fb   Thumb Code     0  startup_m480.o(.text)
    ECAP0_IRQHandler                         0x000002fb   Thumb Code     0  startup_m480.o(.text)
    ECAP1_IRQHandler                         0x000002fb   Thumb Code     0  startup_m480.o(.text)
    EHCI_IRQHandler                          0x000002fb   Thumb Code     0  startup_m480.o(.text)
    EINT0_IRQHandler                         0x000002fb   Thumb Code     0  startup_m480.o(.text)
    EINT1_IRQHandler                         0x000002fb   Thumb Code     0  startup_m480.o(.text)
    EINT2_IRQHandler                         0x000002fb   Thumb Code     0  startup_m480.o(.text)
    EINT3_IRQHandler                         0x000002fb   Thumb Code     0  startup_m480.o(.text)
    EINT4_IRQHandler                         0x000002fb   Thumb Code     0  startup_m480.o(.text)
    EINT5_IRQHandler                         0x000002fb   Thumb Code     0  startup_m480.o(.text)
    EINT6_IRQHandler                         0x000002fb   Thumb Code     0  startup_m480.o(.text)
    EINT7_IRQHandler                         0x000002fb   Thumb Code     0  startup_m480.o(.text)
    EMAC_RX_IRQHandler                       0x000002fb   Thumb Code     0  startup_m480.o(.text)
    EMAC_TX_IRQHandler                       0x000002fb   Thumb Code     0  startup_m480.o(.text)
    EPWM0P0_IRQHandler                       0x000002fb   Thumb Code     0  startup_m480.o(.text)
    EPWM0P1_IRQHandler                       0x000002fb   Thumb Code     0  startup_m480.o(.text)
    EPWM0P2_IRQHandler                       0x000002fb   Thumb Code     0  startup_m480.o(.text)
    EPWM1P0_IRQHandler                       0x000002fb   Thumb Code     0  startup_m480.o(.text)
    EPWM1P1_IRQHandler                       0x000002fb   Thumb Code     0  startup_m480.o(.text)
    EPWM1P2_IRQHandler                       0x000002fb   Thumb Code     0  startup_m480.o(.text)
    GPA_IRQHandler                           0x000002fb   Thumb Code     0  startup_m480.o(.text)
    GPB_IRQHandler                           0x000002fb   Thumb Code     0  startup_m480.o(.text)
    GPC_IRQHandler                           0x000002fb   Thumb Code     0  startup_m480.o(.text)
    GPD_IRQHandler                           0x000002fb   Thumb Code     0  startup_m480.o(.text)
    GPE_IRQHandler                           0x000002fb   Thumb Code     0  startup_m480.o(.text)
    GPF_IRQHandler                           0x000002fb   Thumb Code     0  startup_m480.o(.text)
    GPG_IRQHandler                           0x000002fb   Thumb Code     0  startup_m480.o(.text)
    GPH_IRQHandler                           0x000002fb   Thumb Code     0  startup_m480.o(.text)
    I2C0_IRQHandler                          0x000002fb   Thumb Code     0  startup_m480.o(.text)
    I2C1_IRQHandler                          0x000002fb   Thumb Code     0  startup_m480.o(.text)
    I2C2_IRQHandler                          0x000002fb   Thumb Code     0  startup_m480.o(.text)
    I2S0_IRQHandler                          0x000002fb   Thumb Code     0  startup_m480.o(.text)
    IRC_IRQHandler                           0x000002fb   Thumb Code     0  startup_m480.o(.text)
    OHCI_IRQHandler                          0x000002fb   Thumb Code     0  startup_m480.o(.text)
    OPA0_IRQHandler                          0x000002fb   Thumb Code     0  startup_m480.o(.text)
    PDMA_IRQHandler                          0x000002fb   Thumb Code     0  startup_m480.o(.text)
    PWRWU_IRQHandler                         0x000002fb   Thumb Code     0  startup_m480.o(.text)
    QEI0_IRQHandler                          0x000002fb   Thumb Code     0  startup_m480.o(.text)
    QEI1_IRQHandler                          0x000002fb   Thumb Code     0  startup_m480.o(.text)
    QSPI0_IRQHandler                         0x000002fb   Thumb Code     0  startup_m480.o(.text)
    RAMPE_IRQHandler                         0x000002fb   Thumb Code     0  startup_m480.o(.text)
    RTC_IRQHandler                           0x000002fb   Thumb Code     0  startup_m480.o(.text)
    SC0_IRQHandler                           0x000002fb   Thumb Code     0  startup_m480.o(.text)
    SC1_IRQHandler                           0x000002fb   Thumb Code     0  startup_m480.o(.text)
    SC2_IRQHandler                           0x000002fb   Thumb Code     0  startup_m480.o(.text)
    SDH0_IRQHandler                          0x000002fb   Thumb Code     0  startup_m480.o(.text)
    SDH1_IRQHandler                          0x000002fb   Thumb Code     0  startup_m480.o(.text)
    SPI0_IRQHandler                          0x000002fb   Thumb Code     0  startup_m480.o(.text)
    SPI1_IRQHandler                          0x000002fb   Thumb Code     0  startup_m480.o(.text)
    SPI2_IRQHandler                          0x000002fb   Thumb Code     0  startup_m480.o(.text)
    SPI3_IRQHandler                          0x000002fb   Thumb Code     0  startup_m480.o(.text)
    SPIM_IRQHandler                          0x000002fb   Thumb Code     0  startup_m480.o(.text)
    TAMPER_IRQHandler                        0x000002fb   Thumb Code     0  startup_m480.o(.text)
    TMR0_IRQHandler                          0x000002fb   Thumb Code     0  startup_m480.o(.text)
    TMR1_IRQHandler                          0x000002fb   Thumb Code     0  startup_m480.o(.text)
    TMR2_IRQHandler                          0x000002fb   Thumb Code     0  startup_m480.o(.text)
    TMR3_IRQHandler                          0x000002fb   Thumb Code     0  startup_m480.o(.text)
    UART0_IRQHandler                         0x000002fb   Thumb Code     0  startup_m480.o(.text)
    UART2_IRQHandler                         0x000002fb   Thumb Code     0  startup_m480.o(.text)
    UART3_IRQHandler                         0x000002fb   Thumb Code     0  startup_m480.o(.text)
    UART4_IRQHandler                         0x000002fb   Thumb Code     0  startup_m480.o(.text)
    UART5_IRQHandler                         0x000002fb   Thumb Code     0  startup_m480.o(.text)
    USBD20_IRQHandler                        0x000002fb   Thumb Code     0  startup_m480.o(.text)
    USBD_IRQHandler                          0x000002fb   Thumb Code     0  startup_m480.o(.text)
    USBOTG20_IRQHandler                      0x000002fb   Thumb Code     0  startup_m480.o(.text)
    USBOTG_IRQHandler                        0x000002fb   Thumb Code     0  startup_m480.o(.text)
    USCI0_IRQHandler                         0x000002fb   Thumb Code     0  startup_m480.o(.text)
    USCI1_IRQHandler                         0x000002fb   Thumb Code     0  startup_m480.o(.text)
    WDT_IRQHandler                           0x000002fb   Thumb Code     0  startup_m480.o(.text)
    WWDT_IRQHandler                          0x000002fb   Thumb Code     0  startup_m480.o(.text)
    SystemCoreClockUpdate                    0x00000311   Thumb Code    74  system_m480.o(.text)
    SystemInit                               0x0000035b   Thumb Code   182  system_m480.o(.text)
    adc_trng_gen_bit                         0x00000439   Thumb Code   110  entropy_hardware_poll.o(.text)
    adc_trng_gen_rnd                         0x000004a7   Thumb Code    26  entropy_hardware_poll.o(.text)
    init_adc_init                            0x000004c1   Thumb Code   148  entropy_hardware_poll.o(.text)
    CRYPTO_IRQHandler                        0x00000555   Thumb Code    48  entropy_hardware_poll.o(.text)
    mbedtls_hardware_poll                    0x0000061d   Thumb Code    68  entropy_hardware_poll.o(.text)
    numaker_ulRand                           0x00000661   Thumb Code    20  entropy_hardware_poll.o(.text)
    main                                     0x000007b7   Thumb Code    20  main.o(.text)
    vApplicationDaemonTaskStartupHook        0x0000084d   Thumb Code    36  main.o(.text)
    vAssertCalled                            0x00000871   Thumb Code    78  main.o(.text)
    vApplicationIdleHook                     0x000008bf   Thumb Code    42  main.o(.text)
    vApplicationTickHook                     0x000008e9   Thumb Code    12  main.o(.text)
    xEventGroupCreateStatic                  0x00000a4d   Thumb Code    62  event_groups.o(.text)
    xEventGroupCreate                        0x00000a8b   Thumb Code    30  event_groups.o(.text)
    xEventGroupSetBits                       0x00000aa9   Thumb Code   178  event_groups.o(.text)
    xEventGroupSync                          0x00000b5b   Thumb Code   226  event_groups.o(.text)
    xEventGroupWaitBits                      0x00000c5b   Thumb Code   282  event_groups.o(.text)
    xEventGroupClearBits                     0x00000d75   Thumb Code    64  event_groups.o(.text)
    xEventGroupGetBitsFromISR                0x00000db5   Thumb Code    44  event_groups.o(.text)
    vEventGroupDelete                        0x00000de1   Thumb Code    72  event_groups.o(.text)
    vEventGroupSetBitsCallback               0x00000e29   Thumb Code    24  event_groups.o(.text)
    vEventGroupClearBitsCallback             0x00000e41   Thumb Code    16  event_groups.o(.text)
    uxEventGroupGetNumber                    0x00000e51   Thumb Code    14  event_groups.o(.text)
    vEventGroupSetNumber                     0x00000e5f   Thumb Code     4  event_groups.o(.text)
    vListInitialise                          0x00000e63   Thumb Code    26  list.o(.text)
    vListInitialiseItem                      0x00000e7d   Thumb Code     6  list.o(.text)
    vListInsertEnd                           0x00000e83   Thumb Code    24  list.o(.text)
    vListInsert                              0x00000e9b   Thumb Code    52  list.o(.text)
    uxListRemove                             0x00000ecf   Thumb Code    40  list.o(.text)
    xQueueGenericReset                       0x00000ef9   Thumb Code   132  queue.o(.text)
    xQueueGenericCreateStatic                0x00000fa7   Thumb Code   154  queue.o(.text)
    xQueueGenericCreate                      0x00001041   Thumb Code    82  queue.o(.text)
    xQueueGenericSend                        0x000011ad   Thumb Code   374  queue.o(.text)
    xQueueCreateMutex                        0x00001341   Thumb Code    34  queue.o(.text)
    xQueueCreateMutexStatic                  0x00001363   Thumb Code    42  queue.o(.text)
    xQueueGetMutexHolder                     0x0000138d   Thumb Code    28  queue.o(.text)
    xQueueGetMutexHolderFromISR              0x000013a9   Thumb Code    28  queue.o(.text)
    xQueueGiveMutexRecursive                 0x000013c5   Thumb Code    58  queue.o(.text)
    xQueueSemaphoreTake                      0x0000142d   Thumb Code   378  queue.o(.text)
    xQueueTakeMutexRecursive                 0x000015a7   Thumb Code    64  queue.o(.text)
    xQueueCreateCountingSemaphoreStatic      0x000015e7   Thumb Code    72  queue.o(.text)
    xQueueCreateCountingSemaphore            0x0000162f   Thumb Code    64  queue.o(.text)
    xQueueGenericSendFromISR                 0x0000166f   Thumb Code   206  queue.o(.text)
    xQueueGiveFromISR                        0x0000173d   Thumb Code   192  queue.o(.text)
    xQueueReceive                            0x00001827   Thumb Code   314  queue.o(.text)
    xQueuePeek                               0x00001961   Thumb Code   320  queue.o(.text)
    xQueueReceiveFromISR                     0x00001aa1   Thumb Code   174  queue.o(.text)
    xQueuePeekFromISR                        0x00001b4f   Thumb Code   134  queue.o(.text)
    uxQueueMessagesWaiting                   0x00001bd5   Thumb Code    28  queue.o(.text)
    uxQueueSpacesAvailable                   0x00001bf1   Thumb Code    34  queue.o(.text)
    uxQueueMessagesWaitingFromISR            0x00001c13   Thumb Code    30  queue.o(.text)
    vQueueUnregisterQueue                    0x00001c31   Thumb Code    44  queue.o(.text)
    vQueueDelete                             0x00001c5d   Thumb Code    36  queue.o(.text)
    uxQueueGetQueueNumber                    0x00001c81   Thumb Code     6  queue.o(.text)
    vQueueSetQueueNumber                     0x00001c87   Thumb Code     4  queue.o(.text)
    ucQueueGetQueueType                      0x00001c8b   Thumb Code     8  queue.o(.text)
    xQueueIsQueueEmptyFromISR                0x00001c93   Thumb Code    30  queue.o(.text)
    xQueueIsQueueFullFromISR                 0x00001cb1   Thumb Code    34  queue.o(.text)
    vQueueAddToRegistry                      0x00001cd3   Thumb Code    38  queue.o(.text)
    pcQueueGetName                           0x00001cf9   Thumb Code    38  queue.o(.text)
    vQueueWaitForMessageRestricted           0x00001d1f   Thumb Code    74  queue.o(.text)
    xTaskCreateStatic                        0x00001f05   Thumb Code   142  tasks.o(.text)
    xTaskCreate                              0x00001f93   Thumb Code   100  tasks.o(.text)
    vTaskDelete                              0x00002063   Thumb Code   188  tasks.o(.text)
    xTaskIncrementTick                       0x0000211f   Thumb Code   368  tasks.o(.text)
    xTaskResumeAll                           0x0000228f   Thumb Code   210  tasks.o(.text)
    vTaskSuspendAll                          0x000023dd   Thumb Code    12  tasks.o(.text)
    vTaskDelayUntil                          0x000023e9   Thumb Code   158  tasks.o(.text)
    vTaskDelay                               0x00002487   Thumb Code    68  tasks.o(.text)
    eTaskGetState                            0x000024cb   Thumb Code   114  tasks.o(.text)
    uxTaskPriorityGet                        0x0000253d   Thumb Code    30  tasks.o(.text)
    uxTaskPriorityGetFromISR                 0x0000255b   Thumb Code    62  tasks.o(.text)
    vTaskPrioritySet                         0x00002599   Thumb Code   310  tasks.o(.text)
    vTaskSwitchContext                       0x000026cf   Thumb Code   178  tasks.o(.text)
    vTaskSuspend                             0x00002781   Thumb Code   196  tasks.o(.text)
    vTaskResume                              0x00002889   Thumb Code   114  tasks.o(.text)
    xTaskResumeFromISR                       0x000028fb   Thumb Code   144  tasks.o(.text)
    vTaskStartScheduler                      0x00002a25   Thumb Code   142  tasks.o(.text)
    vTaskEndScheduler                        0x00002ab3   Thumb Code    32  tasks.o(.text)
    xTaskGetTickCount                        0x00002ad3   Thumb Code     6  tasks.o(.text)
    xTaskGetTickCountFromISR                 0x00002ad9   Thumb Code    16  tasks.o(.text)
    uxTaskGetNumberOfTasks                   0x00002ae9   Thumb Code     6  tasks.o(.text)
    pcTaskGetName                            0x00002aef   Thumb Code    32  tasks.o(.text)
    vTaskGetInfo                             0x00002b25   Thumb Code   126  tasks.o(.text)
    uxTaskGetSystemState                     0x00002c0d   Thumb Code   152  tasks.o(.text)
    vTaskSetApplicationTaskTag               0x00002ca5   Thumb Code    28  tasks.o(.text)
    xTaskGetApplicationTaskTag               0x00002cc1   Thumb Code    30  tasks.o(.text)
    xTaskGetApplicationTaskTagFromISR        0x00002cdf   Thumb Code    54  tasks.o(.text)
    xTaskCallApplicationTaskHook             0x00002d15   Thumb Code    40  tasks.o(.text)
    vTaskPlaceOnEventList                    0x00002d3d   Thumb Code    38  tasks.o(.text)
    vTaskPlaceOnUnorderedEventList           0x00002d63   Thumb Code    72  tasks.o(.text)
    vTaskPlaceOnEventListRestricted          0x00002dab   Thumb Code    46  tasks.o(.text)
    xTaskRemoveFromEventList                 0x00002dd9   Thumb Code   184  tasks.o(.text)
    vTaskRemoveFromUnorderedEventList        0x00002e91   Thumb Code   114  tasks.o(.text)
    vTaskSetTimeOutState                     0x00002f03   Thumb Code    36  tasks.o(.text)
    vTaskInternalSetTimeOutState             0x00002f27   Thumb Code    14  tasks.o(.text)
    xTaskCheckForTimeOut                     0x00002f35   Thumb Code   104  tasks.o(.text)
    vTaskMissedYield                         0x00002f9d   Thumb Code     8  tasks.o(.text)
    uxTaskGetTaskNumber                      0x00002fa5   Thumb Code    14  tasks.o(.text)
    vTaskSetTaskNumber                       0x00002fb3   Thumb Code     8  tasks.o(.text)
    xTaskGetCurrentTaskHandle                0x00002fbb   Thumb Code     6  tasks.o(.text)
    xTaskGetSchedulerState                   0x00002fc1   Thumb Code    24  tasks.o(.text)
    xTaskPriorityInherit                     0x00002fd9   Thumb Code   186  tasks.o(.text)
    xTaskPriorityDisinherit                  0x00003093   Thumb Code   160  tasks.o(.text)
    vTaskPriorityDisinheritAfterTimeout      0x00003133   Thumb Code   202  tasks.o(.text)
    uxTaskResetEventItemValue                0x000031fd   Thumb Code    24  tasks.o(.text)
    pvTaskIncrementMutexHeldCount            0x00003215   Thumb Code    26  tasks.o(.text)
    ulTaskNotifyTake                         0x0000322f   Thumb Code   156  tasks.o(.text)
    xTaskNotifyWait                          0x000032cb   Thumb Code   150  tasks.o(.text)
    xTaskGenericNotify                       0x00003361   Thumb Code   238  tasks.o(.text)
    xTaskGenericNotifyFromISR                0x0000344f   Thumb Code   292  tasks.o(.text)
    vTaskNotifyGiveFromISR                   0x00003573   Thumb Code   186  tasks.o(.text)
    xTaskNotifyStateClear                    0x0000362d   Thumb Code    48  tasks.o(.text)
    xTimerGenericCommand                     0x000036cd   Thumb Code   112  timers.o(.text)
    xTimerCreateTimerTask                    0x00003a5d   Thumb Code   154  timers.o(.text)
    xTimerCreate                             0x00003b43   Thumb Code    54  timers.o(.text)
    xTimerCreateStatic                       0x00003b79   Thumb Code    86  timers.o(.text)
    xTimerGetTimerDaemonTaskHandle           0x00003bcf   Thumb Code    30  timers.o(.text)
    xTimerGetPeriod                          0x00003bed   Thumb Code    20  timers.o(.text)
    vTimerSetReloadMode                      0x00003c01   Thumb Code    56  timers.o(.text)
    xTimerGetExpiryTime                      0x00003c39   Thumb Code    22  timers.o(.text)
    pcTimerGetName                           0x00003c4f   Thumb Code    20  timers.o(.text)
    xTimerIsTimerActive                      0x00003c63   Thumb Code    44  timers.o(.text)
    pvTimerGetTimerID                        0x00003c8f   Thumb Code    30  timers.o(.text)
    vTimerSetTimerID                         0x00003cad   Thumb Code    30  timers.o(.text)
    uxTimerGetTimerNumber                    0x00003ccb   Thumb Code     6  timers.o(.text)
    vTimerSetTimerNumber                     0x00003cd1   Thumb Code     4  timers.o(.text)
    pxPortInitialiseStack                    0x00003d0b   Thumb Code    38  port.o(.text)
    vPortSetupTimerInterrupt                 0x00003d31   Thumb Code    36  port.o(.text)
    xPortStartScheduler                      0x00003d55   Thumb Code   274  port.o(.text)
    vPortEndScheduler                        0x00003e67   Thumb Code    30  port.o(.text)
    vPortEnterCritical                       0x00003e85   Thumb Code    66  port.o(.text)
    vPortExitCritical                        0x00003ec7   Thumb Code    44  port.o(.text)
    SysTick_Handler                          0x00003ef3   Thumb Code    48  port.o(.text)
    vPortValidateInterruptPriority           0x00003f23   Thumb Code    80  port.o(.text)
    pvPortMalloc                             0x0000405f   Thumb Code   264  heap_4.o(.text)
    vPortFree                                0x00004167   Thumb Code   112  heap_4.o(.text)
    xPortGetFreeHeapSize                     0x000041d7   Thumb Code     6  heap_4.o(.text)
    xPortGetMinimumEverFreeHeapSize          0x000041dd   Thumb Code     6  heap_4.o(.text)
    vPortInitialiseBlocks                    0x000041e3   Thumb Code     2  heap_4.o(.text)
    Hard_Fault_Handler                       0x00004247   Thumb Code    18  retarget.o(.text)
    kbhit                                    0x000042a7   Thumb Code    10  retarget.o(.text)
    IsDebugFifoEmpty                         0x000042b1   Thumb Code    10  retarget.o(.text)
    _ttywrch                                 0x000042bb   Thumb Code    12  retarget.o(.text)
    fputc                                    0x000042c7   Thumb Code    16  retarget.o(.text)
    fgetc                                    0x000042d7   Thumb Code    10  retarget.o(.text)
    ferror                                   0x000042e1   Thumb Code     8  retarget.o(.text)
    CLK_DisableModuleClock                   0x00004365   Thumb Code    36  clk.o(.text)
    CLK_DisableCKO                           0x00004389   Thumb Code    10  clk.o(.text)
    CLK_SetModuleClock                       0x00004393   Thumb Code   108  clk.o(.text)
    CLK_EnableModuleClock                    0x000043ff   Thumb Code    36  clk.o(.text)
    CLK_EnableCKO                            0x00004423   Thumb Code    40  clk.o(.text)
    CLK_PowerDown                            0x0000444b   Thumb Code    32  clk.o(.text)
    CLK_Idle                                 0x0000446b   Thumb Code    32  clk.o(.text)
    CLK_GetHXTFreq                           0x0000448b   Thumb Code    20  clk.o(.text)
    CLK_GetLXTFreq                           0x0000449f   Thumb Code    22  clk.o(.text)
    CLK_GetPCLK0Freq                         0x000044b5   Thumb Code   120  clk.o(.text)
    CLK_GetPCLK1Freq                         0x0000452d   Thumb Code   120  clk.o(.text)
    CLK_GetHCLKFreq                          0x000045a5   Thumb Code    12  clk.o(.text)
    CLK_GetCPUFreq                           0x000045b1   Thumb Code    12  clk.o(.text)
    CLK_WaitClockReady                       0x000045bd   Thumb Code    38  clk.o(.text)
    CLK_SetHCLK                              0x000045e3   Thumb Code   120  clk.o(.text)
    CLK_GetPLLClockFreq                      0x0000465b   Thumb Code   106  clk.o(.text)
    CLK_DisablePLL                           0x000046c5   Thumb Code    20  clk.o(.text)
    CLK_EnablePLL                            0x000046d9   Thumb Code   412  clk.o(.text)
    CLK_SetCoreClock                         0x00004875   Thumb Code   158  clk.o(.text)
    CLK_SetSysTickClockSrc                   0x00004913   Thumb Code    22  clk.o(.text)
    CLK_EnableXtalRC                         0x00004929   Thumb Code    18  clk.o(.text)
    CLK_DisableXtalRC                        0x0000493b   Thumb Code    18  clk.o(.text)
    CLK_EnableSysTick                        0x0000494d   Thumb Code    70  clk.o(.text)
    CLK_DisableSysTick                       0x00004993   Thumb Code    10  clk.o(.text)
    CLK_SetPowerDownMode                     0x0000499d   Thumb Code    58  clk.o(.text)
    CLK_EnableDPDWKPin                       0x000049d7   Thumb Code    22  clk.o(.text)
    CLK_GetPMUWKSrc                          0x000049ed   Thumb Code     8  clk.o(.text)
    CLK_EnableSPDWKPin                       0x000049f5   Thumb Code    44  clk.o(.text)
    CLK_GetModuleClockSource                 0x00004a21   Thumb Code   134  clk.o(.text)
    CLK_GetModuleClockDivider                0x00004aa7   Thumb Code    64  clk.o(.text)
    PRNG_Open                                0x00004b15   Thumb Code    16  crypto.o(.text)
    PRNG_Start                               0x00004b25   Thumb Code    10  crypto.o(.text)
    PRNG_Read                                0x00004b2f   Thumb Code    46  crypto.o(.text)
    AES_Open                                 0x00004b5d   Thumb Code    40  crypto.o(.text)
    AES_Start                                0x00004b85   Thumb Code    30  crypto.o(.text)
    AES_SetKey                               0x00004ba3   Thumb Code    42  crypto.o(.text)
    AES_SetInitVect                          0x00004bcd   Thumb Code    36  crypto.o(.text)
    AES_SetDMATransfer                       0x00004bf1   Thumb Code    46  crypto.o(.text)
    TDES_Open                                0x00004c1f   Thumb Code    64  crypto.o(.text)
    TDES_Start                               0x00004c5f   Thumb Code    34  crypto.o(.text)
    TDES_SetKey                              0x00004c81   Thumb Code    46  crypto.o(.text)
    TDES_SetInitVect                         0x00004caf   Thumb Code    22  crypto.o(.text)
    TDES_SetDMATransfer                      0x00004cc5   Thumb Code    34  crypto.o(.text)
    SHA_Open                                 0x00004ce7   Thumb Code    32  crypto.o(.text)
    SHA_Start                                0x00004d07   Thumb Code    30  crypto.o(.text)
    SHA_SetDMATransfer                       0x00004d25   Thumb Code    10  crypto.o(.text)
    SHA_Read                                 0x00004d2f   Thumb Code    70  crypto.o(.text)
    ECC_Complete                             0x000051c7   Thumb Code    38  crypto.o(.text)
    ECC_IsPrivateKeyValid                    0x000051ed   Thumb Code   168  crypto.o(.text)
    ECC_GeneratePublicKey                    0x00005295   Thumb Code   300  crypto.o(.text)
    ECC_Mutiply                              0x000053c1   Thumb Code   222  crypto.o(.text)
    ECC_GenerateSecretZ                      0x0000549f   Thumb Code   274  crypto.o(.text)
    ECC_GenerateSignature                    0x00005625   Thumb Code   616  crypto.o(.text)
    ECC_VerifySignature                      0x0000588d   Thumb Code   884  crypto.o(.text)
    FMC_Close                                0x00005c09   Thumb Code    14  fmc.o(.text)
    FMC_Erase_SPROM                          0x00005c17   Thumb Code    64  fmc.o(.text)
    FMC_Erase                                0x00005c57   Thumb Code    78  fmc.o(.text)
    FMC_Erase_Block                          0x00005ca5   Thumb Code    60  fmc.o(.text)
    FMC_Erase_Bank                           0x00005ce1   Thumb Code    60  fmc.o(.text)
    FMC_GetBootSource                        0x00005d1d   Thumb Code    16  fmc.o(.text)
    FMC_Open                                 0x00005d2d   Thumb Code    14  fmc.o(.text)
    FMC_Read                                 0x00005d3b   Thumb Code    36  fmc.o(.text)
    FMC_Read_64                              0x00005d5f   Thumb Code    84  fmc.o(.text)
    FMC_ReadDataFlashBaseAddr                0x00005db3   Thumb Code     6  fmc.o(.text)
    FMC_SetBootSource                        0x00005db9   Thumb Code    30  fmc.o(.text)
    FMC_Write                                0x00005dd7   Thumb Code    32  fmc.o(.text)
    FMC_Write8Bytes                          0x00005df7   Thumb Code    74  fmc.o(.text)
    FMC_WriteMultiple                        0x00005e41   Thumb Code   306  fmc.o(.text)
    FMC_Write_OTP                            0x00005f73   Thumb Code   160  fmc.o(.text)
    FMC_Read_OTP                             0x00006013   Thumb Code    98  fmc.o(.text)
    FMC_Lock_OTP                             0x00006075   Thumb Code    76  fmc.o(.text)
    FMC_Is_OTP_Locked                        0x000060c1   Thumb Code    84  fmc.o(.text)
    FMC_ReadConfig                           0x00006115   Thumb Code    38  fmc.o(.text)
    FMC_WriteConfig                          0x0000613b   Thumb Code    58  fmc.o(.text)
    FMC_GetChkSum                            0x00006175   Thumb Code    86  fmc.o(.text)
    FMC_CheckAllOne                          0x000061cb   Thumb Code   110  fmc.o(.text)
    FMC_SetSPKey                             0x00006239   Thumb Code   262  fmc.o(.text)
    FMC_CompareSPKey                         0x0000633f   Thumb Code    94  fmc.o(.text)
    SYS_ClearResetSrc                        0x000063b9   Thumb Code    16  sys.o(.text)
    SYS_GetBODStatus                         0x000063c9   Thumb Code    12  sys.o(.text)
    SYS_GetResetSrc                          0x000063d5   Thumb Code     8  sys.o(.text)
    SYS_IsRegLocked                          0x000063dd   Thumb Code    14  sys.o(.text)
    SYS_ReadPDID                             0x000063eb   Thumb Code     8  sys.o(.text)
    SYS_ResetChip                            0x000063f3   Thumb Code    18  sys.o(.text)
    SYS_ResetCPU                             0x00006405   Thumb Code    18  sys.o(.text)
    SYS_ResetModule                          0x00006417   Thumb Code    38  sys.o(.text)
    SYS_EnableBOD                            0x0000643d   Thumb Code    42  sys.o(.text)
    SYS_DisableBOD                           0x00006467   Thumb Code    18  sys.o(.text)
    SYS_SetPowerLevel                        0x00006479   Thumb Code    22  sys.o(.text)
    UART_ClearIntFlag                        0x00006495   Thumb Code    66  uart.o(.text)
    UART_Close                               0x000064d7   Thumb Code     6  uart.o(.text)
    UART_DisableFlowCtrl                     0x000064dd   Thumb Code    10  uart.o(.text)
    UART_DisableInt                          0x000064e7   Thumb Code     8  uart.o(.text)
    UART_EnableFlowCtrl                      0x000064ef   Thumb Code    26  uart.o(.text)
    UART_EnableInt                           0x00006509   Thumb Code     8  uart.o(.text)
    UART_Open                                0x00006511   Thumb Code   284  uart.o(.text)
    UART_Read                                0x0000662d   Thumb Code    58  uart.o(.text)
    UART_SetLineConfig                       0x00006667   Thumb Code   290  uart.o(.text)
    UART_SetTimeoutCnt                       0x00006789   Thumb Code    20  uart.o(.text)
    UART_SelectIrDAMode                      0x0000679d   Thumb Code   328  uart.o(.text)
    UART_SelectRS485Mode                     0x000068e5   Thumb Code    26  uart.o(.text)
    UART_SelectLINMode                       0x000068ff   Thumb Code    26  uart.o(.text)
    UART_Write                               0x00006919   Thumb Code    58  uart.o(.text)
    vApplicationGetIdleTaskMemory            0x00006959   Thumb Code    16  aws_test.o(.text)
    vApplicationGetTimerTaskMemory           0x00006969   Thumb Code    16  aws_test.o(.text)
    TEST_RUNNER_RunTests_task                0x00006991   Thumb Code    50  aws_test_runner.o(.text)
    vApplicationMallocFailedHook             0x000069f9   Thumb Code    22  iot_test_afr.o(.text)
    vApplicationStackOverflowHook            0x00006a0f   Thumb Code    32  iot_test_afr.o(.text)
    WIFI_On                                  0x00006a59   Thumb Code   102  aws_wifi.o(.text)
    WIFI_Off                                 0x00006abf   Thumb Code     4  aws_wifi.o(.text)
    WIFI_ConnectAP                           0x00006ac3   Thumb Code   152  aws_wifi.o(.text)
    WIFI_Disconnect                          0x00006b5b   Thumb Code    56  aws_wifi.o(.text)
    WIFI_Reset                               0x00006b93   Thumb Code    56  aws_wifi.o(.text)
    WIFI_Scan                                0x00006bcb   Thumb Code    70  aws_wifi.o(.text)
    WIFI_SetMode                             0x00006c11   Thumb Code     6  aws_wifi.o(.text)
    WIFI_GetMode                             0x00006c17   Thumb Code     6  aws_wifi.o(.text)
    WIFI_NetworkAdd                          0x00006c1d   Thumb Code     6  aws_wifi.o(.text)
    WIFI_NetworkGet                          0x00006c23   Thumb Code     6  aws_wifi.o(.text)
    WIFI_NetworkDelete                       0x00006c29   Thumb Code     6  aws_wifi.o(.text)
    WIFI_Ping                                0x00006c2f   Thumb Code   118  aws_wifi.o(.text)
    WIFI_GetIP                               0x00006ca5   Thumb Code    74  aws_wifi.o(.text)
    WIFI_GetMAC                              0x00006cef   Thumb Code    76  aws_wifi.o(.text)
    WIFI_GetHostIP                           0x00006d3b   Thumb Code    72  aws_wifi.o(.text)
    WIFI_StartAP                             0x00006d83   Thumb Code     4  aws_wifi.o(.text)
    WIFI_StopAP                              0x00006d87   Thumb Code     4  aws_wifi.o(.text)
    WIFI_ConfigureAP                         0x00006d8b   Thumb Code     6  aws_wifi.o(.text)
    WIFI_SetPMMode                           0x00006d91   Thumb Code     6  aws_wifi.o(.text)
    WIFI_GetPMMode                           0x00006d97   Thumb Code     6  aws_wifi.o(.text)
    WIFI_IsConnected                         0x00006d9d   Thumb Code    54  aws_wifi.o(.text)
    WIFI_RegisterNetworkStateChangeEventCallback 0x00006dd3   Thumb Code     6  aws_wifi.o(.text)
    RX_BUF_PUSH                              0x00006e09   Thumb Code    34  esp8266_wifi.o(.text)
    RX_BUF_POP                               0x00006e2b   Thumb Code    34  esp8266_wifi.o(.text)
    RX_BUF_FULL                              0x00006e4d   Thumb Code    44  esp8266_wifi.o(.text)
    RX_BUF_COUNT                             0x00006e79   Thumb Code    44  esp8266_wifi.o(.text)
    ESP_Platform_Init                        0x000070cd   Thumb Code   136  esp8266_wifi.o(.text)
    ESP_IO_Send                              0x00007155   Thumb Code    22  esp8266_wifi.o(.text)
    UART1_IRQHandler                         0x0000716b   Thumb Code    44  esp8266_wifi.o(.text)
    ESP_IO_Recv                              0x00007197   Thumb Code   912  esp8266_wifi.o(.text)
    ESP_WIFI_CheckDnsServer                  0x000075a7   Thumb Code   138  esp8266_wifi.o(.text)
    ESP_WIFI_Reset                           0x00007631   Thumb Code    78  esp8266_wifi.o(.text)
    ESP_WIFI_Init                            0x0000767f   Thumb Code    34  esp8266_wifi.o(.text)
    ESP_WIFI_SetMultiConn                    0x000076a1   Thumb Code   516  esp8266_wifi.o(.text)
    ESP_WIFI_Connect                         0x000078a5   Thumb Code    92  esp8266_wifi.o(.text)
    ESP_WIFI_Disconnect                      0x00007901   Thumb Code    34  esp8266_wifi.o(.text)
    ESP_WIFI_Scan                            0x00007923   Thumb Code    40  esp8266_wifi.o(.text)
    ESP_WIFI_IsConnected                     0x0000794b   Thumb Code     8  esp8266_wifi.o(.text)
    ESP_WIFI_GetNetStatus                    0x00007953   Thumb Code    28  esp8266_wifi.o(.text)
    ESP_WIFI_Reset_Ipd                       0x0000796f   Thumb Code    22  esp8266_wifi.o(.text)
    ESP_WIFI_Get_Ipd_Size                    0x00007985   Thumb Code    22  esp8266_wifi.o(.text)
    ESP_WIFI_GetConnStatus                   0x0000799b   Thumb Code   144  esp8266_wifi.o(.text)
    ESP_WIFI_Ping                            0x00007a2b   Thumb Code    42  esp8266_wifi.o(.text)
    ESP_WIFI_GetHostIP                       0x00007a55   Thumb Code   120  esp8266_wifi.o(.text)
    ESP_WIFI_StartClient                     0x00007acd   Thumb Code   414  esp8266_wifi.o(.text)
    ESP_WIFI_StopClient                      0x00007c6b   Thumb Code   414  esp8266_wifi.o(.text)
    ESP_WIFI_Send                            0x00007e09   Thumb Code   460  esp8266_wifi.o(.text)
    ESP_WIFI_Recv                            0x00007fd5   Thumb Code   780  esp8266_wifi.o(.text)
    CRYPTO_ConfigureHeap                     0x00008375   Thumb Code    12  aws_crypto.o(.text)
    CRYPTO_SignatureVerificationStart        0x00008381   Thumb Code    88  aws_crypto.o(.text)
    CRYPTO_SignatureVerificationUpdate       0x000083d9   Thumb Code    48  aws_crypto.o(.text)
    CRYPTO_SignatureVerificationFinal        0x00008409   Thumb Code   128  aws_crypto.o(.text)
    aws_mbedtls_mutex_init                   0x00008491   Thumb Code    34  aws_pkcs11_mbedtls.o(.text)
    aws_mbedtls_mutex_free                   0x000084b3   Thumb Code    22  aws_pkcs11_mbedtls.o(.text)
    aws_mbedtls_mutex_lock                   0x000084c9   Thumb Code    42  aws_pkcs11_mbedtls.o(.text)
    aws_mbedtls_mutex_unlock                 0x000084f3   Thumb Code    46  aws_pkcs11_mbedtls.o(.text)
    prvSessionPointerFromHandle              0x00008521   Thumb Code     2  aws_pkcs11_mbedtls.o(.text)
    prvMbedTLS_Initialize                    0x00008523   Thumb Code    90  aws_pkcs11_mbedtls.o(.text)
    C_Initialize                             0x0000857d   Thumb Code    10  aws_pkcs11_mbedtls.o(.text)
    C_Finalize                               0x00008587   Thumb Code    46  aws_pkcs11_mbedtls.o(.text)
    C_GetFunctionList                        0x000085b5   Thumb Code    16  aws_pkcs11_mbedtls.o(.text)
    C_GetSlotList                            0x000085c5   Thumb Code    38  aws_pkcs11_mbedtls.o(.text)
    C_OpenSession                            0x000085eb   Thumb Code   128  aws_pkcs11_mbedtls.o(.text)
    C_CloseSession                           0x0000866b   Thumb Code    84  aws_pkcs11_mbedtls.o(.text)
    C_CreateObject                           0x000086bf   Thumb Code   388  aws_pkcs11_mbedtls.o(.text)
    C_DestroyObject                          0x00008843   Thumb Code     6  aws_pkcs11_mbedtls.o(.text)
    C_GetAttributeValue                      0x00008849   Thumb Code   488  aws_pkcs11_mbedtls.o(.text)
    C_FindObjectsInit                        0x00008a31   Thumb Code   122  aws_pkcs11_mbedtls.o(.text)
    C_FindObjects                            0x00008aab   Thumb Code   122  aws_pkcs11_mbedtls.o(.text)
    C_FindObjectsFinal                       0x00008b25   Thumb Code    42  aws_pkcs11_mbedtls.o(.text)
    C_DigestInit                             0x00008b4f   Thumb Code    68  aws_pkcs11_mbedtls.o(.text)
    C_DigestUpdate                           0x00008b93   Thumb Code    64  aws_pkcs11_mbedtls.o(.text)
    C_DigestFinal                            0x00008bd3   Thumb Code    90  aws_pkcs11_mbedtls.o(.text)
    C_SignInit                               0x00008c2d   Thumb Code   146  aws_pkcs11_mbedtls.o(.text)
    C_Sign                                   0x00008cbf   Thumb Code   128  aws_pkcs11_mbedtls.o(.text)
    C_VerifyInit                             0x00008d3f   Thumb Code   172  aws_pkcs11_mbedtls.o(.text)
    C_Verify                                 0x00008deb   Thumb Code   252  aws_pkcs11_mbedtls.o(.text)
    C_GenerateKeyPair                        0x00008ee7   Thumb Code   210  aws_pkcs11_mbedtls.o(.text)
    C_GenerateRandom                         0x00008fb9   Thumb Code    40  aws_pkcs11_mbedtls.o(.text)
    PKCS11_PAL_SaveObject                    0x00009201   Thumb Code    48  aws_pkcs11_pal.o(.text)
    PKCS11_PAL_FindObject                    0x00009231   Thumb Code    48  aws_pkcs11_pal.o(.text)
    PKCS11_PAL_GetObjectValue                0x00009261   Thumb Code    94  aws_pkcs11_pal.o(.text)
    PKCS11_PAL_GetObjectValueCleanup         0x000092bf   Thumb Code     2  aws_pkcs11_pal.o(.text)
    SOCKETS_Socket                           0x00009587   Thumb Code   224  aws_secure_sockets.o(.text)
    SOCKETS_Connect                          0x00009667   Thumb Code   236  aws_secure_sockets.o(.text)
    SOCKETS_Recv                             0x00009753   Thumb Code   208  aws_secure_sockets.o(.text)
    SOCKETS_Send                             0x00009823   Thumb Code   130  aws_secure_sockets.o(.text)
    SOCKETS_Shutdown                         0x000098a5   Thumb Code   118  aws_secure_sockets.o(.text)
    SOCKETS_Close                            0x0000991b   Thumb Code   180  aws_secure_sockets.o(.text)
    SOCKETS_SetSockOpt                       0x000099cf   Thumb Code   264  aws_secure_sockets.o(.text)
    SOCKETS_GetHostByName                    0x00009ad7   Thumb Code    74  aws_secure_sockets.o(.text)
    SOCKETS_Init                             0x00009b21   Thumb Code    64  aws_secure_sockets.o(.text)
    TEST_Full_TCP_SETUP                      0x00009ba9   Thumb Code     2  aws_test_tcp.o(.text)
    TEST_Full_TCP_TEAR_DOWN                  0x00009bab   Thumb Code    52  aws_test_tcp.o(.text)
    TEST_Full_TCP_AFQP_SECURE_SOCKETS_SetSecureOptionsAfterConnect_ 0x0000a28f   Thumb Code   270  aws_test_tcp.o(.text)
    TEST_Full_TCP_AFQP_SECURE_SOCKETS_SetSecureOptionsAfterConnect_run 0x0000a39d   Thumb Code    42  aws_test_tcp.o(.text)
    TEST_Full_TCP_AFQP_SECURE_SOCKETS_TwoSecureConnections_ 0x0000a8eb   Thumb Code     8  aws_test_tcp.o(.text)
    TEST_Full_TCP_AFQP_SECURE_SOCKETS_TwoSecureConnections_run 0x0000a8f3   Thumb Code    42  aws_test_tcp.o(.text)
    TEST_Full_TCP_AFQP_SECURE_SOCKETS_NonBlockingConnect_ 0x0000a96b   Thumb Code     8  aws_test_tcp.o(.text)
    TEST_Full_TCP_AFQP_SECURE_SOCKETS_NonBlockingConnect_run 0x0000a973   Thumb Code    42  aws_test_tcp.o(.text)
    TEST_Full_TCP_AFQP_SECURE_SOCKETS_SockEventHandler_ 0x0000aa7b   Thumb Code     8  aws_test_tcp.o(.text)
    TEST_Full_TCP_AFQP_SECURE_SOCKETS_SockEventHandler_run 0x0000aa83   Thumb Code    42  aws_test_tcp.o(.text)
    TEST_Full_TCP_AFQP_SECURE_SOCKETS_Recv_Invalid_ 0x0000ab41   Thumb Code    10  aws_test_tcp.o(.text)
    TEST_Full_TCP_AFQP_SECURE_SOCKETS_Recv_Invalid_run 0x0000ab4b   Thumb Code    42  aws_test_tcp.o(.text)
    TEST_Full_TCP_AFQP_SECURE_SOCKETS_Send_Invalid_ 0x0000aff9   Thumb Code    10  aws_test_tcp.o(.text)
    TEST_Full_TCP_AFQP_SECURE_SOCKETS_Send_Invalid_run 0x0000b003   Thumb Code    38  aws_test_tcp.o(.text)
    TEST_Full_TCP_AFQP_SECURE_SOCKETS_SendRecv_VaryLength_ 0x0000b157   Thumb Code    10  aws_test_tcp.o(.text)
    TEST_Full_TCP_AFQP_SECURE_SOCKETS_SendRecv_VaryLength_run 0x0000b161   Thumb Code    38  aws_test_tcp.o(.text)
    TEST_Full_TCP_AFQP_SECURE_SOCKETS_Recv_ByteByByte_ 0x0000b29d   Thumb Code    10  aws_test_tcp.o(.text)
    TEST_Full_TCP_AFQP_SECURE_SOCKETS_Recv_ByteByByte_run 0x0000b2a7   Thumb Code    38  aws_test_tcp.o(.text)
    TEST_Full_TCP_AFQP_SECURE_SOCKETS_Close_ 0x0000b6a1   Thumb Code    10  aws_test_tcp.o(.text)
    TEST_Full_TCP_AFQP_SECURE_SOCKETS_Close_run 0x0000b6ab   Thumb Code    38  aws_test_tcp.o(.text)
    TEST_Full_TCP_AFQP_SECURE_SOCKETS_Shutdown_ 0x0000b855   Thumb Code    10  aws_test_tcp.o(.text)
    TEST_Full_TCP_AFQP_SECURE_SOCKETS_Shutdown_run 0x0000b85f   Thumb Code    38  aws_test_tcp.o(.text)
    TEST_Full_TCP_AFQP_SECURE_SOCKETS_SetSockOpt_InvalidParams_ 0x0000ba65   Thumb Code    10  aws_test_tcp.o(.text)
    TEST_Full_TCP_AFQP_SECURE_SOCKETS_SetSockOpt_InvalidParams_run 0x0000ba6f   Thumb Code    38  aws_test_tcp.o(.text)
    TEST_Full_TCP_AFQP_SECURE_SOCKETS_NonBlocking_Test_ 0x0000bc3d   Thumb Code    10  aws_test_tcp.o(.text)
    TEST_Full_TCP_AFQP_SECURE_SOCKETS_NonBlocking_Test_run 0x0000bc47   Thumb Code    38  aws_test_tcp.o(.text)
    TEST_Full_TCP_AFQP_SECURE_SOCKETS_SetSockOpt_RCVTIMEO_ 0x0000bd8f   Thumb Code    10  aws_test_tcp.o(.text)
    TEST_Full_TCP_AFQP_SECURE_SOCKETS_SetSockOpt_RCVTIMEO_run 0x0000bd99   Thumb Code    38  aws_test_tcp.o(.text)
    prvStartTCPEchoClientTasks_DifferentSockets 0x0000c0e1   Thumb Code   264  aws_test_tcp.o(.text)
    TEST_Full_TCP_AFQP_SECURE_SOCKETS_Threadsafe_DifferentSocketsDifferentTasks_ 0x0000c1e9   Thumb Code    10  aws_test_tcp.o(.text)
    TEST_Full_TCP_AFQP_SECURE_SOCKETS_Threadsafe_DifferentSocketsDifferentTasks_run 0x0000c1f3   Thumb Code    38  aws_test_tcp.o(.text)
    TEST_Full_TCP_AFQP_SECURE_SOCKETS_Connect_InvalidAddressLength_ 0x0000c2db   Thumb Code    20  aws_test_tcp.o(.text)
    TEST_Full_TCP_AFQP_SECURE_SOCKETS_Connect_InvalidAddressLength_run 0x0000c2ef   Thumb Code    38  aws_test_tcp.o(.text)
    TEST_Full_TCP_AFQP_SECURE_SOCKETS_Connect_InvalidParams_ 0x0000c669   Thumb Code    10  aws_test_tcp.o(.text)
    TEST_Full_TCP_AFQP_SECURE_SOCKETS_Connect_InvalidParams_run 0x0000c673   Thumb Code    38  aws_test_tcp.o(.text)
    TEST_Full_TCP_AFQP_SECURE_SOCKETS_SetSockOpt_SERVER_NAME_INDICATION_ 0x0000c831   Thumb Code     8  aws_test_tcp.o(.text)
    TEST_Full_TCP_AFQP_SECURE_SOCKETS_SetSockOpt_SERVER_NAME_INDICATION_run 0x0000c839   Thumb Code    38  aws_test_tcp.o(.text)
    TEST_Full_TCP_AFQP_SECURE_SOCKETS_SetSockOpt_TRUSTED_SERVER_CERTIFICATE_ 0x0000c961   Thumb Code     8  aws_test_tcp.o(.text)
    TEST_Full_TCP_AFQP_SECURE_SOCKETS_SetSockOpt_TRUSTED_SERVER_CERTIFICATE_run 0x0000c969   Thumb Code    38  aws_test_tcp.o(.text)
    TEST_Full_TCP_AFQP_SECURE_SOCKETS_Threadsafe_SameSocketDifferentTasks_ 0x0000ce45   Thumb Code    10  aws_test_tcp.o(.text)
    TEST_Full_TCP_AFQP_SECURE_SOCKETS_Threadsafe_SameSocketDifferentTasks_run 0x0000ce4f   Thumb Code    38  aws_test_tcp.o(.text)
    TEST_Full_TCP_AFQP_SECURE_SOCKETS_Recv_On_Unconnected_Socket_ 0x0000d0df   Thumb Code    10  aws_test_tcp.o(.text)
    TEST_Full_TCP_AFQP_SECURE_SOCKETS_Recv_On_Unconnected_Socket_run 0x0000d0e9   Thumb Code    38  aws_test_tcp.o(.text)
    TEST_Full_TCP_AFQP_SECURE_SOCKETS_ShutdownWithoutReceiving_ 0x0000d1a1   Thumb Code    10  aws_test_tcp.o(.text)
    TEST_Full_TCP_AFQP_SECURE_SOCKETS_ShutdownWithoutReceiving_run 0x0000d1ab   Thumb Code    38  aws_test_tcp.o(.text)
    TEST_Full_TCP_AFQP_SECURE_SOCKETS_ShutdownInvalidParams_ 0x0000d28f   Thumb Code    10  aws_test_tcp.o(.text)
    TEST_Full_TCP_AFQP_SECURE_SOCKETS_ShutdownInvalidParams_run 0x0000d299   Thumb Code    38  aws_test_tcp.o(.text)
    TEST_Full_TCP_AFQP_SECURE_SOCKETS_CloseWithoutReceiving_ 0x0000d331   Thumb Code    10  aws_test_tcp.o(.text)
    TEST_Full_TCP_AFQP_SECURE_SOCKETS_CloseWithoutReceiving_run 0x0000d33b   Thumb Code    38  aws_test_tcp.o(.text)
    TEST_Full_TCP_AFQP_SECURE_SOCKETS_CloseInvalidParams_ 0x0000d387   Thumb Code    10  aws_test_tcp.o(.text)
    TEST_Full_TCP_AFQP_SECURE_SOCKETS_CloseInvalidParams_run 0x0000d391   Thumb Code    38  aws_test_tcp.o(.text)
    TEST_Full_TCP_AFQP_SOCKETS_inet_addr_quick_HappyCase_ 0x0000d3b7   Thumb Code    24  aws_test_tcp.o(.text)
    TEST_Full_TCP_AFQP_SOCKETS_inet_addr_quick_HappyCase_run 0x0000d3cf   Thumb Code    38  aws_test_tcp.o(.text)
    TEST_Full_TCP_AFQP_SOCKETS_htons_HappyCase_ 0x0000d3f5   Thumb Code    26  aws_test_tcp.o(.text)
    TEST_Full_TCP_AFQP_SOCKETS_htons_HappyCase_run 0x0000d40f   Thumb Code    38  aws_test_tcp.o(.text)
    TEST_Full_TCP_AFQP_SOCKETS_Recv_Invalid_ 0x0000d435   Thumb Code    10  aws_test_tcp.o(.text)
    TEST_Full_TCP_AFQP_SOCKETS_Recv_Invalid_run 0x0000d43f   Thumb Code   974  aws_test_tcp.o(.text)
    TEST_Full_TCP_AFQP_SOCKETS_Send_Invalid_ 0x0000d80d   Thumb Code    10  aws_test_tcp.o(.text)
    TEST_Full_TCP_AFQP_SOCKETS_Send_Invalid_run 0x0000d817   Thumb Code    38  aws_test_tcp.o(.text)
    TEST_Full_TCP_AFQP_SOCKETS_Socket_InvalidInputParams_ 0x0000d9a3   Thumb Code    10  aws_test_tcp.o(.text)
    TEST_Full_TCP_AFQP_SOCKETS_Socket_InvalidInputParams_run 0x0000d9ad   Thumb Code    38  aws_test_tcp.o(.text)
    TEST_Full_TCP_AFQP_SOCKETS_Socket_InvalidTooManySockets_ 0x0000da45   Thumb Code    10  aws_test_tcp.o(.text)
    TEST_Full_TCP_AFQP_SOCKETS_Socket_InvalidTooManySockets_run 0x0000da4f   Thumb Code    38  aws_test_tcp.o(.text)
    TEST_Full_TCP_AFQP_SOCKETS_SendRecv_VaryLength_ 0x0000da75   Thumb Code    10  aws_test_tcp.o(.text)
    TEST_Full_TCP_AFQP_SOCKETS_SendRecv_VaryLength_run 0x0000da7f   Thumb Code    38  aws_test_tcp.o(.text)
    TEST_Full_TCP_AFQP_SOCKETS_Recv_ByteByByte_ 0x0000daa5   Thumb Code    10  aws_test_tcp.o(.text)
    TEST_Full_TCP_AFQP_SOCKETS_Recv_ByteByByte_run 0x0000daaf   Thumb Code    38  aws_test_tcp.o(.text)
    TEST_Full_TCP_AFQP_SOCKETS_Close_        0x0000dad5   Thumb Code    10  aws_test_tcp.o(.text)
    TEST_Full_TCP_AFQP_SOCKETS_Close_run     0x0000dadf   Thumb Code    38  aws_test_tcp.o(.text)
    TEST_Full_TCP_AFQP_SOCKETS_Shutdown_     0x0000db05   Thumb Code    10  aws_test_tcp.o(.text)
    TEST_Full_TCP_AFQP_SOCKETS_Shutdown_run  0x0000db0f   Thumb Code    38  aws_test_tcp.o(.text)
    TEST_Full_TCP_AFQP_SOCKETS_SetSockOpt_InvalidParams_ 0x0000db35   Thumb Code    10  aws_test_tcp.o(.text)
    TEST_Full_TCP_AFQP_SOCKETS_SetSockOpt_InvalidParams_run 0x0000db3f   Thumb Code    38  aws_test_tcp.o(.text)
    TEST_Full_TCP_AFQP_SOCKETS_NonBlocking_Test_ 0x0000db65   Thumb Code    10  aws_test_tcp.o(.text)
    TEST_Full_TCP_AFQP_SOCKETS_NonBlocking_Test_run 0x0000db6f   Thumb Code  1078  aws_test_tcp.o(.text)
    TEST_Full_TCP_AFQP_SOCKETS_SetSockOpt_RCVTIMEO_ 0x0000dfa5   Thumb Code    10  aws_test_tcp.o(.text)
    TEST_Full_TCP_AFQP_SOCKETS_SetSockOpt_RCVTIMEO_run 0x0000dfaf   Thumb Code    38  aws_test_tcp.o(.text)
    TEST_Full_TCP_AFQP_SOCKETS_Socket_TCP_   0x0000e019   Thumb Code    10  aws_test_tcp.o(.text)
    TEST_Full_TCP_AFQP_SOCKETS_Socket_TCP_run 0x0000e023   Thumb Code    38  aws_test_tcp.o(.text)
    TEST_Full_TCP_AFQP_SOCKETS_Threadsafe_DifferentSocketsDifferentTasks_ 0x0000e049   Thumb Code    10  aws_test_tcp.o(.text)
    TEST_Full_TCP_AFQP_SOCKETS_Threadsafe_DifferentSocketsDifferentTasks_run 0x0000e053   Thumb Code    38  aws_test_tcp.o(.text)
    TEST_Full_TCP_AFQP_SOCKETS_Connect_InvalidAddressLength_ 0x0000e079   Thumb Code    20  aws_test_tcp.o(.text)
    TEST_Full_TCP_AFQP_SOCKETS_Connect_InvalidAddressLength_run 0x0000e08d   Thumb Code    38  aws_test_tcp.o(.text)
    TEST_Full_TCP_AFQP_SOCKETS_Connect_InvalidParams_ 0x0000e0b3   Thumb Code    10  aws_test_tcp.o(.text)
    TEST_Full_TCP_AFQP_SOCKETS_Connect_InvalidParams_run 0x0000e0bd   Thumb Code    38  aws_test_tcp.o(.text)
    TEST_Full_TCP_AFQP_SOCKETS_Threadsafe_SameSocketDifferentTasks_ 0x0000e0e3   Thumb Code    10  aws_test_tcp.o(.text)
    TEST_Full_TCP_AFQP_SOCKETS_Threadsafe_SameSocketDifferentTasks_run 0x0000e0ed   Thumb Code    38  aws_test_tcp.o(.text)
    TEST_Full_TCP_AFQP_SOCKETS_Recv_On_Unconnected_Socket_ 0x0000e113   Thumb Code    10  aws_test_tcp.o(.text)
    TEST_Full_TCP_AFQP_SOCKETS_Recv_On_Unconnected_Socket_run 0x0000e11d   Thumb Code    38  aws_test_tcp.o(.text)
    TEST_Full_TCP_AFQP_SOCKETS_ShutdownWithoutReceiving_ 0x0000e143   Thumb Code    10  aws_test_tcp.o(.text)
    TEST_Full_TCP_AFQP_SOCKETS_ShutdownWithoutReceiving_run 0x0000e14d   Thumb Code    38  aws_test_tcp.o(.text)
    TEST_Full_TCP_AFQP_SOCKETS_ShutdownInvalidParams_ 0x0000e173   Thumb Code    10  aws_test_tcp.o(.text)
    TEST_Full_TCP_AFQP_SOCKETS_ShutdownInvalidParams_run 0x0000e17d   Thumb Code    38  aws_test_tcp.o(.text)
    TEST_Full_TCP_AFQP_SOCKETS_CloseWithoutReceiving_ 0x0000e1a3   Thumb Code    10  aws_test_tcp.o(.text)
    TEST_Full_TCP_AFQP_SOCKETS_CloseWithoutReceiving_run 0x0000e1ad   Thumb Code    38  aws_test_tcp.o(.text)
    TEST_Full_TCP_AFQP_SOCKETS_CloseInvalidParams_ 0x0000e1d3   Thumb Code    10  aws_test_tcp.o(.text)
    TEST_Full_TCP_AFQP_SOCKETS_CloseInvalidParams_run 0x0000e1dd   Thumb Code    38  aws_test_tcp.o(.text)
    TEST_Full_TCP_GROUP_RUNNER               0x0000e203   Thumb Code  1200  aws_test_tcp.o(.text)
    TEST_Full_TCP_AFQP_SOCKETS_SetSockOpt_SNDTIMEO_ 0x0000e6c3   Thumb Code    10  aws_test_tcp.o(.text)
    TEST_Full_TCP_AFQP_SOCKETS_SetSockOpt_SNDTIMEO_run 0x0000e6cd   Thumb Code    38  aws_test_tcp.o(.text)
    TEST_Full_TCP_AFQP_SECURE_SOCKETS_SetSockOpt_SNDTIMEO_ 0x0000e6f3   Thumb Code    10  aws_test_tcp.o(.text)
    TEST_Full_TCP_AFQP_SECURE_SOCKETS_SetSockOpt_SNDTIMEO_run 0x0000e6fd   Thumb Code    38  aws_test_tcp.o(.text)
    TEST_Full_TCP_AFQP_SECURE_SOCKETS_Socket_InvalidTooManySockets_ 0x0000e723   Thumb Code     2  aws_test_tcp.o(.text)
    TEST_Full_TCP_AFQP_SECURE_SOCKETS_Socket_InvalidTooManySockets_run 0x0000e725   Thumb Code    38  aws_test_tcp.o(.text)
    TLS_Init                                 0x0000ec0f   Thumb Code   116  aws_tls.o(.text)
    TLS_Connect                              0x0000ec83   Thumb Code   580  aws_tls.o(.text)
    TLS_Recv                                 0x0000eec7   Thumb Code    90  aws_tls.o(.text)
    TLS_Send                                 0x0000ef21   Thumb Code    98  aws_tls.o(.text)
    TLS_Cleanup                              0x0000ef83   Thumb Code    28  aws_tls.o(.text)
    SYSTEM_Init                              0x0000f095   Thumb Code    16  aws_system_init.o(.text)
    mbedtls_aes_init                         0x0000f0a5   Thumb Code    16  aes.o(.text)
    mbedtls_aes_free                         0x0000f0b5   Thumb Code    22  aes.o(.text)
    mbedtls_aes_setkey_enc                   0x0000f0cb   Thumb Code   496  aes.o(.text)
    mbedtls_aes_setkey_dec                   0x0000f2bb   Thumb Code   204  aes.o(.text)
    mbedtls_internal_aes_encrypt             0x0000f387   Thumb Code  1306  aes.o(.text)
    mbedtls_internal_aes_decrypt             0x0000f8a1   Thumb Code  1262  aes.o(.text)
    mbedtls_aes_crypt_ecb                    0x0000fd8f   Thumb Code    38  aes.o(.text)
    mbedtls_aes_crypt_cbc                    0x0000fdb5   Thumb Code   162  aes.o(.text)
    mbedtls_aes_crypt_cfb128                 0x0000fe57   Thumb Code   134  aes.o(.text)
    mbedtls_aes_crypt_cfb8                   0x0000fedd   Thumb Code   100  aes.o(.text)
    mbedtls_aes_crypt_ctr                    0x0000ff41   Thumb Code   118  aes.o(.text)
    mbedtls_aes_self_test                    0x0000ffb7   Thumb Code   954  aes.o(.text)
    mbedtls_asn1_get_len                     0x00010455   Thumb Code   254  asn1parse.o(.text)
    mbedtls_asn1_get_tag                     0x00010553   Thumb Code    56  asn1parse.o(.text)
    mbedtls_asn1_get_bool                    0x0001058b   Thumb Code    64  asn1parse.o(.text)
    mbedtls_asn1_get_int                     0x000105cb   Thumb Code    92  asn1parse.o(.text)
    mbedtls_asn1_get_mpi                     0x00010627   Thumb Code    52  asn1parse.o(.text)
    mbedtls_asn1_get_bitstring               0x0001065b   Thumb Code    96  asn1parse.o(.text)
    mbedtls_asn1_get_bitstring_null          0x000106bb   Thumb Code    58  asn1parse.o(.text)
    mbedtls_asn1_get_sequence_of             0x000106f5   Thumb Code   150  asn1parse.o(.text)
    mbedtls_asn1_get_alg                     0x0001078b   Thumb Code   174  asn1parse.o(.text)
    mbedtls_asn1_get_alg_null                0x00010839   Thumb Code    60  asn1parse.o(.text)
    mbedtls_asn1_free_named_data             0x00010875   Thumb Code    32  asn1parse.o(.text)
    mbedtls_asn1_free_named_data_list        0x00010895   Thumb Code    30  asn1parse.o(.text)
    mbedtls_asn1_find_named_data             0x000108b3   Thumb Code    42  asn1parse.o(.text)
    mbedtls_asn1_write_len                   0x000108dd   Thumb Code   254  asn1write.o(.text)
    mbedtls_asn1_write_tag                   0x000109db   Thumb Code    28  asn1write.o(.text)
    mbedtls_asn1_write_raw_buffer            0x000109f7   Thumb Code    58  asn1write.o(.text)
    mbedtls_asn1_write_mpi                   0x00010a31   Thumb Code   168  asn1write.o(.text)
    mbedtls_asn1_write_null                  0x00010ad9   Thumb Code    60  asn1write.o(.text)
    mbedtls_asn1_write_oid                   0x00010b15   Thumb Code    94  asn1write.o(.text)
    mbedtls_asn1_write_algorithm_identifier  0x00010b73   Thumb Code   122  asn1write.o(.text)
    mbedtls_asn1_write_bool                  0x00010bed   Thumb Code   102  asn1write.o(.text)
    mbedtls_asn1_write_int                   0x00010c53   Thumb Code   134  asn1write.o(.text)
    mbedtls_asn1_write_printable_string      0x00010cd9   Thumb Code    94  asn1write.o(.text)
    mbedtls_asn1_write_ia5_string            0x00010d37   Thumb Code    94  asn1write.o(.text)
    mbedtls_asn1_write_bitstring             0x00010d95   Thumb Code   144  asn1write.o(.text)
    mbedtls_asn1_write_octet_string          0x00010e25   Thumb Code    94  asn1write.o(.text)
    mbedtls_asn1_store_named_data            0x00010e83   Thumb Code   182  asn1write.o(.text)
    mbedtls_base64_encode                    0x00010f39   Thumb Code   312  base64.o(.text)
    mbedtls_base64_decode                    0x00011071   Thumb Code   350  base64.o(.text)
    mbedtls_base64_self_test                 0x000111cf   Thumb Code   124  base64.o(.text)
    mbedtls_mpi_init                         0x000112bd   Thumb Code    18  bignum.o(.text)
    mbedtls_mpi_free                         0x000112cf   Thumb Code    40  bignum.o(.text)
    mbedtls_mpi_grow                         0x000112f7   Thumb Code    82  bignum.o(.text)
    mbedtls_mpi_shrink                       0x00011349   Thumb Code   112  bignum.o(.text)
    mbedtls_mpi_copy                         0x000113b9   Thumb Code   120  bignum.o(.text)
    mbedtls_mpi_swap                         0x00011431   Thumb Code    28  bignum.o(.text)
    mbedtls_mpi_safe_cond_assign             0x0001144d   Thumb Code   134  bignum.o(.text)
    mbedtls_mpi_safe_cond_swap               0x000114d3   Thumb Code   176  bignum.o(.text)
    mbedtls_mpi_lset                         0x00011583   Thumb Code    68  bignum.o(.text)
    mbedtls_mpi_get_bit                      0x000115c7   Thumb Code    34  bignum.o(.text)
    mbedtls_mpi_set_bit                      0x000115e9   Thumb Code   112  bignum.o(.text)
    mbedtls_mpi_lsb                          0x00011659   Thumb Code    52  bignum.o(.text)
    mbedtls_mpi_bitlen                       0x000116ab   Thumb Code    56  bignum.o(.text)
    mbedtls_mpi_size                         0x000116e3   Thumb Code    16  bignum.o(.text)
    mbedtls_mpi_add_abs                      0x00011733   Thumb Code   242  bignum.o(.text)
    mbedtls_mpi_cmp_abs                      0x00011887   Thumb Code   138  bignum.o(.text)
    mbedtls_mpi_sub_abs                      0x00011911   Thumb Code   140  bignum.o(.text)
    mbedtls_mpi_sub_mpi                      0x0001199d   Thumb Code   120  bignum.o(.text)
    mbedtls_mpi_sub_int                      0x00011a15   Thumb Code    56  bignum.o(.text)
    mbedtls_mpi_add_mpi                      0x00011a4d   Thumb Code   120  bignum.o(.text)
    mbedtls_mpi_add_int                      0x00011ac5   Thumb Code    56  bignum.o(.text)
    mbedtls_mpi_mul_mpi                      0x0001212d   Thumb Code   232  bignum.o(.text)
    mbedtls_mpi_mul_int                      0x00012215   Thumb Code    34  bignum.o(.text)
    mbedtls_mpi_read_string                  0x00012237   Thumb Code   374  bignum.o(.text)
    mbedtls_mpi_cmp_mpi                      0x000123ad   Thumb Code   172  bignum.o(.text)
    mbedtls_mpi_cmp_int                      0x00012459   Thumb Code    52  bignum.o(.text)
    mbedtls_mpi_shift_r                      0x0001248d   Thumb Code   166  bignum.o(.text)
    mbedtls_mpi_shift_l                      0x00012533   Thumb Code   194  bignum.o(.text)
    mbedtls_mpi_div_mpi                      0x0001265d   Thumb Code   980  bignum.o(.text)
    mbedtls_mpi_div_int                      0x00012a31   Thumb Code    64  bignum.o(.text)
    mbedtls_mpi_mod_int                      0x00012a71   Thumb Code   120  bignum.o(.text)
    mbedtls_mpi_write_string                 0x00012b71   Thumb Code   354  bignum.o(.text)
    mbedtls_mpi_read_binary                  0x00012cd3   Thumb Code   136  bignum.o(.text)
    mbedtls_mpi_write_binary                 0x00012d5b   Thumb Code    80  bignum.o(.text)
    mbedtls_mpi_mod_mpi                      0x00012dab   Thumb Code   126  bignum.o(.text)
    mbedtls_mpi_exp_mod                      0x00012f53   Thumb Code  1380  bignum.o(.text)
    mbedtls_mpi_gcd                          0x000134b7   Thumb Code   348  bignum.o(.text)
    mbedtls_mpi_fill_random                  0x00013613   Thumb Code    92  bignum.o(.text)
    mbedtls_mpi_inv_mod                      0x0001366f   Thumb Code   816  bignum.o(.text)
    mbedtls_mpi_is_prime                     0x00013c5f   Thumb Code    94  bignum.o(.text)
    mbedtls_mpi_gen_prime                    0x00013cbd   Thumb Code   432  bignum.o(.text)
    mbedtls_mpi_self_test                    0x00013e6d   Thumb Code   952  bignum.o(.text)
    mbedtls_cipher_list                      0x00014249   Thumb Code    36  cipher.o(.text)
    mbedtls_cipher_info_from_type            0x0001426d   Thumb Code    28  cipher.o(.text)
    mbedtls_cipher_info_from_string          0x00014289   Thumb Code    42  cipher.o(.text)
    mbedtls_cipher_info_from_values          0x000142b3   Thumb Code    52  cipher.o(.text)
    mbedtls_cipher_init                      0x000142e7   Thumb Code    14  cipher.o(.text)
    mbedtls_cipher_free                      0x000142f5   Thumb Code    34  cipher.o(.text)
    mbedtls_cipher_set_padding_mode          0x0001451d   Thumb Code    92  cipher.o(.text)
    mbedtls_cipher_setup                     0x00014579   Thumb Code    52  cipher.o(.text)
    mbedtls_cipher_setkey                    0x000145ad   Thumb Code   116  cipher.o(.text)
    mbedtls_cipher_set_iv                    0x00014621   Thumb Code   136  cipher.o(.text)
    mbedtls_cipher_reset                     0x000146a9   Thumb Code    22  cipher.o(.text)
    mbedtls_cipher_update_ad                 0x000146bf   Thumb Code    54  cipher.o(.text)
    mbedtls_cipher_update                    0x000146f5   Thumb Code   540  cipher.o(.text)
    mbedtls_cipher_finish                    0x00014911   Thumb Code   306  cipher.o(.text)
    mbedtls_cipher_write_tag                 0x00014a43   Thumb Code    68  cipher.o(.text)
    mbedtls_cipher_check_tag                 0x00014a87   Thumb Code    86  cipher.o(.text)
    mbedtls_cipher_crypt                     0x00014add   Thumb Code   114  cipher.o(.text)
    mbedtls_cipher_auth_encrypt              0x00014b4f   Thumb Code    72  cipher.o(.text)
    mbedtls_cipher_auth_decrypt              0x00014b97   Thumb Code    92  cipher.o(.text)
    mbedtls_ctr_drbg_init                    0x00014d39   Thumb Code    26  ctr_drbg.o(.text)
    mbedtls_ctr_drbg_reseed                  0x00014f5d   Thumb Code   142  ctr_drbg.o(.text)
    mbedtls_ctr_drbg_seed_entropy_len        0x00014feb   Thumb Code   104  ctr_drbg.o(.text)
    mbedtls_ctr_drbg_seed                    0x00015053   Thumb Code    38  ctr_drbg.o(.text)
    mbedtls_ctr_drbg_free                    0x00015079   Thumb Code    40  ctr_drbg.o(.text)
    mbedtls_ctr_drbg_set_prediction_resistance 0x000150a1   Thumb Code     4  ctr_drbg.o(.text)
    mbedtls_ctr_drbg_set_entropy_len         0x000150a5   Thumb Code     4  ctr_drbg.o(.text)
    mbedtls_ctr_drbg_set_reseed_interval     0x000150a9   Thumb Code     4  ctr_drbg.o(.text)
    mbedtls_ctr_drbg_update                  0x000150ad   Thumb Code    44  ctr_drbg.o(.text)
    mbedtls_ctr_drbg_random_with_add         0x000150d9   Thumb Code   252  ctr_drbg.o(.text)
    mbedtls_ctr_drbg_random                  0x000151d5   Thumb Code    74  ctr_drbg.o(.text)
    mbedtls_ctr_drbg_self_test               0x00015249   Thumb Code   332  ctr_drbg.o(.text)
    mbedtls_ecdh_gen_public                  0x00015409   Thumb Code    36  ecdh.o(.text)
    mbedtls_ecdh_compute_shared              0x0001542d   Thumb Code   114  ecdh.o(.text)
    mbedtls_ecdh_init                        0x0001549f   Thumb Code    16  ecdh.o(.text)
    mbedtls_ecdh_free                        0x000154af   Thumb Code    74  ecdh.o(.text)
    mbedtls_ecdh_make_params                 0x000154f9   Thumb Code   132  ecdh.o(.text)
    mbedtls_ecdh_read_params                 0x0001557d   Thumb Code    60  ecdh.o(.text)
    mbedtls_ecdh_get_params                  0x000155b9   Thumb Code    92  ecdh.o(.text)
    mbedtls_ecdh_make_public                 0x00015615   Thumb Code    80  ecdh.o(.text)
    mbedtls_ecdh_read_public                 0x00015665   Thumb Code    54  ecdh.o(.text)
    mbedtls_ecdh_calc_secret                 0x0001569b   Thumb Code   110  ecdh.o(.text)
    mbedtls_ecdsa_sign                       0x00015791   Thumb Code   502  ecdsa.o(.text)
    mbedtls_ecdsa_verify                     0x00015987   Thumb Code   376  ecdsa.o(.text)
    mbedtls_ecdsa_write_signature            0x00015b99   Thumb Code   104  ecdsa.o(.text)
    mbedtls_ecdsa_read_signature             0x00015c01   Thumb Code   164  ecdsa.o(.text)
    mbedtls_ecdsa_genkey                     0x00015ca5   Thumb Code    48  ecdsa.o(.text)
    mbedtls_ecdsa_free                       0x00015cd5   Thumb Code    12  ecdsa.o(.text)
    mbedtls_ecdsa_from_keypair               0x00015ce1   Thumb Code    60  ecdsa.o(.text)
    mbedtls_ecdsa_init                       0x00015d1d   Thumb Code    12  ecdsa.o(.text)
    mbedtls_ecp_curve_list                   0x00015d31   Thumb Code     4  ecp.o(.text)
    mbedtls_ecp_grp_id_list                  0x00015d35   Thumb Code    52  ecp.o(.text)
    mbedtls_ecp_curve_info_from_grp_id       0x00015d69   Thumb Code    34  ecp.o(.text)
    mbedtls_ecp_curve_info_from_tls_id       0x00015d8b   Thumb Code    34  ecp.o(.text)
    mbedtls_ecp_curve_info_from_name         0x00015dad   Thumb Code    38  ecp.o(.text)
    mbedtls_ecp_point_init                   0x00015de9   Thumb Code    34  ecp.o(.text)
    mbedtls_ecp_group_init                   0x00015e0b   Thumb Code    20  ecp.o(.text)
    mbedtls_ecp_keypair_init                 0x00015e1f   Thumb Code    34  ecp.o(.text)
    mbedtls_ecp_point_free                   0x00015e41   Thumb Code    34  ecp.o(.text)
    mbedtls_ecp_group_free                   0x00015e63   Thumb Code   100  ecp.o(.text)
    mbedtls_ecp_keypair_free                 0x00015ec7   Thumb Code    34  ecp.o(.text)
    mbedtls_ecp_copy                         0x00015ee9   Thumb Code    74  ecp.o(.text)
    mbedtls_ecp_group_copy                   0x00015f33   Thumb Code    16  ecp.o(.text)
    mbedtls_ecp_set_zero                     0x00015f43   Thumb Code    68  ecp.o(.text)
    mbedtls_ecp_is_zero                      0x00015f87   Thumb Code    24  ecp.o(.text)
    mbedtls_ecp_point_cmp                    0x00015f9f   Thumb Code    52  ecp.o(.text)
    mbedtls_ecp_point_read_string            0x00015fd3   Thumb Code    82  ecp.o(.text)
    mbedtls_ecp_point_write_binary           0x00016025   Thumb Code   224  ecp.o(.text)
    mbedtls_ecp_point_read_binary            0x00016105   Thumb Code   164  ecp.o(.text)
    mbedtls_ecp_tls_read_point               0x000161a9   Thumb Code    66  ecp.o(.text)
    mbedtls_ecp_tls_write_point              0x000161eb   Thumb Code    66  ecp.o(.text)
    mbedtls_ecp_tls_read_group               0x0001622d   Thumb Code    86  ecp.o(.text)
    mbedtls_ecp_tls_write_group              0x00016283   Thumb Code    58  ecp.o(.text)
    mbedtls_ecp_check_pubkey                 0x00017bb5   Thumb Code    46  ecp.o(.text)
    mbedtls_ecp_check_privkey                0x00017be3   Thumb Code    54  ecp.o(.text)
    mbedtls_ecp_mul                          0x00017c19   Thumb Code   120  ecp.o(.text)
    mbedtls_ecp_muladd                       0x00017d1d   Thumb Code   146  ecp.o(.text)
    mbedtls_ecp_gen_keypair_base             0x00017daf   Thumb Code   166  ecp.o(.text)
    mbedtls_ecp_gen_keypair                  0x00017e55   Thumb Code    38  ecp.o(.text)
    mbedtls_ecp_gen_key                      0x00017e7b   Thumb Code    52  ecp.o(.text)
    mbedtls_ecp_check_pub_priv               0x00017eaf   Thumb Code   178  ecp.o(.text)
    mbedtls_ecp_self_test                    0x00017f61   Thumb Code   748  ecp.o(.text)
    mbedtls_ecp_group_load                   0x00018819   Thumb Code    80  ecp_curves.o(.text)
    mbedtls_entropy_add_source               0x00018891   Thumb Code   138  entropy.o(.text)
    mbedtls_entropy_init                     0x0001891b   Thumb Code    58  entropy.o(.text)
    mbedtls_entropy_free                     0x00018955   Thumb Code    42  entropy.o(.text)
    mbedtls_entropy_update_manual            0x00018a05   Thumb Code    66  entropy.o(.text)
    mbedtls_entropy_gather                   0x00018af3   Thumb Code    52  entropy.o(.text)
    mbedtls_entropy_func                     0x00018b27   Thumb Code   310  entropy.o(.text)
    mbedtls_entropy_source_self_test         0x00018cff   Thumb Code   148  entropy.o(.text)
    mbedtls_entropy_self_test                0x00018d93   Thumb Code   218  entropy.o(.text)
    mbedtls_gcm_init                         0x00018eb1   Thumb Code    16  gcm.o(.text)
    mbedtls_gcm_setkey                       0x00019055   Thumb Code   112  gcm.o(.text)
    mbedtls_gcm_starts                       0x00019285   Thumb Code   378  gcm.o(.text)
    mbedtls_gcm_update                       0x000193ff   Thumb Code   296  gcm.o(.text)
    mbedtls_gcm_finish                       0x00019527   Thumb Code   378  gcm.o(.text)
    mbedtls_gcm_crypt_and_tag                0x000196a1   Thumb Code    88  gcm.o(.text)
    mbedtls_gcm_auth_decrypt                 0x000196f9   Thumb Code   112  gcm.o(.text)
    mbedtls_gcm_free                         0x00019769   Thumb Code    22  gcm.o(.text)
    mbedtls_gcm_self_test                    0x0001977f   Thumb Code  1274  gcm.o(.text)
    mbedtls_md_list                          0x00019c95   Thumb Code     4  md.o(.text)
    mbedtls_md_info_from_type                0x00019c99   Thumb Code    32  md.o(.text)
    mbedtls_md_info_from_string              0x00019cb9   Thumb Code    78  md.o(.text)
    mbedtls_md_init                          0x00019d07   Thumb Code    10  md.o(.text)
    mbedtls_md_free                          0x00019d11   Thumb Code    58  md.o(.text)
    mbedtls_md_clone                         0x00019d4b   Thumb Code    44  md.o(.text)
    mbedtls_md_setup                         0x00019d77   Thumb Code    64  md.o(.text)
    mbedtls_md_starts                        0x00019db7   Thumb Code    24  md.o(.text)
    mbedtls_md_update                        0x00019dcf   Thumb Code    32  md.o(.text)
    mbedtls_md_finish                        0x00019def   Thumb Code    28  md.o(.text)
    mbedtls_md                               0x00019e0b   Thumb Code    32  md.o(.text)
    mbedtls_md_hmac_starts                   0x00019e2b   Thumb Code   214  md.o(.text)
    mbedtls_md_hmac_update                   0x00019f01   Thumb Code    36  md.o(.text)
    mbedtls_md_hmac_finish                   0x00019f25   Thumb Code   118  md.o(.text)
    mbedtls_md_hmac_reset                    0x00019f9b   Thumb Code    50  md.o(.text)
    mbedtls_md_hmac                          0x00019fcd   Thumb Code   112  md.o(.text)
    mbedtls_md_process                       0x0001a03d   Thumb Code    28  md.o(.text)
    mbedtls_md_get_size                      0x0001a059   Thumb Code    12  md.o(.text)
    mbedtls_md_get_type                      0x0001a065   Thumb Code    60  md.o(.text)
    mbedtls_md_get_name                      0x0001a0a1   Thumb Code    12  md.o(.text)
    mbedtls_oid_get_attr_short_name          0x0001a215   Thumb Code    30  oid.o(.text)
    mbedtls_oid_get_x509_ext_type            0x0001a26b   Thumb Code    30  oid.o(.text)
    mbedtls_oid_get_extended_key_usage       0x0001a2c1   Thumb Code    30  oid.o(.text)
    mbedtls_oid_get_sig_alg_desc             0x0001a317   Thumb Code    30  oid.o(.text)
    mbedtls_oid_get_sig_alg                  0x0001a335   Thumb Code    40  oid.o(.text)
    mbedtls_oid_get_oid_by_sig_alg           0x0001a35d   Thumb Code    48  oid.o(.text)
    mbedtls_oid_get_pk_alg                   0x0001a3c5   Thumb Code    30  oid.o(.text)
    mbedtls_oid_get_oid_by_pk_alg            0x0001a3e3   Thumb Code    42  oid.o(.text)
    mbedtls_oid_get_ec_grp                   0x0001a445   Thumb Code    30  oid.o(.text)
    mbedtls_oid_get_oid_by_ec_grp            0x0001a463   Thumb Code    42  oid.o(.text)
    mbedtls_oid_get_cipher_alg               0x0001a4c5   Thumb Code    30  oid.o(.text)
    mbedtls_oid_get_md_alg                   0x0001a51b   Thumb Code    30  oid.o(.text)
    mbedtls_oid_get_oid_by_md                0x0001a539   Thumb Code    42  oid.o(.text)
    mbedtls_oid_get_md_hmac                  0x0001a59b   Thumb Code    30  oid.o(.text)
    mbedtls_oid_get_numeric_string           0x0001a5b9   Thumb Code   228  oid.o(.text)
    mbedtls_pem_init                         0x0001a6a9   Thumb Code    10  pem.o(.text)
    mbedtls_pem_read_buffer                  0x0001a6b3   Thumb Code   306  pem.o(.text)
    mbedtls_pem_free                         0x0001a7e5   Thumb Code    38  pem.o(.text)
    mbedtls_pk_init                          0x0001a831   Thumb Code    14  pk.o(.text)
    mbedtls_pk_free                          0x0001a83f   Thumb Code    32  pk.o(.text)
    mbedtls_pk_info_from_type                0x0001a85f   Thumb Code    40  pk.o(.text)
    mbedtls_pk_setup                         0x0001a887   Thumb Code    36  pk.o(.text)
    mbedtls_pk_setup_rsa_alt                 0x0001a8ab   Thumb Code    68  pk.o(.text)
    mbedtls_pk_can_do                        0x0001a8ef   Thumb Code    26  pk.o(.text)
    mbedtls_pk_verify                        0x0001a931   Thumb Code    74  pk.o(.text)
    mbedtls_pk_verify_ext                    0x0001a97b   Thumb Code    80  pk.o(.text)
    mbedtls_pk_sign                          0x0001a9cb   Thumb Code    76  pk.o(.text)
    mbedtls_pk_decrypt                       0x0001aa17   Thumb Code    68  pk.o(.text)
    mbedtls_pk_encrypt                       0x0001aa5b   Thumb Code    68  pk.o(.text)
    mbedtls_pk_check_pair                    0x0001aa9f   Thumb Code    76  pk.o(.text)
    mbedtls_pk_get_bitlen                    0x0001aaeb   Thumb Code    24  pk.o(.text)
    mbedtls_pk_debug                         0x0001ab03   Thumb Code    42  pk.o(.text)
    mbedtls_pk_get_name                      0x0001ab2d   Thumb Code    18  pk.o(.text)
    mbedtls_pk_get_type                      0x0001ab3f   Thumb Code    18  pk.o(.text)
    mbedtls_pk_parse_subpubkey               0x0001b217   Thumb Code   264  pkparse.o(.text)
    mbedtls_pk_parse_key                     0x0001b7dd   Thumb Code   644  pkparse.o(.text)
    mbedtls_pk_parse_public_key              0x0001ba61   Thumb Code   356  pkparse.o(.text)
    mbedtls_pk_write_pubkey                  0x0001bdc5   Thumb Code   114  pkwrite.o(.text)
    mbedtls_pk_write_pubkey_der              0x0001be37   Thumb Code   276  pkwrite.o(.text)
    mbedtls_pk_write_key_der                 0x0001bf4b   Thumb Code   818  pkwrite.o(.text)
    mbedtls_calloc                           0x0001c281   Thumb Code    18  platform.o(.text)
    mbedtls_free                             0x0001c293   Thumb Code    14  platform.o(.text)
    mbedtls_platform_set_calloc_free         0x0001c2a1   Thumb Code    14  platform.o(.text)
    mbedtls_platform_setup                   0x0001c2af   Thumb Code     6  platform.o(.text)
    mbedtls_platform_teardown                0x0001c2b5   Thumb Code     2  platform.o(.text)
    mbedtls_rsa_import                       0x0001c2e5   Thumb Code   138  rsa.o(.text)
    mbedtls_rsa_import_raw                   0x0001c36f   Thumb Code   194  rsa.o(.text)
    mbedtls_rsa_complete                     0x0001c4f7   Thumb Code   430  rsa.o(.text)
    mbedtls_rsa_export_raw                   0x0001c6a5   Thumb Code   244  rsa.o(.text)
    mbedtls_rsa_export                       0x0001c799   Thumb Code   220  rsa.o(.text)
    mbedtls_rsa_export_crt                   0x0001c875   Thumb Code   156  rsa.o(.text)
    mbedtls_rsa_set_padding                  0x0001c911   Thumb Code    10  rsa.o(.text)
    mbedtls_rsa_init                         0x0001c91b   Thumb Code    38  rsa.o(.text)
    mbedtls_rsa_get_len                      0x0001c941   Thumb Code     6  rsa.o(.text)
    mbedtls_rsa_free                         0x0001c947   Thumb Code   120  rsa.o(.text)
    mbedtls_rsa_check_pubkey                 0x0001c9bf   Thumb Code    84  rsa.o(.text)
    mbedtls_rsa_check_privkey                0x0001ca13   Thumb Code   102  rsa.o(.text)
    mbedtls_rsa_gen_key                      0x0001ca79   Thumb Code   596  rsa.o(.text)
    mbedtls_rsa_check_pub_priv               0x0001cccd   Thumb Code    62  rsa.o(.text)
    mbedtls_rsa_public                       0x0001cd0b   Thumb Code   186  rsa.o(.text)
    mbedtls_rsa_private                      0x0001cecf   Thumb Code   840  rsa.o(.text)
    mbedtls_rsa_rsaes_pkcs1_v15_encrypt      0x0001d217   Thumb Code   234  rsa.o(.text)
    mbedtls_rsa_pkcs1_encrypt                0x0001d301   Thumb Code    52  rsa.o(.text)
    mbedtls_rsa_rsaes_pkcs1_v15_decrypt      0x0001d335   Thumb Code   356  rsa.o(.text)
    mbedtls_rsa_pkcs1_decrypt                0x0001d499   Thumb Code    54  rsa.o(.text)
    mbedtls_rsa_rsassa_pkcs1_v15_sign        0x0001d61f   Thumb Code   210  rsa.o(.text)
    mbedtls_rsa_pkcs1_sign                   0x0001d6f1   Thumb Code    54  rsa.o(.text)
    mbedtls_rsa_rsassa_pkcs1_v15_verify      0x0001d727   Thumb Code   198  rsa.o(.text)
    mbedtls_rsa_pkcs1_verify                 0x0001d7ed   Thumb Code    54  rsa.o(.text)
    mbedtls_rsa_copy                         0x0001d823   Thumb Code   330  rsa.o(.text)
    mbedtls_rsa_self_test                    0x0001d991   Thumb Code   630  rsa.o(.text)
    mbedtls_rsa_deduce_primes                0x0001dcdd   Thumb Code   530  rsa_internal.o(.text)
    mbedtls_rsa_deduce_private_exponent      0x0001deef   Thumb Code   244  rsa_internal.o(.text)
    mbedtls_rsa_validate_crt                 0x0001dfe3   Thumb Code   394  rsa_internal.o(.text)
    mbedtls_rsa_validate_params              0x0001e16d   Thumb Code   514  rsa_internal.o(.text)
    mbedtls_rsa_deduce_crt                   0x0001e36f   Thumb Code   160  rsa_internal.o(.text)
    mbedtls_sha1_init                        0x0001e415   Thumb Code    14  sha1.o(.text)
    mbedtls_sha1_free                        0x0001e423   Thumb Code    20  sha1.o(.text)
    mbedtls_sha1_clone                       0x0001e437   Thumb Code    18  sha1.o(.text)
    mbedtls_sha1_starts_ret                  0x0001e449   Thumb Code    34  sha1.o(.text)
    mbedtls_internal_sha1_process            0x0001e46b   Thumb Code  5600  sha1.o(.text)
    mbedtls_sha1_update_ret                  0x0001fa4b   Thumb Code   146  sha1.o(.text)
    mbedtls_sha1_finish_ret                  0x0001fadd   Thumb Code   292  sha1.o(.text)
    mbedtls_sha1_ret                         0x0001fc01   Thumb Code    72  sha1.o(.text)
    mbedtls_sha1_self_test                   0x0001fc49   Thumb Code   210  sha1.o(.text)
    mbedtls_sha256_init                      0x0001fd55   Thumb Code    14  sha256.o(.text)
    mbedtls_sha256_free                      0x0001fd63   Thumb Code    20  sha256.o(.text)
    mbedtls_sha256_clone                     0x0001fd77   Thumb Code    18  sha256.o(.text)
    mbedtls_sha256_starts_ret                0x0001fd89   Thumb Code    82  sha256.o(.text)
    mbedtls_internal_sha256_process          0x0001fddb   Thumb Code  3600  sha256.o(.text)
    mbedtls_sha256_update_ret                0x00020beb   Thumb Code   146  sha256.o(.text)
    mbedtls_sha256_finish_ret                0x00020c7d   Thumb Code   406  sha256.o(.text)
    mbedtls_sha256_ret                       0x00020e13   Thumb Code    86  sha256.o(.text)
    mbedtls_sha256_self_test                 0x00020e69   Thumb Code   288  sha256.o(.text)
    mbedtls_ssl_ciphersuite_from_id          0x00020fd9   Thumb Code    28  ssl_ciphersuites.o(.text)
    mbedtls_ssl_list_ciphersuites            0x00020ff5   Thumb Code    64  ssl_ciphersuites.o(.text)
    mbedtls_ssl_ciphersuite_from_string      0x00021035   Thumb Code    40  ssl_ciphersuites.o(.text)
    mbedtls_ssl_get_ciphersuite_name         0x0002105d   Thumb Code    22  ssl_ciphersuites.o(.text)
    mbedtls_ssl_get_ciphersuite_id           0x00021073   Thumb Code    22  ssl_ciphersuites.o(.text)
    mbedtls_ssl_get_ciphersuite_sig_pk_alg   0x00021089   Thumb Code    48  ssl_ciphersuites.o(.text)
    mbedtls_ssl_get_ciphersuite_sig_alg      0x000210b9   Thumb Code    38  ssl_ciphersuites.o(.text)
    mbedtls_ssl_ciphersuite_uses_ec          0x000210df   Thumb Code    42  ssl_ciphersuites.o(.text)
    mbedtls_ssl_handshake_client_step        0x000225eb   Thumb Code   260  ssl_cli.o(.text)
    mbedtls_ssl_sig_hash_set_const_hash      0x000226f5   Thumb Code     6  ssl_tls.o(.text)
    mbedtls_ssl_session_free                 0x000227a5   Thumb Code    36  ssl_tls.o(.text)
    mbedtls_ssl_derive_keys                  0x00022a0f   Thumb Code  1058  ssl_tls.o(.text)
    mbedtls_ssl_write_version                0x00022e4b   Thumb Code     8  ssl_tls.o(.text)
    mbedtls_ssl_fetch_input                  0x000237d9   Thumb Code   186  ssl_tls.o(.text)
    mbedtls_ssl_flush_output                 0x000238cd   Thumb Code   140  ssl_tls.o(.text)
    mbedtls_ssl_write_record                 0x00023959   Thumb Code   288  ssl_tls.o(.text)
    mbedtls_ssl_write_handshake_msg          0x00023a79   Thumb Code   170  ssl_tls.o(.text)
    mbedtls_ssl_prepare_handshake_record     0x00023b3b   Thumb Code    60  ssl_tls.o(.text)
    mbedtls_ssl_update_handshake_status      0x00023b77   Thumb Code    30  ssl_tls.o(.text)
    mbedtls_ssl_send_alert_message           0x00023b95   Thumb Code    80  ssl_tls.o(.text)
    mbedtls_ssl_read_version                 0x00023be5   Thumb Code    12  ssl_tls.o(.text)
    mbedtls_ssl_handle_message_type          0x00023d13   Thumb Code   154  ssl_tls.o(.text)
    mbedtls_ssl_read_record                  0x00023e91   Thumb Code   136  ssl_tls.o(.text)
    mbedtls_ssl_send_fatal_handshake_failure 0x00023f19   Thumb Code    26  ssl_tls.o(.text)
    mbedtls_ssl_write_certificate            0x00023f33   Thumb Code   292  ssl_tls.o(.text)
    mbedtls_ssl_check_cert_usage             0x00024057   Thumb Code   158  ssl_tls.o(.text)
    mbedtls_ssl_check_curve                  0x000240f5   Thumb Code    44  ssl_tls.o(.text)
    mbedtls_ssl_parse_certificate            0x00024121   Thumb Code   956  ssl_tls.o(.text)
    mbedtls_ssl_write_change_cipher_spec     0x000244dd   Thumb Code    58  ssl_tls.o(.text)
    mbedtls_ssl_parse_change_cipher_spec     0x00024545   Thumb Code    96  ssl_tls.o(.text)
    mbedtls_ssl_optimize_checksum            0x000245bd   Thumb Code    26  ssl_tls.o(.text)
    mbedtls_ssl_reset_checksum               0x000245d7   Thumb Code    18  ssl_tls.o(.text)
    mbedtls_ssl_transform_free               0x00024601   Thumb Code    52  ssl_tls.o(.text)
    mbedtls_ssl_handshake_free               0x00024635   Thumb Code    92  ssl_tls.o(.text)
    mbedtls_ssl_handshake_wrapup             0x000246c7   Thumb Code    94  ssl_tls.o(.text)
    mbedtls_ssl_write_finished               0x00024725   Thumb Code   152  ssl_tls.o(.text)
    mbedtls_ssl_parse_finished               0x000247bd   Thumb Code   196  ssl_tls.o(.text)
    mbedtls_ssl_session_init                 0x000248ef   Thumb Code    14  ssl_tls.o(.text)
    mbedtls_ssl_init                         0x00024991   Thumb Code    14  ssl_tls.o(.text)
    mbedtls_ssl_setup                        0x000249c5   Thumb Code   142  ssl_tls.o(.text)
    mbedtls_ssl_session_reset                0x00024af7   Thumb Code    14  ssl_tls.o(.text)
    mbedtls_ssl_conf_endpoint                0x00024b05   Thumb Code    10  ssl_tls.o(.text)
    mbedtls_ssl_conf_transport               0x00024b0f   Thumb Code    10  ssl_tls.o(.text)
    mbedtls_ssl_conf_authmode                0x00024b19   Thumb Code    10  ssl_tls.o(.text)
    mbedtls_ssl_conf_verify                  0x00024b23   Thumb Code     6  ssl_tls.o(.text)
    mbedtls_ssl_conf_rng                     0x00024b29   Thumb Code     6  ssl_tls.o(.text)
    mbedtls_ssl_conf_dbg                     0x00024b2f   Thumb Code     6  ssl_tls.o(.text)
    mbedtls_ssl_set_bio                      0x00024b35   Thumb Code    14  ssl_tls.o(.text)
    mbedtls_ssl_conf_read_timeout            0x00024b43   Thumb Code     4  ssl_tls.o(.text)
    mbedtls_ssl_set_timer_cb                 0x00024b47   Thumb Code    30  ssl_tls.o(.text)
    mbedtls_ssl_set_session                  0x00024b65   Thumb Code    58  ssl_tls.o(.text)
    mbedtls_ssl_conf_ciphersuites            0x00024b9f   Thumb Code    10  ssl_tls.o(.text)
    mbedtls_ssl_conf_ciphersuites_for_version 0x00024ba9   Thumb Code    24  ssl_tls.o(.text)
    mbedtls_ssl_conf_cert_profile            0x00024bc1   Thumb Code     4  ssl_tls.o(.text)
    mbedtls_ssl_conf_own_cert                0x00024c19   Thumb Code    22  ssl_tls.o(.text)
    mbedtls_ssl_conf_ca_chain                0x00024c2f   Thumb Code     6  ssl_tls.o(.text)
    mbedtls_ssl_set_hs_own_cert              0x00024c35   Thumb Code    24  ssl_tls.o(.text)
    mbedtls_ssl_set_hs_ca_chain              0x00024c4d   Thumb Code    14  ssl_tls.o(.text)
    mbedtls_ssl_set_hs_authmode              0x00024c5b   Thumb Code     8  ssl_tls.o(.text)
    mbedtls_ssl_conf_sig_hashes              0x00024c63   Thumb Code     4  ssl_tls.o(.text)
    mbedtls_ssl_conf_curves                  0x00024c67   Thumb Code     4  ssl_tls.o(.text)
    mbedtls_ssl_set_hostname                 0x00024c6b   Thumb Code   118  ssl_tls.o(.text)
    mbedtls_ssl_conf_sni                     0x00024ce1   Thumb Code     6  ssl_tls.o(.text)
    mbedtls_ssl_conf_alpn_protocols          0x00024ce7   Thumb Code    58  ssl_tls.o(.text)
    mbedtls_ssl_get_alpn_protocol            0x00024d21   Thumb Code     8  ssl_tls.o(.text)
    mbedtls_ssl_conf_max_version             0x00024d29   Thumb Code    10  ssl_tls.o(.text)
    mbedtls_ssl_conf_min_version             0x00024d33   Thumb Code    10  ssl_tls.o(.text)
    mbedtls_ssl_conf_encrypt_then_mac        0x00024d3d   Thumb Code    10  ssl_tls.o(.text)
    mbedtls_ssl_conf_extended_master_secret  0x00024d47   Thumb Code    10  ssl_tls.o(.text)
    mbedtls_ssl_conf_max_frag_len            0x00024d51   Thumb Code    38  ssl_tls.o(.text)
    mbedtls_ssl_conf_legacy_renegotiation    0x00024d77   Thumb Code    10  ssl_tls.o(.text)
    mbedtls_ssl_get_bytes_avail              0x00024d81   Thumb Code    14  ssl_tls.o(.text)
    mbedtls_ssl_check_pending                0x00024d8f   Thumb Code    56  ssl_tls.o(.text)
    mbedtls_ssl_get_verify_result            0x00024dc7   Thumb Code    28  ssl_tls.o(.text)
    mbedtls_ssl_get_ciphersuite              0x00024de3   Thumb Code    24  ssl_tls.o(.text)
    mbedtls_ssl_get_version                  0x00024dfb   Thumb Code    40  ssl_tls.o(.text)
    mbedtls_ssl_get_record_expansion         0x00024e23   Thumb Code   112  ssl_tls.o(.text)
    mbedtls_ssl_get_max_frag_len             0x00024e93   Thumb Code    84  ssl_tls.o(.text)
    mbedtls_ssl_get_max_out_record_payload   0x00024ee7   Thumb Code    26  ssl_tls.o(.text)
    mbedtls_ssl_get_peer_cert                0x00024f01   Thumb Code    18  ssl_tls.o(.text)
    mbedtls_ssl_get_session                  0x00024f13   Thumb Code    40  ssl_tls.o(.text)
    mbedtls_ssl_handshake_step               0x00024f3b   Thumb Code    42  ssl_tls.o(.text)
    mbedtls_ssl_handshake                    0x00024f65   Thumb Code    50  ssl_tls.o(.text)
    mbedtls_ssl_read                         0x00024f97   Thumb Code   406  ssl_tls.o(.text)
    mbedtls_ssl_write                        0x00025199   Thumb Code    70  ssl_tls.o(.text)
    mbedtls_ssl_close_notify                 0x000251df   Thumb Code    68  ssl_tls.o(.text)
    mbedtls_ssl_free                         0x0002523b   Thumb Code   178  ssl_tls.o(.text)
    mbedtls_ssl_config_init                  0x000252ed   Thumb Code    14  ssl_tls.o(.text)
    mbedtls_ssl_config_defaults              0x000252fb   Thumb Code   164  ssl_tls.o(.text)
    mbedtls_ssl_config_free                  0x0002539f   Thumb Code    20  ssl_tls.o(.text)
    mbedtls_ssl_sig_from_pk                  0x000253b3   Thumb Code    36  ssl_tls.o(.text)
    mbedtls_ssl_sig_from_pk_alg              0x000253d7   Thumb Code    30  ssl_tls.o(.text)
    mbedtls_ssl_pk_alg_from_sig              0x000253f5   Thumb Code    24  ssl_tls.o(.text)
    mbedtls_ssl_sig_hash_set_find            0x0002540d   Thumb Code    24  ssl_tls.o(.text)
    mbedtls_ssl_sig_hash_set_add             0x00025425   Thumb Code    32  ssl_tls.o(.text)
    mbedtls_ssl_md_alg_from_hash             0x00025445   Thumb Code    32  ssl_tls.o(.text)
    mbedtls_ssl_hash_from_md_alg             0x00025465   Thumb Code    32  ssl_tls.o(.text)
    mbedtls_ssl_check_sig_hash               0x00025485   Thumb Code    84  ssl_tls.o(.text)
    mbedtls_ssl_set_calc_verify_md           0x000254d9   Thumb Code    36  ssl_tls.o(.text)
    mbedtls_ssl_get_key_exchange_md_tls1_2   0x000254fd   Thumb Code   164  ssl_tls.o(.text)
    mbedtls_threading_set_alt                0x000255c7   Thumb Code    20  threading.o(.text)
    mbedtls_threading_free_alt               0x000255db   Thumb Code     2  threading.o(.text)
    mbedtls_x509_get_serial                  0x000255ed   Thumb Code    92  x509.o(.text)
    mbedtls_x509_get_alg_null                0x00025649   Thumb Code    36  x509.o(.text)
    mbedtls_x509_get_alg                     0x0002566d   Thumb Code    42  x509.o(.text)
    mbedtls_x509_get_name                    0x00025779   Thumb Code   132  x509.o(.text)
    mbedtls_x509_get_time                    0x00025a15   Thumb Code    92  x509.o(.text)
    mbedtls_x509_get_sig                     0x00025a71   Thumb Code    76  x509.o(.text)
    mbedtls_x509_get_sig_alg                 0x00025abd   Thumb Code    70  x509.o(.text)
    mbedtls_x509_get_ext                     0x00025b03   Thumb Code   102  x509.o(.text)
    mbedtls_x509_dn_gets                     0x00025b69   Thumb Code   274  x509.o(.text)
    mbedtls_x509_serial_gets                 0x00025c7b   Thumb Code   154  x509.o(.text)
    mbedtls_x509_sig_alg_gets                0x00025d15   Thumb Code    88  x509.o(.text)
    mbedtls_x509_key_size_helper             0x00025d6d   Thumb Code    54  x509.o(.text)
    mbedtls_x509_time_is_past                0x00025da3   Thumb Code     6  x509.o(.text)
    mbedtls_x509_time_is_future              0x00025da9   Thumb Code     6  x509.o(.text)
    mbedtls_x509_self_test                   0x00025daf   Thumb Code     6  x509.o(.text)
    mbedtls_x509_crt_free                    0x00026395   Thumb Code   200  x509_crt.o(.text)
    mbedtls_x509_crt_init                    0x0002678d   Thumb Code    16  x509_crt.o(.text)
    mbedtls_x509_crt_parse_der               0x0002679d   Thumb Code   136  x509_crt.o(.text)
    mbedtls_x509_crt_parse                   0x00026825   Thumb Code   248  x509_crt.o(.text)
    mbedtls_x509_crt_info                    0x00026dff   Thumb Code  1608  x509_crt.o(.text)
    mbedtls_x509_crt_verify_info             0x00027447   Thumb Code   124  x509_crt.o(.text)
    mbedtls_x509_crt_check_key_usage         0x000274c3   Thumb Code    68  x509_crt.o(.text)
    mbedtls_x509_crt_check_extended_key_usage 0x00027507   Thumb Code    96  x509_crt.o(.text)
    mbedtls_x509_crt_verify_with_profile     0x00027bdd   Thumb Code   192  x509_crt.o(.text)
    mbedtls_x509_crt_verify                  0x00027c9d   Thumb Code    42  x509_crt.o(.text)
    mbedtls_platform_zeroize                 0x00027cdd   Thumb Code    20  platform_util.o(.text)
    xLoggingTaskInitialize                   0x00027d1d   Thumb Code    78  aws_logging_task_dynamic_buffers.o(.text)
    vLoggingPrintf                           0x00027d6b   Thumb Code   192  aws_logging_task_dynamic_buffers.o(.text)
    vLoggingPrint                            0x00027e2b   Thumb Code    80  aws_logging_task_dynamic_buffers.o(.text)
    UnityPrintNumberHex                      0x00027eb1   Thumb Code    70  unity.o(.text)
    UnityPrint                               0x00027ef7   Thumb Code   116  unity.o(.text)
    UnityPrintLen                            0x00027f6b   Thumb Code   122  unity.o(.text)
    UnityPrintNumberUnsigned                 0x00027fe5   Thumb Code    62  unity.o(.text)
    UnityPrintNumber                         0x00028023   Thumb Code    28  unity.o(.text)
    UnityPrintNumberByStyle                  0x0002803f   Thumb Code    66  unity.o(.text)
    UnityPrintMask                           0x00028081   Thumb Code    68  unity.o(.text)
    UnityPrintFloat                          0x000280c5   Thumb Code   544  unity.o(.text)
    UnityConcludeTest                        0x00028337   Thumb Code    72  unity.o(.text)
    UnityAssertBits                          0x000284b9   Thumb Code   104  unity.o(.text)
    UnityAssertEqualNumber                   0x00028521   Thumb Code    96  unity.o(.text)
    UnityAssertGreaterNumber                 0x00028581   Thumb Code    96  unity.o(.text)
    UnityAssertSmallerNumber                 0x000285e1   Thumb Code    96  unity.o(.text)
    UnityAssertEqualIntArray                 0x00028641   Thumb Code   352  unity.o(.text)
    UnityAssertEqualFloatArray               0x00028859   Thumb Code   260  unity.o(.text)
    UnityAssertFloatsWithin                  0x0002895d   Thumb Code   118  unity.o(.text)
    UnityAssertFloatSpecial                  0x000289d3   Thumb Code   284  unity.o(.text)
    UnityAssertNumbersWithin                 0x00028aef   Thumb Code   234  unity.o(.text)
    UnityAssertEqualString                   0x00028bd9   Thumb Code   124  unity.o(.text)
    UnityAssertEqualStringLen                0x00028c55   Thumb Code   134  unity.o(.text)
    UnityAssertEqualStringArray              0x00028cdb   Thumb Code   260  unity.o(.text)
    UnityAssertEqualMemory                   0x00028ddf   Thumb Code   274  unity.o(.text)
    UnityNumToPtr                            0x00028ef1   Thumb Code    40  unity.o(.text)
    UnityFloatToPtr                          0x00028f19   Thumb Code     8  unity.o(.text)
    UnityFail                                0x00028f21   Thumb Code   164  unity.o(.text)
    UnityIgnore                              0x00028fc5   Thumb Code    76  unity.o(.text)
    UnityDefaultTestRun                      0x00029011   Thumb Code    64  unity.o(.text)
    UnityBegin                               0x00029051   Thumb Code    28  unity.o(.text)
    UnityEnd                                 0x0002906d   Thumb Code   108  unity.o(.text)
    setUp                                    0x0002912d   Thumb Code     2  unity_fixture.o(.text)
    tearDown                                 0x0002912f   Thumb Code     2  unity_fixture.o(.text)
    UnityGetCommandLineOptions               0x00029159   Thumb Code   246  unity_fixture.o(.text)
    UnityMain                                0x0002924f   Thumb Code    80  unity_fixture.o(.text)
    UnityConcludeFixtureTest                 0x000292dd   Thumb Code    84  unity_fixture.o(.text)
    UnityMalloc_EndTest                      0x00029331   Thumb Code    28  unity_fixture.o(.text)
    UnityPointer_UndoAllSets                 0x0002934d   Thumb Code    44  unity_fixture.o(.text)
    UnityPointer_Init                        0x00029379   Thumb Code     8  unity_fixture.o(.text)
    UnityMalloc_StartTest                    0x00029381   Thumb Code    14  unity_fixture.o(.text)
    UnityTestRunner                          0x0002938f   Thumb Code   156  unity_fixture.o(.text)
    UnityIgnoreTest                          0x0002942b   Thumb Code    74  unity_fixture.o(.text)
    UnityMalloc_MakeMallocFailAfterCount     0x00029475   Thumb Code     6  unity_fixture.o(.text)
    unity_malloc                             0x0002947b   Thumb Code    92  unity_fixture.o(.text)
    unity_free                               0x00029579   Thumb Code    38  unity_fixture.o(.text)
    unity_calloc                             0x0002959f   Thumb Code    36  unity_fixture.o(.text)
    unity_realloc                            0x000295c3   Thumb Code   104  unity_fixture.o(.text)
    UnityPointer_Set                         0x0002962b   Thumb Code    64  unity_fixture.o(.text)
    __aeabi_uldivmod                         0x000296e5   Thumb Code    98  uldiv.o(.text)
    rand                                     0x00029749   Thumb Code    20  rand.o(.text)
    srand                                    0x0002975d   Thumb Code     6  rand.o(.text)
    ___aeabi_memcpy8$move                    0x0002976d   Thumb Code     0  memmovea.o(.text)
    __aeabi_memcpy                           0x0002976d   Thumb Code    64  memmovea.o(.text)
    __aeabi_memcpy4                          0x0002976d   Thumb Code     0  memmovea.o(.text)
    __aeabi_memmove                          0x0002976d   Thumb Code     0  memmovea.o(.text)
    __aeabi_memmove4                         0x0002976d   Thumb Code     0  memmovea.o(.text)
    __aeabi_memmove8                         0x0002976d   Thumb Code     0  memmovea.o(.text)
    __aeabi_memset                           0x000297ad   Thumb Code    14  memseta.o(.text)
    __aeabi_memset4                          0x000297ad   Thumb Code     0  memseta.o(.text)
    __aeabi_memset8                          0x000297ad   Thumb Code     0  memseta.o(.text)
    __aeabi_memclr                           0x000297bb   Thumb Code     4  memseta.o(.text)
    __aeabi_memclr4                          0x000297bb   Thumb Code     0  memseta.o(.text)
    __aeabi_memclr8                          0x000297bb   Thumb Code     0  memseta.o(.text)
    memset                                   0x000297bf   Thumb Code    18  memseta.o(.text)
    strstr                                   0x000297d1   Thumb Code    36  strstr.o(.text)
    strncpy                                  0x000297f5   Thumb Code    24  strncpy.o(.text)
    strlen                                   0x0002980d   Thumb Code    14  strlen.o(.text)
    strcmp                                   0x0002981b   Thumb Code    28  strcmp.o(.text)
    memcmp                                   0x00029837   Thumb Code    26  memcmp.o(.text)
    strncmp                                  0x00029851   Thumb Code    30  strncmp.o(.text)
    strtok_r                                 0x00029871   Thumb Code    60  strtok_r.o(.text)
    strtok                                   0x000298ad   Thumb Code     4  strtok_r.o(.text)
    strlcpy                                  0x000298b5   Thumb Code    48  strlcpy.o(.text)
    calloc                                   0x000298e5   Thumb Code    28  calloc.o(.text)
    __0sscanf                                0x00029901   Thumb Code    48  __0sscanf.o(.text)
    _scanf_int                               0x00029939   Thumb Code   332  _scanf_int.o(.text)
    _scanf_string                            0x00029a85   Thumb Code   224  _scanf_str.o(.text)
    strtol                                   0x00029b65   Thumb Code   112  strtol.o(.text)
    atoi                                     0x00029bd5   Thumb Code    26  atoi.o(.text)
    setjmp                                   0x00029bef   Thumb Code    26  setjmp.o(.text)
    longjmp                                  0x00029c09   Thumb Code    36  setjmp.o(.text)
    __aeabi_uidiv                            0x00029c2d   Thumb Code     0  uidiv.o(.text)
    __aeabi_uidivmod                         0x00029c2d   Thumb Code    44  uidiv.o(.text)
    __aeabi_llsl                             0x00029c59   Thumb Code    30  llshl.o(.text)
    _ll_shift_l                              0x00029c59   Thumb Code     0  llshl.o(.text)
    __aeabi_llsr                             0x00029c77   Thumb Code    32  llushr.o(.text)
    _ll_ushift_r                             0x00029c77   Thumb Code     0  llushr.o(.text)
    __rt_ctype_table                         0x00029c99   Thumb Code     4  ctype_o.o(.text)
    isspace                                  0x00029ca1   Thumb Code    18  isspace_o.o(.text)
    _chval                                   0x00029cb3   Thumb Code    28  _chval.o(.text)
    __vfscanf_char                           0x00029cdd   Thumb Code    20  scanf_char.o(.text)
    _sgetc                                   0x00029cf9   Thumb Code    30  _sgetc.o(.text)
    _sbackspace                              0x00029d17   Thumb Code    34  _sgetc.o(.text)
    _strtoul                                 0x00029d39   Thumb Code   158  _strtoul.o(.text)
    __I$use$fp                               0x00029dd7   Thumb Code     0  iusefp.o(.text)
    __aeabi_dadd                             0x00029dd7   Thumb Code   322  dadd.o(.text)
    __aeabi_dsub                             0x00029f19   Thumb Code     6  dadd.o(.text)
    __aeabi_drsub                            0x00029f1f   Thumb Code     6  dadd.o(.text)
    __aeabi_dmul                             0x00029f25   Thumb Code   228  dmul.o(.text)
    __aeabi_ddiv                             0x0002a009   Thumb Code   222  ddiv.o(.text)
    __aeabi_d2ulz                            0x0002a0e7   Thumb Code    48  dfixul.o(.text)
    __aeabi_cdrcmple                         0x0002a119   Thumb Code    48  cdrcmple.o(.text)
    __scatterload                            0x0002a149   Thumb Code    28  init.o(.text)
    __scatterload_rt2                        0x0002a149   Thumb Code     0  init.o(.text)
    __aeabi_lasr                             0x0002a16d   Thumb Code    36  llsshr.o(.text)
    _ll_sshift_r                             0x0002a16d   Thumb Code     0  llsshr.o(.text)
    __vfscanf                                0x0002a191   Thumb Code   808  _scanf.o(.text)
    _double_round                            0x0002a4bd   Thumb Code    30  depilogue.o(.text)
    _double_epilogue                         0x0002a4db   Thumb Code   156  depilogue.o(.text)
    __decompress                             0x0002a577   Thumb Code     0  __dczerorl2.o(.text)
    __decompress1                            0x0002a577   Thumb Code    86  __dczerorl2.o(.text)
    __0printf                                0x0002a5cd   Thumb Code    22  printfa.o(i.__0printf)
    __1printf                                0x0002a5cd   Thumb Code     0  printfa.o(i.__0printf)
    __2printf                                0x0002a5cd   Thumb Code     0  printfa.o(i.__0printf)
    __c89printf                              0x0002a5cd   Thumb Code     0  printfa.o(i.__0printf)
    printf                                   0x0002a5cd   Thumb Code     0  printfa.o(i.__0printf)
    __0snprintf                              0x0002a5ed   Thumb Code    44  printfa.o(i.__0snprintf)
    __1snprintf                              0x0002a5ed   Thumb Code     0  printfa.o(i.__0snprintf)
    __2snprintf                              0x0002a5ed   Thumb Code     0  printfa.o(i.__0snprintf)
    __c89snprintf                            0x0002a5ed   Thumb Code     0  printfa.o(i.__0snprintf)
    snprintf                                 0x0002a5ed   Thumb Code     0  printfa.o(i.__0snprintf)
    __0sprintf                               0x0002a61d   Thumb Code    34  printfa.o(i.__0sprintf)
    __1sprintf                               0x0002a61d   Thumb Code     0  printfa.o(i.__0sprintf)
    __2sprintf                               0x0002a61d   Thumb Code     0  printfa.o(i.__0sprintf)
    __c89sprintf                             0x0002a61d   Thumb Code     0  printfa.o(i.__0sprintf)
    sprintf                                  0x0002a61d   Thumb Code     0  printfa.o(i.__0sprintf)
    __0vsnprintf                             0x0002a645   Thumb Code    40  printfa.o(i.__0vsnprintf)
    __1vsnprintf                             0x0002a645   Thumb Code     0  printfa.o(i.__0vsnprintf)
    __2vsnprintf                             0x0002a645   Thumb Code     0  printfa.o(i.__0vsnprintf)
    __c89vsnprintf                           0x0002a645   Thumb Code     0  printfa.o(i.__0vsnprintf)
    vsnprintf                                0x0002a645   Thumb Code     0  printfa.o(i.__0vsnprintf)
    __aeabi_errno_addr                       0x0002a671   Thumb Code     4  errno.o(i.__aeabi_errno_addr)
    __rt_errno_addr                          0x0002a671   Thumb Code     0  errno.o(i.__aeabi_errno_addr)
    __scatterload_copy                       0x0002a679   Thumb Code    14  handlers.o(i.__scatterload_copy)
    __scatterload_null                       0x0002a687   Thumb Code     2  handlers.o(i.__scatterload_null)
    __scatterload_zeroinit                   0x0002a689   Thumb Code    14  handlers.o(i.__scatterload_zeroinit)
    free                                     0x0002af6d   Thumb Code    76  malloc.o(i.free)
    malloc                                   0x0002afbd   Thumb Code    92  malloc.o(i.malloc)
    putc                                     0x0002b029   Thumb Code     4  putc.o(i.putc)
    _Curve                                   0x0002b04c   Data       20244  crypto.o(.constdata)
    mbedtls_cipher_definitions               0x00035d84   Data         128  cipher_wrap.o(.constdata)
    mbedtls_sha1_info                        0x00036bd0   Data          48  md_wrap.o(.constdata)
    mbedtls_sha224_info                      0x00036c00   Data          48  md_wrap.o(.constdata)
    mbedtls_sha256_info                      0x00036c30   Data          48  md_wrap.o(.constdata)
    mbedtls_rsa_info                         0x000370e0   Data          48  pk_wrap.o(.constdata)
    mbedtls_eckey_info                       0x00037110   Data          48  pk_wrap.o(.constdata)
    mbedtls_eckeydh_info                     0x00037140   Data          48  pk_wrap.o(.constdata)
    mbedtls_ecdsa_info                       0x00037170   Data          48  pk_wrap.o(.constdata)
    mbedtls_rsa_alt_info                     0x000371a0   Data          48  pk_wrap.o(.constdata)
    mbedtls_x509_crt_profile_default         0x0003799c   Data          16  x509_crt.o(.constdata)
    mbedtls_x509_crt_profile_next            0x000379ac   Data          16  x509_crt.o(.constdata)
    mbedtls_x509_crt_profile_suiteb          0x000379bc   Data          16  x509_crt.o(.constdata)
    UnityStrErrFloat                         0x00037bb6   Data          30  unity.o(.constdata)
    UnityStrErrDouble                        0x00037bd4   Data          32  unity.o(.constdata)
    UnityStrErr64                            0x00037bf4   Data          30  unity.o(.constdata)
    __ctype_table                            0x00037c70   Data         129  ctype_o.o(.constdata)
    Region$$Table$$Base                      0x00039918   Number         0  anon$$obj.o(Region$$Table)
    Region$$Table$$Limit                     0x00039938   Number         0  anon$$obj.o(Region$$Table)
    SystemCoreClock                          0x20000000   Data           4  system_m480.o(.data)
    CyclesPerUs                              0x20000004   Data           4  system_m480.o(.data)
    PllClock                                 0x20000008   Data           4  system_m480.o(.data)
    gau32ClkSrcTbl                           0x2000000c   Data          32  system_m480.o(.data)
    g_AES_done                               0x20000030   Data           4  entropy_hardware_poll.o(.data)
    pxCurrentTCB                             0x2000004c   Data           4  tasks.o(.data)
    FreeRTOS_errno                           0x2000005c   Data           4  tasks.o(.data)
    __stdout                                 0x200000c4   Data           4  retarget.o(.data)
    __stdin                                  0x200000c8   Data           4  retarget.o(.data)
    g_ECC_done                               0x200000e4   Data           4  crypto.o(.data)
    g_ECCERR_done                            0x200000e8   Data           4  crypto.o(.data)
    pcTxBuffer                               0x2000021c   Data           4  aws_test_tcp.o(.data)
    pcRxBuffer                               0x20000220   Data           4  aws_test_tcp.o(.data)
    xSocket                                  0x20000224   Data           4  aws_test_tcp.o(.data)
    xSocketOpen                              0x20000228   Data           4  aws_test_tcp.o(.data)
    xHeapB                                   0x20000234   Data           4  aws_test_tcp.o(.data)
    xHeapA                                   0x20000238   Data           4  aws_test_tcp.o(.data)
    mbedtls_mutex_init                       0x20000294   Data           4  threading.o(.data)
    mbedtls_mutex_free                       0x20000298   Data           4  threading.o(.data)
    mbedtls_mutex_lock                       0x2000029c   Data           4  threading.o(.data)
    mbedtls_mutex_unlock                     0x200002a0   Data           4  threading.o(.data)
    clientcredentialJITR_DEVICE_CERTIFICATE_AUTHORITY_PEM 0x200002c0   Data           4  aws_dev_mode_key_provisioning.o(.data)
    __microlib_freelist                      0x200002cc   Data           4  mvars.o(.data)
    __microlib_freelist_initialised          0x200002d0   Data           4  mvars.o(.data)
    xQueueRegistry                           0x20000358   Data          64  queue.o(.bss)
    cBuffer                                  0x2001bec4   Data        4000  aws_test_runner.o(.bss)
    xNuWiFi                                  0x2001ce64   Data        3128  aws_wifi.o(.bss)
    xWifiIpd                                 0x2001daec   Data       12300  esp8266_wifi.o(.bss)
    mbedtls_cipher_supported                 0x200226c0   Data          64  cipher_wrap.o(.bss)
    Unity                                    0x20022728   Data         200  unity.o(.bss)
    UnityFixture                             0x200227f0   Data          16  unity_fixture.o(.bss)
    __heap_base                              0x20022828   Data           0  startup_m480.o(HEAP)
    __heap_limit                             0x20022928   Data           0  startup_m480.o(HEAP)
    __initial_sp                             0x20023128   Data           0  startup_m480.o(STACK)



==============================================================================

Memory Map of the image

  Image Entry point : 0x000001b9

  Load Region LR_IROM1 (Base: 0x00000000, Size: 0x00039c10, Max: 0x00080000, ABSOLUTE, COMPRESSED[0x000399fc])

    Execution Region ER_IROM1 (Exec base: 0x00000000, Load base: 0x00000000, Size: 0x00039938, Max: 0x00080000, ABSOLUTE)

    Exec Addr    Load Addr    Size         Type   Attr      Idx    E Section Name        Object

    0x00000000   0x00000000   0x000001b8   Data   RO            3    RESET               startup_m480.o
    0x000001b8   0x000001b8   0x00000000   Code   RO         3789  * .ARM.Collect$$$$00000000  mc_w.l(entry.o)
    0x000001b8   0x000001b8   0x00000004   Code   RO         4142    .ARM.Collect$$$$00000001  mc_w.l(entry2.o)
    0x000001bc   0x000001bc   0x00000004   Code   RO         4145    .ARM.Collect$$$$00000004  mc_w.l(entry5.o)
    0x000001c0   0x000001c0   0x00000000   Code   RO         4147    .ARM.Collect$$$$00000008  mc_w.l(entry7b.o)
    0x000001c0   0x000001c0   0x00000000   Code   RO         4149    .ARM.Collect$$$$0000000A  mc_w.l(entry8b.o)
    0x000001c0   0x000001c0   0x00000008   Code   RO         4150    .ARM.Collect$$$$0000000B  mc_w.l(entry9a.o)
    0x000001c8   0x000001c8   0x00000000   Code   RO         4152    .ARM.Collect$$$$0000000D  mc_w.l(entry10a.o)
    0x000001c8   0x000001c8   0x00000000   Code   RO         4154    .ARM.Collect$$$$0000000F  mc_w.l(entry11a.o)
    0x000001c8   0x000001c8   0x00000004   Code   RO         4143    .ARM.Collect$$$$00002712  mc_w.l(entry2.o)
    0x000001cc   0x000001cc   0x000000be   Code   RO          648    .emb_text           port.o
    0x0000028a   0x0000028a   0x00000002   PAD
    0x0000028c   0x0000028c   0x0000001c   Code   RO          706    .emb_text           retarget.o
    0x000002a8   0x000002a8   0x00000068   Code   RO            4    .text               startup_m480.o
    0x00000310   0x00000310   0x00000128   Code   RO           13    .text               system_m480.o
    0x00000438   0x00000438   0x0000028c   Code   RO          310    .text               entropy_hardware_poll.o
    0x000006c4   0x000006c4   0x00000388   Code   RO          408    .text               main.o
    0x00000a4c   0x00000a4c   0x00000416   Code   RO          505    .text               event_groups.o
    0x00000e62   0x00000e62   0x00000094   Code   RO          535    .text               list.o
    0x00000ef6   0x00000ef6   0x00000002   PAD
    0x00000ef8   0x00000ef8   0x00000e78   Code   RO          547    .text               queue.o
    0x00001d70   0x00001d70   0x0000190c   Code   RO          596    .text               tasks.o
    0x0000367c   0x0000367c   0x00000660   Code   RO          627    .text               timers.o
    0x00003cdc   0x00003cdc   0x000002c0   Code   RO          649    .text               port.o
    0x00003f9c   0x00003f9c   0x00000264   Code   RO          688    .text               heap_4.o
    0x00004200   0x00004200   0x00000164   Code   RO          707    .text               retarget.o
    0x00004364   0x00004364   0x000007b0   Code   RO          745    .text               clk.o
    0x00004b14   0x00004b14   0x000010f4   Code   RO          770    .text               crypto.o
    0x00005c08   0x00005c08   0x000007b0   Code   RO          802    .text               fmc.o
    0x000063b8   0x000063b8   0x000000dc   Code   RO          826    .text               sys.o
    0x00006494   0x00006494   0x000004c4   Code   RO          850    .text               uart.o
    0x00006958   0x00006958   0x00000030   Code   RO          872    .text               aws_test.o
    0x00006988   0x00006988   0x00000070   Code   RO          918    .text               aws_test_runner.o
    0x000069f8   0x000069f8   0x00000060   Code   RO          957    .text               iot_test_afr.o
    0x00006a58   0x00006a58   0x000003b0   Code   RO         1063    .text               aws_wifi.o
    0x00006e08   0x00006e08   0x000014dc   Code   RO         1100    .text               esp8266_wifi.o
    0x000082e4   0x000082e4   0x000001ac   Code   RO         1185    .text               aws_crypto.o
    0x00008490   0x00008490   0x00000b6c   Code   RO         1672    .text               aws_pkcs11_mbedtls.o
    0x00008ffc   0x00008ffc   0x00000378   Code   RO         1722    .text               aws_pkcs11_pal.o
    0x00009374   0x00009374   0x00000834   Code   RO         1812    .text               aws_secure_sockets.o
    0x00009ba8   0x00009ba8   0x00004cc4   Code   RO         1840    .text               aws_test_tcp.o
    0x0000e86c   0x0000e86c   0x00000828   Code   RO         2092    .text               aws_tls.o
    0x0000f094   0x0000f094   0x00000010   Code   RO         2167    .text               aws_system_init.o
    0x0000f0a4   0x0000f0a4   0x000013b0   Code   RO         2191    .text               aes.o
    0x00010454   0x00010454   0x00000488   Code   RO         2223    .text               asn1parse.o
    0x000108dc   0x000108dc   0x0000065c   Code   RO         2235    .text               asn1write.o
    0x00010f38   0x00010f38   0x00000374   Code   RO         2250    .text               base64.o
    0x000112ac   0x000112ac   0x00002f78   Code   RO         2264    .text               bignum.o
    0x00014224   0x00014224   0x000009e8   Code   RO         2310    .text               cipher.o
    0x00014c0c   0x00014c0c   0x0000012a   Code   RO         2334    .text               cipher_wrap.o
    0x00014d36   0x00014d36   0x00000002   PAD
    0x00014d38   0x00014d38   0x000006d0   Code   RO         2365    .text               ctr_drbg.o
    0x00015408   0x00015408   0x00000304   Code   RO         2398    .text               ecdh.o
    0x0001570c   0x0001570c   0x00000624   Code   RO         2410    .text               ecdsa.o
    0x00015d30   0x00015d30   0x00002550   Code   RO         2428    .text               ecp.o
    0x00018280   0x00018280   0x00000610   Code   RO         2447    .text               ecp_curves.o
    0x00018890   0x00018890   0x00000620   Code   RO         2462    .text               entropy.o
    0x00018eb0   0x00018eb0   0x00000de4   Code   RO         2495    .text               gcm.o
    0x00019c94   0x00019c94   0x00000418   Code   RO         2527    .text               md.o
    0x0001a0ac   0x0001a0ac   0x00000130   Code   RO         2548    .text               md_wrap.o
    0x0001a1dc   0x0001a1dc   0x000004cc   Code   RO         2599    .text               oid.o
    0x0001a6a8   0x0001a6a8   0x00000188   Code   RO         2623    .text               pem.o
    0x0001a830   0x0001a830   0x0000034c   Code   RO         2644    .text               pk.o
    0x0001ab7c   0x0001ab7c   0x00000486   Code   RO         2663    .text               pk_wrap.o
    0x0001b002   0x0001b002   0x00000002   PAD
    0x0001b004   0x0001b004   0x00000c7c   Code   RO         2696    .text               pkparse.o
    0x0001bc80   0x0001bc80   0x00000600   Code   RO         2711    .text               pkwrite.o
    0x0001c280   0x0001c280   0x00000040   Code   RO         2723    .text               platform.o
    0x0001c2c0   0x0001c2c0   0x00001a1c   Code   RO         2743    .text               rsa.o
    0x0001dcdc   0x0001dcdc   0x00000738   Code   RO         2759    .text               rsa_internal.o
    0x0001e414   0x0001e414   0x00001940   Code   RO         2771    .text               sha1.o
    0x0001fd54   0x0001fd54   0x00001284   Code   RO         2785    .text               sha256.o
    0x00020fd8   0x00020fd8   0x00000148   Code   RO         2811    .text               ssl_ciphersuites.o
    0x00021120   0x00021120   0x000015d4   Code   RO         2868    .text               ssl_cli.o
    0x000226f4   0x000226f4   0x00002ec8   Code   RO         2907    .text               ssl_tls.o
    0x000255bc   0x000255bc   0x00000030   Code   RO         2946    .text               threading.o
    0x000255ec   0x000255ec   0x00000818   Code   RO         3000    .text               x509.o
    0x00025e04   0x00025e04   0x00001ed8   Code   RO         3024    .text               x509_crt.o
    0x00027cdc   0x00027cdc   0x00000018   Code   RO         3073    .text               platform_util.o
    0x00027cf4   0x00027cf4   0x000001bc   Code   RO         3214    .text               aws_logging_task_dynamic_buffers.o
    0x00027eb0   0x00027eb0   0x0000127c   Code   RO         3331    .text               unity.o
    0x0002912c   0x0002912c   0x000005b8   Code   RO         3355    .text               unity_fixture.o
    0x000296e4   0x000296e4   0x00000062   Code   RO         3794    .text               mc_w.l(uldiv.o)
    0x00029746   0x00029746   0x00000002   PAD
    0x00029748   0x00029748   0x00000024   Code   RO         3798    .text               mc_w.l(rand.o)
    0x0002976c   0x0002976c   0x00000040   Code   RO         3803    .text               mc_w.l(memmovea.o)
    0x000297ac   0x000297ac   0x00000024   Code   RO         3807    .text               mc_w.l(memseta.o)
    0x000297d0   0x000297d0   0x00000024   Code   RO         3809    .text               mc_w.l(strstr.o)
    0x000297f4   0x000297f4   0x00000018   Code   RO         3811    .text               mc_w.l(strncpy.o)
    0x0002980c   0x0002980c   0x0000000e   Code   RO         3813    .text               mc_w.l(strlen.o)
    0x0002981a   0x0002981a   0x0000001c   Code   RO         3815    .text               mc_w.l(strcmp.o)
    0x00029836   0x00029836   0x0000001a   Code   RO         3817    .text               mc_w.l(memcmp.o)
    0x00029850   0x00029850   0x0000001e   Code   RO         3821    .text               mc_w.l(strncmp.o)
    0x0002986e   0x0002986e   0x00000002   PAD
    0x00029870   0x00029870   0x00000044   Code   RO         3826    .text               mc_w.l(strtok_r.o)
    0x000298b4   0x000298b4   0x00000030   Code   RO         3831    .text               mc_w.l(strlcpy.o)
    0x000298e4   0x000298e4   0x0000001c   Code   RO         4126    .text               mc_w.l(calloc.o)
    0x00029900   0x00029900   0x00000038   Code   RO         4128    .text               mc_w.l(__0sscanf.o)
    0x00029938   0x00029938   0x0000014c   Code   RO         4130    .text               mc_w.l(_scanf_int.o)
    0x00029a84   0x00029a84   0x000000e0   Code   RO         4132    .text               mc_w.l(_scanf_str.o)
    0x00029b64   0x00029b64   0x00000070   Code   RO         4134    .text               mc_w.l(strtol.o)
    0x00029bd4   0x00029bd4   0x0000001a   Code   RO         4138    .text               mc_w.l(atoi.o)
    0x00029bee   0x00029bee   0x0000003e   Code   RO         4140    .text               mf_w.l(setjmp.o)
    0x00029c2c   0x00029c2c   0x0000002c   Code   RO         4156    .text               mc_w.l(uidiv.o)
    0x00029c58   0x00029c58   0x0000001e   Code   RO         4158    .text               mc_w.l(llshl.o)
    0x00029c76   0x00029c76   0x00000020   Code   RO         4160    .text               mc_w.l(llushr.o)
    0x00029c96   0x00029c96   0x00000002   PAD
    0x00029c98   0x00029c98   0x00000008   Code   RO         4162    .text               mc_w.l(ctype_o.o)
    0x00029ca0   0x00029ca0   0x00000012   Code   RO         4184    .text               mc_w.l(isspace_o.o)
    0x00029cb2   0x00029cb2   0x0000001c   Code   RO         4199    .text               mc_w.l(_chval.o)
    0x00029cce   0x00029cce   0x00000002   PAD
    0x00029cd0   0x00029cd0   0x00000028   Code   RO         4201    .text               mc_w.l(scanf_char.o)
    0x00029cf8   0x00029cf8   0x00000040   Code   RO         4203    .text               mc_w.l(_sgetc.o)
    0x00029d38   0x00029d38   0x0000009e   Code   RO         4205    .text               mc_w.l(_strtoul.o)
    0x00029dd6   0x00029dd6   0x00000000   Code   RO         4207    .text               mc_w.l(iusefp.o)
    0x00029dd6   0x00029dd6   0x0000014e   Code   RO         4208    .text               mf_w.l(dadd.o)
    0x00029f24   0x00029f24   0x000000e4   Code   RO         4210    .text               mf_w.l(dmul.o)
    0x0002a008   0x0002a008   0x000000de   Code   RO         4212    .text               mf_w.l(ddiv.o)
    0x0002a0e6   0x0002a0e6   0x00000030   Code   RO         4214    .text               mf_w.l(dfixul.o)
    0x0002a116   0x0002a116   0x00000002   PAD
    0x0002a118   0x0002a118   0x00000030   Code   RO         4216    .text               mf_w.l(cdrcmple.o)
    0x0002a148   0x0002a148   0x00000024   Code   RO         4218    .text               mc_w.l(init.o)
    0x0002a16c   0x0002a16c   0x00000024   Code   RO         4220    .text               mc_w.l(llsshr.o)
    0x0002a190   0x0002a190   0x0000032c   Code   RO         4224    .text               mc_w.l(_scanf.o)
    0x0002a4bc   0x0002a4bc   0x000000ba   Code   RO         4226    .text               mf_w.l(depilogue.o)
    0x0002a576   0x0002a576   0x00000056   Code   RO         4239    .text               mc_w.l(__dczerorl2.o)
    0x0002a5cc   0x0002a5cc   0x00000020   Code   RO         4070    i.__0printf         mc_w.l(printfa.o)
    0x0002a5ec   0x0002a5ec   0x00000030   Code   RO         4071    i.__0snprintf       mc_w.l(printfa.o)
    0x0002a61c   0x0002a61c   0x00000028   Code   RO         4072    i.__0sprintf        mc_w.l(printfa.o)
    0x0002a644   0x0002a644   0x0000002c   Code   RO         4075    i.__0vsnprintf      mc_w.l(printfa.o)
    0x0002a670   0x0002a670   0x00000008   Code   RO         4192    i.__aeabi_errno_addr  mc_w.l(errno.o)
    0x0002a678   0x0002a678   0x0000000e   Code   RO         4233    i.__scatterload_copy  mc_w.l(handlers.o)
    0x0002a686   0x0002a686   0x00000002   Code   RO         4234    i.__scatterload_null  mc_w.l(handlers.o)
    0x0002a688   0x0002a688   0x0000000e   Code   RO         4235    i.__scatterload_zeroinit  mc_w.l(handlers.o)
    0x0002a696   0x0002a696   0x00000002   PAD
    0x0002a698   0x0002a698   0x00000184   Code   RO         4077    i._fp_digits        mc_w.l(printfa.o)
    0x0002a81c   0x0002a81c   0x000006dc   Code   RO         4078    i._printf_core      mc_w.l(printfa.o)
    0x0002aef8   0x0002aef8   0x00000024   Code   RO         4079    i._printf_post_padding  mc_w.l(printfa.o)
    0x0002af1c   0x0002af1c   0x0000002e   Code   RO         4080    i._printf_pre_padding  mc_w.l(printfa.o)
    0x0002af4a   0x0002af4a   0x00000016   Code   RO         4081    i._snputc           mc_w.l(printfa.o)
    0x0002af60   0x0002af60   0x0000000a   Code   RO         4082    i._sputc            mc_w.l(printfa.o)
    0x0002af6a   0x0002af6a   0x00000002   PAD
    0x0002af6c   0x0002af6c   0x00000050   Code   RO         4098    i.free              mc_w.l(malloc.o)
    0x0002afbc   0x0002afbc   0x0000006c   Code   RO         4099    i.malloc            mc_w.l(malloc.o)
    0x0002b028   0x0002b028   0x00000004   Code   RO         3792    i.putc              mc_w.l(putc.o)
    0x0002b02c   0x0002b02c   0x00000020   Data   RO          746    .constdata          clk.o
    0x0002b04c   0x0002b04c   0x00004f14   Data   RO          772    .constdata          crypto.o
    0x0002ff60   0x0002ff60   0x00000030   Data   RO          851    .constdata          uart.o
    0x0002ff90   0x0002ff90   0x00000032   Data   RO         1102    .constdata          esp8266_wifi.o
    0x0002ffc2   0x0002ffc2   0x00000002   PAD
    0x0002ffc4   0x0002ffc4   0x000013b4   Data   RO         1841    .constdata          aws_test_tcp.o
    0x00031378   0x00031378   0x00001e1a   Data   RO         2093    .constdata          aws_tls.o
    0x00033192   0x00033192   0x00000002   PAD
    0x00033194   0x00033194   0x000025e4   Data   RO         2192    .constdata          aes.o
    0x00035778   0x00035778   0x00000159   Data   RO         2251    .constdata          base64.o
    0x000358d1   0x000358d1   0x00000003   PAD
    0x000358d4   0x000358d4   0x000002c4   Data   RO         2265    .constdata          bignum.o
    0x00035b98   0x00035b98   0x0000026c   Data   RO         2336    .constdata          cipher_wrap.o
    0x00035e04   0x00035e04   0x000000e0   Data   RO         2366    .constdata          ctr_drbg.o
    0x00035ee4   0x00035ee4   0x00000030   Data   RO         2429    .constdata          ecp.o
    0x00035f14   0x00035f14   0x000000a0   Data   RO         2448    .constdata          ecp_curves.o
    0x00035fb4   0x00035fb4   0x00000004   PAD
    0x00035fb8   0x00035fb8   0x00000c08   Data   RO         2496    .constdata          gcm.o
    0x00036bc0   0x00036bc0   0x00000010   Data   RO         2528    .constdata          md.o
    0x00036bd0   0x00036bd0   0x00000090   Data   RO         2549    .constdata          md_wrap.o
    0x00036c60   0x00036c60   0x00000480   Data   RO         2600    .constdata          oid.o
    0x000370e0   0x000370e0   0x000000f0   Data   RO         2664    .constdata          pk_wrap.o
    0x000371d0   0x000371d0   0x000000f4   Data   RO         2772    .constdata          sha1.o
    0x000372c4   0x000372c4   0x00000278   Data   RO         2786    .constdata          sha256.o
    0x0003753c   0x0003753c   0x00000460   Data   RO         2813    .constdata          ssl_ciphersuites.o
    0x0003799c   0x0003799c   0x000000d8   Data   RO         3025    .constdata          x509_crt.o
    0x00037a74   0x00037a74   0x000001f8   Data   RO         3333    .constdata          unity.o
    0x00037c6c   0x00037c6c   0x00000004   Data   RO         3357    .constdata          unity_fixture.o
    0x00037c70   0x00037c70   0x00000081   Data   RO         4163    .constdata          mc_w.l(ctype_o.o)
    0x00037cf1   0x00037cf1   0x00000003   PAD
    0x00037cf4   0x00037cf4   0x00000004   Data   RO         4164    .constdata          mc_w.l(ctype_o.o)
    0x00037cf8   0x00037cf8   0x00000046   Data   RO         1724    .conststring        aws_pkcs11_pal.o
    0x00037d3e   0x00037d3e   0x00000002   PAD
    0x00037d40   0x00037d40   0x00000514   Data   RO         1842    .conststring        aws_test_tcp.o
    0x00038254   0x00038254   0x0000004f   Data   RO         2094    .conststring        aws_tls.o
    0x000382a3   0x000382a3   0x00000001   PAD
    0x000382a4   0x000382a4   0x0000036d   Data   RO         2266    .conststring        bignum.o
    0x00038611   0x00038611   0x00000003   PAD
    0x00038614   0x00038614   0x000000c0   Data   RO         2337    .conststring        cipher_wrap.o
    0x000386d4   0x000386d4   0x00000141   Data   RO         2430    .conststring        ecp.o
    0x00038815   0x00038815   0x00000003   PAD
    0x00038818   0x00038818   0x0000088f   Data   RO         2601    .conststring        oid.o
    0x000390a7   0x000390a7   0x00000001   PAD
    0x000390a8   0x000390a8   0x0000001c   Data   RO         2665    .conststring        pk_wrap.o
    0x000390c4   0x000390c4   0x0000030d   Data   RO         2744    .conststring        rsa.o
    0x000393d1   0x000393d1   0x00000003   PAD
    0x000393d4   0x000393d4   0x00000139   Data   RO         2814    .conststring        ssl_ciphersuites.o
    0x0003950d   0x0003950d   0x00000003   PAD
    0x00039510   0x00039510   0x00000406   Data   RO         3026    .conststring        x509_crt.o
    0x00039916   0x00039916   0x00000002   PAD
    0x00039918   0x00039918   0x00000020   Data   RO         4231    Region$$Table       anon$$obj.o


    Execution Region RW_IRAM1 (Exec base: 0x20000000, Load base: 0x00039938, Size: 0x00023128, Max: 0x00028000, ABSOLUTE, COMPRESSED[0x000000c4])

    Exec Addr    Load Addr    Size         Type   Attr      Idx    E Section Name        Object

    0x20000000   COMPRESSED   0x0000002c   Data   RW           14    .data               system_m480.o
    0x2000002c   COMPRESSED   0x00000011   Data   RW          312    .data               entropy_hardware_poll.o
    0x2000003d   COMPRESSED   0x00000003   PAD
    0x20000040   COMPRESSED   0x0000000c   Data   RW          410    .data               main.o
    0x2000004c   COMPRESSED   0x00000040   Data   RW          598    .data               tasks.o
    0x2000008c   COMPRESSED   0x00000014   Data   RW          629    .data               timers.o
    0x200000a0   COMPRESSED   0x0000000c   Data   RW          650    .data               port.o
    0x200000ac   COMPRESSED   0x00000018   Data   RW          690    .data               heap_4.o
    0x200000c4   COMPRESSED   0x00000008   Data   RW          708    .data               retarget.o
    0x200000cc   COMPRESSED   0x00000020   Data   RW          773    .data               crypto.o
    0x200000ec   COMPRESSED   0x00000004   Data   RW         1065    .data               aws_wifi.o
    0x200000f0   COMPRESSED   0x00000004   Data   RW         1103    .data               esp8266_wifi.o
    0x200000f4   COMPRESSED   0x00000114   Data   RW         1674    .data               aws_pkcs11_mbedtls.o
    0x20000208   COMPRESSED   0x00000010   Data   RW         1725    .data               aws_pkcs11_pal.o
    0x20000218   COMPRESSED   0x00000004   Data   RW         1814    .data               aws_secure_sockets.o
    0x2000021c   COMPRESSED   0x00000024   Data   RW         1843    .data               aws_test_tcp.o
    0x20000240   COMPRESSED   0x00000004   Data   RW         2311    .data               cipher.o
    0x20000244   COMPRESSED   0x00000004   Data   RW         2367    .data               ctr_drbg.o
    0x20000248   COMPRESSED   0x00000014   Data   RW         2431    .data               ecp.o
    0x2000025c   COMPRESSED   0x00000004   Data   RW         2449    .data               ecp_curves.o
    0x20000260   COMPRESSED   0x00000008   Data   RW         2724    .data               platform.o
    0x20000268   COMPRESSED   0x00000004   Data   RW         2815    .data               ssl_ciphersuites.o
    0x2000026c   COMPRESSED   0x00000027   Data   RW         2908    .data               ssl_tls.o
    0x20000293   COMPRESSED   0x00000001   PAD
    0x20000294   COMPRESSED   0x00000010   Data   RW         2947    .data               threading.o
    0x200002a4   COMPRESSED   0x00000004   Data   RW         3074    .data               platform_util.o
    0x200002a8   COMPRESSED   0x00000008   Data   RW         3215    .data               aws_logging_task_dynamic_buffers.o
    0x200002b0   COMPRESSED   0x00000004   Data   RW         3334    .data               unity.o
    0x200002b4   COMPRESSED   0x0000000c   Data   RW         3358    .data               unity_fixture.o
    0x200002c0   COMPRESSED   0x00000004   Data   RW         3769    .data               aws_dev_mode_key_provisioning.o
    0x200002c4   COMPRESSED   0x00000004   Data   RW         3799    .data               mc_w.l(rand.o)
    0x200002c8   COMPRESSED   0x00000004   Data   RW         3827    .data               mc_w.l(strtok_r.o)
    0x200002cc   COMPRESSED   0x00000004   Data   RW         4190    .data               mc_w.l(mvars.o)
    0x200002d0   COMPRESSED   0x00000004   Data   RW         4191    .data               mc_w.l(mvars.o)
    0x200002d4   COMPRESSED   0x00000004   Data   RW         4195    .data               mc_w.l(errno.o)
    0x200002d8        -       0x00000080   Zero   RW          311    .bss                entropy_hardware_poll.o
    0x20000358        -       0x00000040   Zero   RW          548    .bss                queue.o
    0x20000398        -       0x000000f0   Zero   RW          597    .bss                tasks.o
    0x20000488        -       0x000000f0   Zero   RW          628    .bss                timers.o
    0x20000578        -       0x0001a800   Zero   RW          689    .bss                heap_4.o
    0x2001ad78        -       0x00000484   Zero   RW          771    .bss                crypto.o
    0x2001b1fc        -       0x00000cc8   Zero   RW          873    .bss                aws_test.o
    0x2001bec4        -       0x00000fa0   Zero   RW          919    .bss                aws_test_runner.o
    0x2001ce64        -       0x00000c88   Zero   RW         1064    .bss                aws_wifi.o
    0x2001daec        -       0x0000400c   Zero   RW         1101    .bss                esp8266_wifi.o
    0x20021af8        -       0x00000358   Zero   RW         1673    .bss                aws_pkcs11_mbedtls.o
    0x20021e50        -       0x00000808   Zero   RW         1723    .bss                aws_pkcs11_pal.o
    0x20022658        -       0x00000068   Zero   RW         1813    .bss                aws_secure_sockets.o
    0x200226c0        -       0x00000040   Zero   RW         2335    .bss                cipher_wrap.o
    0x20022700        -       0x00000024   Zero   RW         2812    .bss                ssl_ciphersuites.o
    0x20022724   COMPRESSED   0x00000004   PAD
    0x20022728        -       0x000000c8   Zero   RW         3332    .bss                unity.o
    0x200227f0        -       0x00000038   Zero   RW         3356    .bss                unity_fixture.o
    0x20022828        -       0x00000100   Zero   RW            2    HEAP                startup_m480.o
    0x20022928        -       0x00000800   Zero   RW            1    STACK               startup_m480.o


==============================================================================

Image component sizes


      Code (inc. data)   RO Data    RW Data    ZI Data      Debug   Object Name

      5040        270       9700          0          0      19836   aes.o
      1160          0          0          0          0       6535   asn1parse.o
      1628          0          0          0          0       7924   asn1write.o
       428          8          0          0          0      24607   aws_crypto.o
         0          0          0          4          0       2506   aws_dev_mode_key_provisioning.o
         0          0          0          0          0        564   aws_iot_tests_shadow_parser.o
       444         54          0          8          0       2258   aws_logging_task_dynamic_buffers.o
      2924        314          0        276        856      21657   aws_pkcs11_mbedtls.o
       888        180         70         16       2056       6269   aws_pkcs11_pal.o
      2100        142          0          4        104       8790   aws_secure_sockets.o
        16          0          0          0          0        686   aws_system_init.o
        48         16          0          0       3272      10519   aws_test.o
       112         54          0          0       4000       2593   aws_test_runner.o
     19652       8128       6344         36          0      41687   aws_test_tcp.o
         0          0          0          0          0       1292   aws_test_wifi.o
      2088        454       7785          0          0      35717   aws_tls.o
       944         48          0          4       3208      12548   aws_wifi.o
       884         98        345          0          0       3767   base64.o
     12152        314       1585          0          0      29934   bignum.o
      2536         82          0          4          0      20828   cipher.o
       298          0        812          0         64      11810   cipher_wrap.o
      1968         84         32          0          0       8263   clk.o
      4340        156      20244         32       1156      15620   crypto.o
      1744        124        224          4          0       8619   ctr_drbg.o
       772          4          0          0          0       5411   ecdh.o
      1572         22          0          0          0       6251   ecdsa.o
      9552        296        369         20          0      23882   ecp.o
      1552         32        160          4          0       6153   ecp_curves.o
      1568         88          0          0          0       7004   entropy.o
       652         46          0         17        128     166641   entropy_hardware_poll.o
      5340       1100         50          4      16396      15783   esp8266_wifi.o
      1046          8          0          0          0      24995   event_groups.o
      1968         36          0          0          0       7910   fmc.o
      3556        174       3080          0          0      15837   gcm.o
       612         28          0         24     108544       3696   heap_4.o
        96         42          0          0          0       6889   iot_test_afr.o
         0          0          0          0          0       3112   iot_tests_network.o
       148          0          0          0          0       2170   list.o
       904        344          0         12          0      57453   main.o
      1048         48         16          0          0      10049   md.o
       304          0        144          0          0       6408   md_wrap.o
      1228         48       3343          0          0      22968   oid.o
       392         38          0          0          0       3696   pem.o
       844         44          0          0          0      11346   pk.o
      1158         40        268          0          0      14647   pk_wrap.o
      3196        342          0          0          0      10758   pkparse.o
      1536          8          0          0          0       5079   pkwrite.o
        64         10          0          8          0       2764   platform.o
        24          4          0          4          0       1751   platform_util.o
       894         58          0         12          0       9351   port.o
      3704         34          0          0         64      21343   queue.o
       384        128          0          8          0       5090   retarget.o
      6684        288        781          0          0      20494   rsa.o
      1848         72          0          0          0       4712   rsa_internal.o
      6464         94        244          0          0       6871   sha1.o
      4740        154        632          0          0       6789   sha256.o
       328         46       1433          4         36      39736   ssl_ciphersuites.o
      5588        116          0          0          0      44312   ssl_cli.o
     11976        382          0         39          0      85198   ssl_tls.o
       104         20        440          0       2304       1076   startup_m480.o
         0          0          0          0          0        392   stream_buffer.o
       220          6          0          0          0       2276   sys.o
       296         40          0         44          0      43821   system_m480.o
      6412        360          0         64        240      44917   tasks.o
        48         16          0         16          0       2611   threading.o
      1632         82          0         20        240      14969   timers.o
      1220         48         48          0          0       5624   uart.o
      4732        232        504          4        200      52012   unity.o
      1464        224          4         12         56       8704   unity_fixture.o
      2072        108          0          0          0      10154   x509.o
      7896        946       1246          0          0      28924   x509_crt.o

    ----------------------------------------------------------------------
    169240      16782      59964        708     142928    1206858   Object Totals
         0          0         32          0          0          0   (incl. Generated)
         8          0         29          4          4          0   (incl. Padding)

    ----------------------------------------------------------------------

      Code (inc. data)   RO Data    RW Data    ZI Data      Debug   Library Member Name

        56          8          0          0          0         84   __0sscanf.o
        86          0          0          0          0          0   __dczerorl2.o
        28          0          0          0          0         68   _chval.o
       812          4          0          0          0        112   _scanf.o
       332          0          0          0          0         96   _scanf_int.o
       224          0          0          0          0         96   _scanf_str.o
        64          0          0          0          0         84   _sgetc.o
       158          0          0          0          0         92   _strtoul.o
        26          0          0          0          0         80   atoi.o
        28          0          0          0          0         76   calloc.o
         8          4        133          0          0         68   ctype_o.o
         0          0          0          0          0          0   entry.o
         0          0          0          0          0          0   entry10a.o
         0          0          0          0          0          0   entry11a.o
         8          4          0          0          0          0   entry2.o
         4          0          0          0          0          0   entry5.o
         0          0          0          0          0          0   entry7b.o
         0          0          0          0          0          0   entry8b.o
         8          4          0          0          0          0   entry9a.o
         8          4          0          4          0         68   errno.o
        30          0          0          0          0          0   handlers.o
        36          8          0          0          0         68   init.o
        18          0          0          0          0         76   isspace_o.o
         0          0          0          0          0          0   iusefp.o
        30          0          0          0          0         68   llshl.o
        36          0          0          0          0         68   llsshr.o
        32          0          0          0          0         68   llushr.o
       188         20          0          0          0        160   malloc.o
        26          0          0          0          0         80   memcmp.o
        64          0          0          0          0         76   memmovea.o
        36          0          0          0          0        108   memseta.o
         0          0          0          8          0          0   mvars.o
      2422        104          0          0          0        836   printfa.o
         4          0          0          0          0         68   putc.o
        36         10          0          4          0        136   rand.o
        40          8          0          0          0         84   scanf_char.o
        28          0          0          0          0         76   strcmp.o
        48          0          0          0          0         76   strlcpy.o
        14          0          0          0          0         68   strlen.o
        30          0          0          0          0         80   strncmp.o
        24          0          0          0          0         76   strncpy.o
        36          0          0          0          0         80   strstr.o
        68          4          0          4          0         96   strtok_r.o
       112          0          0          0          0         88   strtol.o
        44          0          0          0          0         80   uidiv.o
        98          0          0          0          0         92   uldiv.o
        48          0          0          0          0         68   cdrcmple.o
       334          0          0          0          0        148   dadd.o
       222          0          0          0          0        100   ddiv.o
       186          0          0          0          0        176   depilogue.o
        48          0          0          0          0         68   dfixul.o
       228          0          0          0          0         96   dmul.o
        62          0          0          0          0         96   setjmp.o

    ----------------------------------------------------------------------
      6492        182        136         20          0       4384   Library Totals
        14          0          3          0          0          0   (incl. Padding)

    ----------------------------------------------------------------------

      Code (inc. data)   RO Data    RW Data    ZI Data      Debug   Library Name

      5350        182        133         20          0       3632   mc_w.l
      1128          0          0          0          0        752   mf_w.l

    ----------------------------------------------------------------------
      6492        182        136         20          0       4384   Library Totals

    ----------------------------------------------------------------------

==============================================================================


      Code (inc. data)   RO Data    RW Data    ZI Data      Debug   

    175732      16964      60100        728     142928    1194082   Grand Totals
    175732      16964      60100        196     142928    1194082   ELF Image Totals (compressed)
    175732      16964      60100        196          0          0   ROM Totals

==============================================================================

    Total RO  Size (Code + RO Data)               235832 ( 230.30kB)
    Total RW  Size (RW Data + ZI Data)            143656 ( 140.29kB)
    Total ROM Size (Code + RO Data + RW Data)     236028 ( 230.50kB)

==============================================================================

